
LPC1768/homework4.elf:     file format elf32-littlearm
architecture: arm, flags 0x00000112:
EXEC_P, HAS_SYMS, D_PAGED
start address 0x00001471


Disassembly of section .text:

00000000 <__isr_vector>:
       0:	10008000 	.word	0x10008000
       4:	00001471 	.word	0x00001471
       8:	000014a1 	.word	0x000014a1
       c:	000014a3 	.word	0x000014a3
      10:	000014a5 	.word	0x000014a5
      14:	000014a7 	.word	0x000014a7
      18:	000014a9 	.word	0x000014a9
	...
      2c:	000014ab 	.word	0x000014ab
      30:	000014ad 	.word	0x000014ad
      34:	00000000 	.word	0x00000000
      38:	000014af 	.word	0x000014af
      3c:	000014b1 	.word	0x000014b1
      40:	000014b3 	.word	0x000014b3
      44:	000014b3 	.word	0x000014b3
      48:	000014b3 	.word	0x000014b3
      4c:	000014b3 	.word	0x000014b3
      50:	000014b3 	.word	0x000014b3
      54:	000014b3 	.word	0x000014b3
      58:	000014b3 	.word	0x000014b3
      5c:	000014b3 	.word	0x000014b3
      60:	000014b3 	.word	0x000014b3
      64:	000014b3 	.word	0x000014b3
      68:	000014b3 	.word	0x000014b3
      6c:	000014b3 	.word	0x000014b3
      70:	000014b3 	.word	0x000014b3
      74:	000014b3 	.word	0x000014b3
      78:	000014b3 	.word	0x000014b3
      7c:	000014b3 	.word	0x000014b3
      80:	000014b3 	.word	0x000014b3
      84:	000014b3 	.word	0x000014b3
      88:	000014b3 	.word	0x000014b3
      8c:	000014b3 	.word	0x000014b3
      90:	000014b3 	.word	0x000014b3
      94:	000014b3 	.word	0x000014b3
      98:	000014b3 	.word	0x000014b3
      9c:	000014b3 	.word	0x000014b3
      a0:	000014b3 	.word	0x000014b3
      a4:	000014b3 	.word	0x000014b3
      a8:	000014b3 	.word	0x000014b3
      ac:	000014b3 	.word	0x000014b3
      b0:	000014b3 	.word	0x000014b3
      b4:	000014b3 	.word	0x000014b3
      b8:	000014b3 	.word	0x000014b3
      bc:	000014b3 	.word	0x000014b3
      c0:	000014b3 	.word	0x000014b3
      c4:	000014b3 	.word	0x000014b3
      c8:	000014b3 	.word	0x000014b3

000000cc <deregister_tm_clones>:
      cc:	4b04      	ldr	r3, [pc, #16]	; (e0 <deregister_tm_clones+0x14>)
      ce:	4805      	ldr	r0, [pc, #20]	; (e4 <deregister_tm_clones+0x18>)
      d0:	1a1b      	subs	r3, r3, r0
      d2:	2b06      	cmp	r3, #6
      d4:	d902      	bls.n	dc <deregister_tm_clones+0x10>
      d6:	4b04      	ldr	r3, [pc, #16]	; (e8 <deregister_tm_clones+0x1c>)
      d8:	b103      	cbz	r3, dc <deregister_tm_clones+0x10>
      da:	4718      	bx	r3
      dc:	4770      	bx	lr
      de:	bf00      	nop
      e0:	10000197 	.word	0x10000197
      e4:	10000194 	.word	0x10000194
      e8:	00000000 	.word	0x00000000

000000ec <register_tm_clones>:
      ec:	4905      	ldr	r1, [pc, #20]	; (104 <register_tm_clones+0x18>)
      ee:	4806      	ldr	r0, [pc, #24]	; (108 <register_tm_clones+0x1c>)
      f0:	1a09      	subs	r1, r1, r0
      f2:	1089      	asrs	r1, r1, #2
      f4:	eb01 71d1 	add.w	r1, r1, r1, lsr #31
      f8:	1049      	asrs	r1, r1, #1
      fa:	d002      	beq.n	102 <register_tm_clones+0x16>
      fc:	4b03      	ldr	r3, [pc, #12]	; (10c <register_tm_clones+0x20>)
      fe:	b103      	cbz	r3, 102 <register_tm_clones+0x16>
     100:	4718      	bx	r3
     102:	4770      	bx	lr
     104:	10000194 	.word	0x10000194
     108:	10000194 	.word	0x10000194
     10c:	00000000 	.word	0x00000000

00000110 <__do_global_dtors_aux>:
     110:	b510      	push	{r4, lr}
     112:	4c06      	ldr	r4, [pc, #24]	; (12c <__do_global_dtors_aux+0x1c>)
     114:	7823      	ldrb	r3, [r4, #0]
     116:	b943      	cbnz	r3, 12a <__do_global_dtors_aux+0x1a>
     118:	f7ff ffd8 	bl	cc <deregister_tm_clones>
     11c:	4b04      	ldr	r3, [pc, #16]	; (130 <__do_global_dtors_aux+0x20>)
     11e:	b113      	cbz	r3, 126 <__do_global_dtors_aux+0x16>
     120:	4804      	ldr	r0, [pc, #16]	; (134 <__do_global_dtors_aux+0x24>)
     122:	f3af 8000 	nop.w
     126:	2301      	movs	r3, #1
     128:	7023      	strb	r3, [r4, #0]
     12a:	bd10      	pop	{r4, pc}
     12c:	10000194 	.word	0x10000194
     130:	00000000 	.word	0x00000000
     134:	00004f58 	.word	0x00004f58

00000138 <frame_dummy>:
     138:	b508      	push	{r3, lr}
     13a:	4b08      	ldr	r3, [pc, #32]	; (15c <frame_dummy+0x24>)
     13c:	b11b      	cbz	r3, 146 <frame_dummy+0xe>
     13e:	4908      	ldr	r1, [pc, #32]	; (160 <frame_dummy+0x28>)
     140:	4808      	ldr	r0, [pc, #32]	; (164 <frame_dummy+0x2c>)
     142:	f3af 8000 	nop.w
     146:	4808      	ldr	r0, [pc, #32]	; (168 <frame_dummy+0x30>)
     148:	6803      	ldr	r3, [r0, #0]
     14a:	b913      	cbnz	r3, 152 <frame_dummy+0x1a>
     14c:	e8bd 4008 	ldmia.w	sp!, {r3, lr}
     150:	e7cc      	b.n	ec <register_tm_clones>
     152:	4b06      	ldr	r3, [pc, #24]	; (16c <frame_dummy+0x34>)
     154:	2b00      	cmp	r3, #0
     156:	d0f9      	beq.n	14c <frame_dummy+0x14>
     158:	4798      	blx	r3
     15a:	e7f7      	b.n	14c <frame_dummy+0x14>
     15c:	00000000 	.word	0x00000000
     160:	10000198 	.word	0x10000198
     164:	00004f58 	.word	0x00004f58
     168:	10000194 	.word	0x10000194
     16c:	00000000 	.word	0x00000000

00000170 <main>:
     170:	b570      	push	{r4, r5, r6, lr}
     172:	4919      	ldr	r1, [pc, #100]	; (1d8 <main+0x68>)
     174:	4819      	ldr	r0, [pc, #100]	; (1dc <main+0x6c>)
     176:	4c1a      	ldr	r4, [pc, #104]	; (1e0 <main+0x70>)
     178:	f000 fc58 	bl	a2c <pwmout_period>
     17c:	f04f 517c 	mov.w	r1, #1056964608	; 0x3f000000
     180:	4816      	ldr	r0, [pc, #88]	; (1dc <main+0x6c>)
     182:	4625      	mov	r5, r4
     184:	f000 fc26 	bl	9d4 <pwmout_write>
     188:	4e16      	ldr	r6, [pc, #88]	; (1e4 <main+0x74>)
     18a:	4817      	ldr	r0, [pc, #92]	; (1e8 <main+0x78>)
     18c:	f000 faf8 	bl	780 <analogin_read>
     190:	f845 0f04 	str.w	r0, [r5, #4]!
     194:	42ae      	cmp	r6, r5
     196:	d1f8      	bne.n	18a <main+0x1a>
     198:	f854 0f04 	ldr.w	r0, [r4, #4]!
     19c:	f001 faee 	bl	177c <__aeabi_f2d>
     1a0:	4602      	mov	r2, r0
     1a2:	460b      	mov	r3, r1
     1a4:	4811      	ldr	r0, [pc, #68]	; (1ec <main+0x7c>)
     1a6:	f002 ff0b 	bl	2fc0 <iprintf>
     1aa:	42b4      	cmp	r4, r6
     1ac:	d1f4      	bne.n	198 <main+0x28>
     1ae:	f241 3688 	movw	r6, #5000	; 0x1388
     1b2:	4d0f      	ldr	r5, [pc, #60]	; (1f0 <main+0x80>)
     1b4:	2400      	movs	r4, #0
     1b6:	f855 1024 	ldr.w	r1, [r5, r4, lsl #2]
     1ba:	480e      	ldr	r0, [pc, #56]	; (1f4 <main+0x84>)
     1bc:	3401      	adds	r4, #1
     1be:	f000 fa43 	bl	648 <analogout_write>
     1c2:	42b4      	cmp	r4, r6
     1c4:	480c      	ldr	r0, [pc, #48]	; (1f8 <main+0x88>)
     1c6:	d002      	beq.n	1ce <main+0x5e>
     1c8:	f000 f89a 	bl	300 <wait>
     1cc:	e7f3      	b.n	1b6 <main+0x46>
     1ce:	480a      	ldr	r0, [pc, #40]	; (1f8 <main+0x88>)
     1d0:	f000 f896 	bl	300 <wait>
     1d4:	2400      	movs	r4, #0
     1d6:	e7ee      	b.n	1b6 <main+0x46>
     1d8:	3dcccccd 	.word	0x3dcccccd
     1dc:	10004fd4 	.word	0x10004fd4
     1e0:	100001b0 	.word	0x100001b0
     1e4:	10004fd0 	.word	0x10004fd0
     1e8:	100001b0 	.word	0x100001b0
     1ec:	00004ab0 	.word	0x00004ab0
     1f0:	100001b4 	.word	0x100001b4
     1f4:	10004fdc 	.word	0x10004fdc
     1f8:	378481a7 	.word	0x378481a7

000001fc <_GLOBAL__sub_I_in>:
     1fc:	b508      	push	{r3, lr}
     1fe:	4907      	ldr	r1, [pc, #28]	; (21c <_GLOBAL__sub_I_in+0x20>)
     200:	4807      	ldr	r0, [pc, #28]	; (220 <_GLOBAL__sub_I_in+0x24>)
     202:	f000 fa7d 	bl	700 <analogin_init>
     206:	4907      	ldr	r1, [pc, #28]	; (224 <_GLOBAL__sub_I_in+0x28>)
     208:	4807      	ldr	r0, [pc, #28]	; (228 <_GLOBAL__sub_I_in+0x2c>)
     20a:	f000 f9ff 	bl	60c <analogout_init>
     20e:	e8bd 4008 	ldmia.w	sp!, {r3, lr}
     212:	4906      	ldr	r1, [pc, #24]	; (22c <_GLOBAL__sub_I_in+0x30>)
     214:	4806      	ldr	r0, [pc, #24]	; (230 <_GLOBAL__sub_I_in+0x34>)
     216:	f000 bb6d 	b.w	8f4 <pwmout_init>
     21a:	bf00      	nop
     21c:	2009c017 	.word	0x2009c017
     220:	100001b0 	.word	0x100001b0
     224:	2009c01a 	.word	0x2009c01a
     228:	10004fdc 	.word	0x10004fdc
     22c:	2009c045 	.word	0x2009c045
     230:	10004fd4 	.word	0x10004fd4

00000234 <_start>:
     234:	4a07      	ldr	r2, [pc, #28]	; (254 <_start+0x20>)
     236:	4808      	ldr	r0, [pc, #32]	; (258 <_start+0x24>)
     238:	b508      	push	{r3, lr}
     23a:	2100      	movs	r1, #0
     23c:	1a12      	subs	r2, r2, r0
     23e:	f002 f86c 	bl	231a <memset>
     242:	f3af 8000 	nop.w
     246:	f001 ffd5 	bl	21f4 <__libc_init_array>
     24a:	f001 f8d9 	bl	1400 <__wrap_main>
     24e:	f001 fe31 	bl	1eb4 <exit>
     252:	bf00      	nop
     254:	100051ec 	.word	0x100051ec
     258:	10000194 	.word	0x10000194

0000025c <__wrap__isatty>:
     25c:	2802      	cmp	r0, #2
     25e:	dc01      	bgt.n	264 <__wrap__isatty+0x8>
     260:	2001      	movs	r0, #1
     262:	4770      	bx	lr
     264:	f001 b894 	b.w	1390 <_isatty>

00000268 <__wrap_malloc>:
     268:	f3ef 8305 	mrs	r3, IPSR
     26c:	b103      	cbz	r3, 270 <__wrap_malloc+0x8>
     26e:	be00      	bkpt	0x0000
     270:	f002 b832 	b.w	22d8 <malloc>

00000274 <ticker_irq_handler>:
     274:	6803      	ldr	r3, [r0, #0]
     276:	b570      	push	{r4, r5, r6, lr}
     278:	68db      	ldr	r3, [r3, #12]
     27a:	4605      	mov	r5, r0
     27c:	4798      	blx	r3
     27e:	686b      	ldr	r3, [r5, #4]
     280:	685b      	ldr	r3, [r3, #4]
     282:	b183      	cbz	r3, 2a6 <ticker_irq_handler+0x32>
     284:	682a      	ldr	r2, [r5, #0]
     286:	681c      	ldr	r4, [r3, #0]
     288:	6853      	ldr	r3, [r2, #4]
     28a:	4798      	blx	r3
     28c:	1a20      	subs	r0, r4, r0
     28e:	2800      	cmp	r0, #0
     290:	686a      	ldr	r2, [r5, #4]
     292:	dc0d      	bgt.n	2b0 <ticker_irq_handler+0x3c>
     294:	6850      	ldr	r0, [r2, #4]
     296:	6811      	ldr	r1, [r2, #0]
     298:	6883      	ldr	r3, [r0, #8]
     29a:	6053      	str	r3, [r2, #4]
     29c:	2900      	cmp	r1, #0
     29e:	d0f0      	beq.n	282 <ticker_irq_handler+0xe>
     2a0:	6840      	ldr	r0, [r0, #4]
     2a2:	4788      	blx	r1
     2a4:	e7eb      	b.n	27e <ticker_irq_handler+0xa>
     2a6:	682b      	ldr	r3, [r5, #0]
     2a8:	e8bd 4070 	ldmia.w	sp!, {r4, r5, r6, lr}
     2ac:	689b      	ldr	r3, [r3, #8]
     2ae:	4718      	bx	r3
     2b0:	682b      	ldr	r3, [r5, #0]
     2b2:	6852      	ldr	r2, [r2, #4]
     2b4:	691b      	ldr	r3, [r3, #16]
     2b6:	6810      	ldr	r0, [r2, #0]
     2b8:	e8bd 4070 	ldmia.w	sp!, {r4, r5, r6, lr}
     2bc:	4718      	bx	r3
     2be:	bf00      	nop

000002c0 <semihost_exit>:
     2c0:	b530      	push	{r4, r5, lr}
     2c2:	b085      	sub	sp, #20
     2c4:	2418      	movs	r4, #24
     2c6:	466d      	mov	r5, sp
     2c8:	4620      	mov	r0, r4
     2ca:	4629      	mov	r1, r5
     2cc:	beab      	bkpt	0x00ab
     2ce:	4604      	mov	r4, r0
     2d0:	4620      	mov	r0, r4
     2d2:	b005      	add	sp, #20
     2d4:	bd30      	pop	{r4, r5, pc}
     2d6:	bf00      	nop

000002d8 <semihost_connected>:
     2d8:	4b02      	ldr	r3, [pc, #8]	; (2e4 <semihost_connected+0xc>)
     2da:	6818      	ldr	r0, [r3, #0]
     2dc:	f000 0001 	and.w	r0, r0, #1
     2e0:	4770      	bx	lr
     2e2:	bf00      	nop
     2e4:	e000edf0 	.word	0xe000edf0

000002e8 <wait_us>:
     2e8:	b538      	push	{r3, r4, r5, lr}
     2ea:	4605      	mov	r5, r0
     2ec:	f000 fadc 	bl	8a8 <us_ticker_read>
     2f0:	4604      	mov	r4, r0
     2f2:	f000 fad9 	bl	8a8 <us_ticker_read>
     2f6:	1b00      	subs	r0, r0, r4
     2f8:	42a8      	cmp	r0, r5
     2fa:	d3fa      	bcc.n	2f2 <wait_us+0xa>
     2fc:	bd38      	pop	{r3, r4, r5, pc}
     2fe:	bf00      	nop

00000300 <wait>:
     300:	b508      	push	{r3, lr}
     302:	4904      	ldr	r1, [pc, #16]	; (314 <wait+0x14>)
     304:	f001 fbc4 	bl	1a90 <__aeabi_fmul>
     308:	f001 fd88 	bl	1e1c <__aeabi_f2iz>
     30c:	e8bd 4008 	ldmia.w	sp!, {r3, lr}
     310:	f7ff bfea 	b.w	2e8 <wait_us>
     314:	49742400 	.word	0x49742400

00000318 <wait_ms>:
     318:	f44f 737a 	mov.w	r3, #1000	; 0x3e8
     31c:	fb03 f000 	mul.w	r0, r3, r0
     320:	f7ff bfe2 	b.w	2e8 <wait_us>

00000324 <error>:
     324:	b40f      	push	{r0, r1, r2, r3}
     326:	b500      	push	{lr}
     328:	4a06      	ldr	r2, [pc, #24]	; (344 <error+0x20>)
     32a:	b083      	sub	sp, #12
     32c:	ab04      	add	r3, sp, #16
     32e:	f853 1b04 	ldr.w	r1, [r3], #4
     332:	6810      	ldr	r0, [r2, #0]
     334:	461a      	mov	r2, r3
     336:	68c0      	ldr	r0, [r0, #12]
     338:	9301      	str	r3, [sp, #4]
     33a:	f002 f9d3 	bl	26e4 <vfiprintf>
     33e:	2001      	movs	r0, #1
     340:	f001 fdb8 	bl	1eb4 <exit>
     344:	1000014c 	.word	0x1000014c

00000348 <us_ticker_irq_handler>:
     348:	4801      	ldr	r0, [pc, #4]	; (350 <us_ticker_irq_handler+0x8>)
     34a:	f7ff bf93 	b.w	274 <ticker_irq_handler>
     34e:	bf00      	nop
     350:	00004ac8 	.word	0x00004ac8

00000354 <mbed_interface_connected>:
     354:	f7ff bfc0 	b.w	2d8 <semihost_connected>

00000358 <gpio_init_in>:
     358:	b538      	push	{r3, r4, r5, lr}
     35a:	460d      	mov	r5, r1
     35c:	4604      	mov	r4, r0
     35e:	f000 f99b 	bl	698 <gpio_init>
     362:	3501      	adds	r5, #1
     364:	d009      	beq.n	37a <gpio_init_in+0x22>
     366:	4620      	mov	r0, r4
     368:	2100      	movs	r1, #0
     36a:	f000 f9b7 	bl	6dc <gpio_dir>
     36e:	4620      	mov	r0, r4
     370:	e8bd 4038 	ldmia.w	sp!, {r3, r4, r5, lr}
     374:	2103      	movs	r1, #3
     376:	f000 b9ad 	b.w	6d4 <gpio_mode>
     37a:	bd38      	pop	{r3, r4, r5, pc}

0000037c <gpio_init_out>:
     37c:	b538      	push	{r3, r4, r5, lr}
     37e:	460d      	mov	r5, r1
     380:	4604      	mov	r4, r0
     382:	f000 f989 	bl	698 <gpio_init>
     386:	3501      	adds	r5, #1
     388:	d00c      	beq.n	3a4 <gpio_init_out+0x28>
     38a:	6923      	ldr	r3, [r4, #16]
     38c:	6862      	ldr	r2, [r4, #4]
     38e:	4620      	mov	r0, r4
     390:	2101      	movs	r1, #1
     392:	601a      	str	r2, [r3, #0]
     394:	f000 f9a2 	bl	6dc <gpio_dir>
     398:	4620      	mov	r0, r4
     39a:	e8bd 4038 	ldmia.w	sp!, {r3, r4, r5, lr}
     39e:	2102      	movs	r1, #2
     3a0:	f000 b998 	b.w	6d4 <gpio_mode>
     3a4:	bd38      	pop	{r3, r4, r5, pc}
     3a6:	bf00      	nop

000003a8 <gpio_init_out_ex>:
     3a8:	b570      	push	{r4, r5, r6, lr}
     3aa:	460d      	mov	r5, r1
     3ac:	4616      	mov	r6, r2
     3ae:	4604      	mov	r4, r0
     3b0:	f000 f972 	bl	698 <gpio_init>
     3b4:	3501      	adds	r5, #1
     3b6:	d011      	beq.n	3dc <gpio_init_out_ex+0x34>
     3b8:	b966      	cbnz	r6, 3d4 <gpio_init_out_ex+0x2c>
     3ba:	6923      	ldr	r3, [r4, #16]
     3bc:	6862      	ldr	r2, [r4, #4]
     3be:	601a      	str	r2, [r3, #0]
     3c0:	4620      	mov	r0, r4
     3c2:	2101      	movs	r1, #1
     3c4:	f000 f98a 	bl	6dc <gpio_dir>
     3c8:	4620      	mov	r0, r4
     3ca:	e8bd 4070 	ldmia.w	sp!, {r4, r5, r6, lr}
     3ce:	2102      	movs	r1, #2
     3d0:	f000 b980 	b.w	6d4 <gpio_mode>
     3d4:	68e3      	ldr	r3, [r4, #12]
     3d6:	6862      	ldr	r2, [r4, #4]
     3d8:	601a      	str	r2, [r3, #0]
     3da:	e7f1      	b.n	3c0 <gpio_init_out_ex+0x18>
     3dc:	bd70      	pop	{r4, r5, r6, pc}
     3de:	bf00      	nop

000003e0 <pinmap_pinout>:
     3e0:	1c43      	adds	r3, r0, #1
     3e2:	d01c      	beq.n	41e <pinmap_pinout+0x3e>
     3e4:	680b      	ldr	r3, [r1, #0]
     3e6:	1c5a      	adds	r2, r3, #1
     3e8:	d01a      	beq.n	420 <pinmap_pinout+0x40>
     3ea:	4298      	cmp	r0, r3
     3ec:	b510      	push	{r4, lr}
     3ee:	4604      	mov	r4, r0
     3f0:	d102      	bne.n	3f8 <pinmap_pinout+0x18>
     3f2:	e00a      	b.n	40a <pinmap_pinout+0x2a>
     3f4:	429c      	cmp	r4, r3
     3f6:	d008      	beq.n	40a <pinmap_pinout+0x2a>
     3f8:	f851 3f0c 	ldr.w	r3, [r1, #12]!
     3fc:	1c5a      	adds	r2, r3, #1
     3fe:	d1f9      	bne.n	3f4 <pinmap_pinout+0x14>
     400:	4809      	ldr	r0, [pc, #36]	; (428 <pinmap_pinout+0x48>)
     402:	e8bd 4010 	ldmia.w	sp!, {r4, lr}
     406:	f7ff bf8d 	b.w	324 <error>
     40a:	4620      	mov	r0, r4
     40c:	6889      	ldr	r1, [r1, #8]
     40e:	f000 fb37 	bl	a80 <pin_function>
     412:	4620      	mov	r0, r4
     414:	e8bd 4010 	ldmia.w	sp!, {r4, lr}
     418:	2102      	movs	r1, #2
     41a:	f000 bb4d 	b.w	ab8 <pin_mode>
     41e:	4770      	bx	lr
     420:	4801      	ldr	r0, [pc, #4]	; (428 <pinmap_pinout+0x48>)
     422:	f7ff bf7f 	b.w	324 <error>
     426:	bf00      	nop
     428:	00004ad0 	.word	0x00004ad0

0000042c <pinmap_merge>:
     42c:	4288      	cmp	r0, r1
     42e:	d00a      	beq.n	446 <pinmap_merge+0x1a>
     430:	1c42      	adds	r2, r0, #1
     432:	d009      	beq.n	448 <pinmap_merge+0x1c>
     434:	3101      	adds	r1, #1
     436:	d006      	beq.n	446 <pinmap_merge+0x1a>
     438:	b508      	push	{r3, lr}
     43a:	4804      	ldr	r0, [pc, #16]	; (44c <pinmap_merge+0x20>)
     43c:	f7ff ff72 	bl	324 <error>
     440:	f04f 30ff 	mov.w	r0, #4294967295
     444:	bd08      	pop	{r3, pc}
     446:	4770      	bx	lr
     448:	4608      	mov	r0, r1
     44a:	4770      	bx	lr
     44c:	00004ae4 	.word	0x00004ae4

00000450 <pinmap_find_peripheral>:
     450:	680b      	ldr	r3, [r1, #0]
     452:	1c5a      	adds	r2, r3, #1
     454:	d008      	beq.n	468 <pinmap_find_peripheral+0x18>
     456:	4298      	cmp	r0, r3
     458:	d102      	bne.n	460 <pinmap_find_peripheral+0x10>
     45a:	e007      	b.n	46c <pinmap_find_peripheral+0x1c>
     45c:	4283      	cmp	r3, r0
     45e:	d005      	beq.n	46c <pinmap_find_peripheral+0x1c>
     460:	f851 3f0c 	ldr.w	r3, [r1, #12]!
     464:	1c5a      	adds	r2, r3, #1
     466:	d1f9      	bne.n	45c <pinmap_find_peripheral+0xc>
     468:	4618      	mov	r0, r3
     46a:	4770      	bx	lr
     46c:	6848      	ldr	r0, [r1, #4]
     46e:	4770      	bx	lr

00000470 <pinmap_peripheral>:
     470:	1c42      	adds	r2, r0, #1
     472:	d00e      	beq.n	492 <pinmap_peripheral+0x22>
     474:	b508      	push	{r3, lr}
     476:	680b      	ldr	r3, [r1, #0]
     478:	1c5a      	adds	r2, r3, #1
     47a:	d104      	bne.n	486 <pinmap_peripheral+0x16>
     47c:	e00a      	b.n	494 <pinmap_peripheral+0x24>
     47e:	f851 3f0c 	ldr.w	r3, [r1, #12]!
     482:	1c5a      	adds	r2, r3, #1
     484:	d006      	beq.n	494 <pinmap_peripheral+0x24>
     486:	4298      	cmp	r0, r3
     488:	d1f9      	bne.n	47e <pinmap_peripheral+0xe>
     48a:	6848      	ldr	r0, [r1, #4]
     48c:	1c41      	adds	r1, r0, #1
     48e:	d001      	beq.n	494 <pinmap_peripheral+0x24>
     490:	bd08      	pop	{r3, pc}
     492:	4770      	bx	lr
     494:	4802      	ldr	r0, [pc, #8]	; (4a0 <pinmap_peripheral+0x30>)
     496:	f7ff ff45 	bl	324 <error>
     49a:	f04f 30ff 	mov.w	r0, #4294967295
     49e:	bd08      	pop	{r3, pc}
     4a0:	00004af8 	.word	0x00004af8

000004a4 <mbed_die>:
     4a4:	b500      	push	{lr}
     4a6:	b099      	sub	sp, #100	; 0x64
     4a8:	b672      	cpsid	i
     4aa:	4917      	ldr	r1, [pc, #92]	; (508 <mbed_die+0x64>)
     4ac:	4668      	mov	r0, sp
     4ae:	f7ff ff65 	bl	37c <gpio_init_out>
     4b2:	a806      	add	r0, sp, #24
     4b4:	4915      	ldr	r1, [pc, #84]	; (50c <mbed_die+0x68>)
     4b6:	f7ff ff61 	bl	37c <gpio_init_out>
     4ba:	a80c      	add	r0, sp, #48	; 0x30
     4bc:	4914      	ldr	r1, [pc, #80]	; (510 <mbed_die+0x6c>)
     4be:	f7ff ff5d 	bl	37c <gpio_init_out>
     4c2:	a812      	add	r0, sp, #72	; 0x48
     4c4:	4913      	ldr	r1, [pc, #76]	; (514 <mbed_die+0x70>)
     4c6:	f7ff ff59 	bl	37c <gpio_init_out>
     4ca:	9a03      	ldr	r2, [sp, #12]
     4cc:	9901      	ldr	r1, [sp, #4]
     4ce:	9b0a      	ldr	r3, [sp, #40]	; 0x28
     4d0:	6011      	str	r1, [r2, #0]
     4d2:	9907      	ldr	r1, [sp, #28]
     4d4:	9a10      	ldr	r2, [sp, #64]	; 0x40
     4d6:	6019      	str	r1, [r3, #0]
     4d8:	990d      	ldr	r1, [sp, #52]	; 0x34
     4da:	9b15      	ldr	r3, [sp, #84]	; 0x54
     4dc:	6011      	str	r1, [r2, #0]
     4de:	9a13      	ldr	r2, [sp, #76]	; 0x4c
     4e0:	2096      	movs	r0, #150	; 0x96
     4e2:	601a      	str	r2, [r3, #0]
     4e4:	f7ff ff18 	bl	318 <wait_ms>
     4e8:	9a04      	ldr	r2, [sp, #16]
     4ea:	9901      	ldr	r1, [sp, #4]
     4ec:	9b09      	ldr	r3, [sp, #36]	; 0x24
     4ee:	6011      	str	r1, [r2, #0]
     4f0:	9907      	ldr	r1, [sp, #28]
     4f2:	9a0f      	ldr	r2, [sp, #60]	; 0x3c
     4f4:	6019      	str	r1, [r3, #0]
     4f6:	990d      	ldr	r1, [sp, #52]	; 0x34
     4f8:	9b16      	ldr	r3, [sp, #88]	; 0x58
     4fa:	6011      	str	r1, [r2, #0]
     4fc:	9a13      	ldr	r2, [sp, #76]	; 0x4c
     4fe:	2096      	movs	r0, #150	; 0x96
     500:	601a      	str	r2, [r3, #0]
     502:	f7ff ff09 	bl	318 <wait_ms>
     506:	e7e0      	b.n	4ca <mbed_die+0x26>
     508:	2009c032 	.word	0x2009c032
     50c:	2009c034 	.word	0x2009c034
     510:	2009c035 	.word	0x2009c035
     514:	2009c037 	.word	0x2009c037

00000518 <NVIC_SetVector>:
     518:	4b0c      	ldr	r3, [pc, #48]	; (54c <NVIC_SetVector+0x34>)
     51a:	b430      	push	{r4, r5}
     51c:	689d      	ldr	r5, [r3, #8]
     51e:	689a      	ldr	r2, [r3, #8]
     520:	462b      	mov	r3, r5
     522:	f1b2 5f80 	cmp.w	r2, #268435456	; 0x10000000
     526:	d20c      	bcs.n	542 <NVIC_SetVector+0x2a>
     528:	4a09      	ldr	r2, [pc, #36]	; (550 <NVIC_SetVector+0x38>)
     52a:	35c4      	adds	r5, #196	; 0xc4
     52c:	f853 4b04 	ldr.w	r4, [r3], #4
     530:	42ab      	cmp	r3, r5
     532:	f842 4f04 	str.w	r4, [r2, #4]!
     536:	d1f9      	bne.n	52c <NVIC_SetVector+0x14>
     538:	f04f 5280 	mov.w	r2, #268435456	; 0x10000000
     53c:	4613      	mov	r3, r2
     53e:	4c03      	ldr	r4, [pc, #12]	; (54c <NVIC_SetVector+0x34>)
     540:	60a2      	str	r2, [r4, #8]
     542:	3010      	adds	r0, #16
     544:	f843 1020 	str.w	r1, [r3, r0, lsl #2]
     548:	bc30      	pop	{r4, r5}
     54a:	4770      	bx	lr
     54c:	e000ed00 	.word	0xe000ed00
     550:	0ffffffc 	.word	0x0ffffffc

00000554 <SystemInit>:
     554:	4a2b      	ldr	r2, [pc, #172]	; (604 <SystemInit+0xb0>)
     556:	2320      	movs	r3, #32
     558:	b4f0      	push	{r4, r5, r6, r7}
     55a:	f8c2 31a0 	str.w	r3, [r2, #416]	; 0x1a0
     55e:	f8d2 31a0 	ldr.w	r3, [r2, #416]	; 0x1a0
     562:	0698      	lsls	r0, r3, #26
     564:	d445      	bmi.n	5f2 <SystemInit+0x9e>
     566:	4b27      	ldr	r3, [pc, #156]	; (604 <SystemInit+0xb0>)
     568:	2500      	movs	r5, #0
     56a:	4619      	mov	r1, r3
     56c:	2401      	movs	r4, #1
     56e:	20aa      	movs	r0, #170	; 0xaa
     570:	2255      	movs	r2, #85	; 0x55
     572:	2702      	movs	r7, #2
     574:	260b      	movs	r6, #11
     576:	f8c3 7104 	str.w	r7, [r3, #260]	; 0x104
     57a:	f8c3 51a8 	str.w	r5, [r3, #424]	; 0x1a8
     57e:	f8c3 51ac 	str.w	r5, [r3, #428]	; 0x1ac
     582:	f8c3 410c 	str.w	r4, [r3, #268]	; 0x10c
     586:	f8c3 6084 	str.w	r6, [r3, #132]	; 0x84
     58a:	f8c3 008c 	str.w	r0, [r3, #140]	; 0x8c
     58e:	f8c3 208c 	str.w	r2, [r3, #140]	; 0x8c
     592:	f8c3 4080 	str.w	r4, [r3, #128]	; 0x80
     596:	f8c3 008c 	str.w	r0, [r3, #140]	; 0x8c
     59a:	f8c3 208c 	str.w	r2, [r3, #140]	; 0x8c
     59e:	f8d1 3088 	ldr.w	r3, [r1, #136]	; 0x88
     5a2:	4a18      	ldr	r2, [pc, #96]	; (604 <SystemInit+0xb0>)
     5a4:	015b      	lsls	r3, r3, #5
     5a6:	d5fa      	bpl.n	59e <SystemInit+0x4a>
     5a8:	4611      	mov	r1, r2
     5aa:	2403      	movs	r4, #3
     5ac:	20aa      	movs	r0, #170	; 0xaa
     5ae:	2355      	movs	r3, #85	; 0x55
     5b0:	f8c2 4080 	str.w	r4, [r2, #128]	; 0x80
     5b4:	f8c2 008c 	str.w	r0, [r2, #140]	; 0x8c
     5b8:	f8c2 308c 	str.w	r3, [r2, #140]	; 0x8c
     5bc:	f8d1 3088 	ldr.w	r3, [r1, #136]	; 0x88
     5c0:	4a10      	ldr	r2, [pc, #64]	; (604 <SystemInit+0xb0>)
     5c2:	f013 7f40 	tst.w	r3, #50331648	; 0x3000000
     5c6:	d0f9      	beq.n	5bc <SystemInit+0x68>
     5c8:	490f      	ldr	r1, [pc, #60]	; (608 <SystemInit+0xb4>)
     5ca:	2300      	movs	r3, #0
     5cc:	2005      	movs	r0, #5
     5ce:	f8c2 0108 	str.w	r0, [r2, #264]	; 0x108
     5d2:	f8c2 10c4 	str.w	r1, [r2, #196]	; 0xc4
     5d6:	f8c2 31c8 	str.w	r3, [r2, #456]	; 0x1c8
     5da:	6813      	ldr	r3, [r2, #0]
     5dc:	bcf0      	pop	{r4, r5, r6, r7}
     5de:	f423 4370 	bic.w	r3, r3, #61440	; 0xf000
     5e2:	f023 033a 	bic.w	r3, r3, #58	; 0x3a
     5e6:	f443 5340 	orr.w	r3, r3, #12288	; 0x3000
     5ea:	f043 033a 	orr.w	r3, r3, #58	; 0x3a
     5ee:	6013      	str	r3, [r2, #0]
     5f0:	4770      	bx	lr
     5f2:	f8d2 31a0 	ldr.w	r3, [r2, #416]	; 0x1a0
     5f6:	0659      	lsls	r1, r3, #25
     5f8:	d4b5      	bmi.n	566 <SystemInit+0x12>
     5fa:	f8d2 31a0 	ldr.w	r3, [r2, #416]	; 0x1a0
     5fe:	0659      	lsls	r1, r3, #25
     600:	d5f7      	bpl.n	5f2 <SystemInit+0x9e>
     602:	e7b0      	b.n	566 <SystemInit+0x12>
     604:	400fc000 	.word	0x400fc000
     608:	042887de 	.word	0x042887de

0000060c <analogout_init>:
     60c:	b570      	push	{r4, r5, r6, lr}
     60e:	460c      	mov	r4, r1
     610:	4d0a      	ldr	r5, [pc, #40]	; (63c <analogout_init+0x30>)
     612:	4606      	mov	r6, r0
     614:	4629      	mov	r1, r5
     616:	4620      	mov	r0, r4
     618:	f7ff ff2a 	bl	470 <pinmap_peripheral>
     61c:	4a08      	ldr	r2, [pc, #32]	; (640 <analogout_init+0x34>)
     61e:	7030      	strb	r0, [r6, #0]
     620:	f8d2 31a8 	ldr.w	r3, [r2, #424]	; 0x1a8
     624:	4629      	mov	r1, r5
     626:	f423 0340 	bic.w	r3, r3, #12582912	; 0xc00000
     62a:	f8c2 31a8 	str.w	r3, [r2, #424]	; 0x1a8
     62e:	4620      	mov	r0, r4
     630:	f7ff fed6 	bl	3e0 <pinmap_pinout>
     634:	4b03      	ldr	r3, [pc, #12]	; (644 <analogout_init+0x38>)
     636:	2200      	movs	r2, #0
     638:	601a      	str	r2, [r3, #0]
     63a:	bd70      	pop	{r4, r5, r6, pc}
     63c:	00004b38 	.word	0x00004b38
     640:	400fc000 	.word	0x400fc000
     644:	4008c000 	.word	0x4008c000

00000648 <analogout_write>:
     648:	b510      	push	{r4, lr}
     64a:	460c      	mov	r4, r1
     64c:	2100      	movs	r1, #0
     64e:	4620      	mov	r0, r4
     650:	f001 fbbc 	bl	1dcc <__aeabi_fcmplt>
     654:	b9b8      	cbnz	r0, 686 <analogout_write+0x3e>
     656:	f04f 517e 	mov.w	r1, #1065353216	; 0x3f800000
     65a:	4620      	mov	r0, r4
     65c:	f001 fbd4 	bl	1e08 <__aeabi_fcmpgt>
     660:	b120      	cbz	r0, 66c <analogout_write+0x24>
     662:	f64f 72c0 	movw	r2, #65472	; 0xffc0
     666:	4b0a      	ldr	r3, [pc, #40]	; (690 <analogout_write+0x48>)
     668:	601a      	str	r2, [r3, #0]
     66a:	bd10      	pop	{r4, pc}
     66c:	4909      	ldr	r1, [pc, #36]	; (694 <analogout_write+0x4c>)
     66e:	4620      	mov	r0, r4
     670:	f001 fa0e 	bl	1a90 <__aeabi_fmul>
     674:	f001 fbd2 	bl	1e1c <__aeabi_f2iz>
     678:	f64f 73c0 	movw	r3, #65472	; 0xffc0
     67c:	0180      	lsls	r0, r0, #6
     67e:	4a04      	ldr	r2, [pc, #16]	; (690 <analogout_write+0x48>)
     680:	4003      	ands	r3, r0
     682:	6013      	str	r3, [r2, #0]
     684:	bd10      	pop	{r4, pc}
     686:	4b02      	ldr	r3, [pc, #8]	; (690 <analogout_write+0x48>)
     688:	2200      	movs	r2, #0
     68a:	601a      	str	r2, [r3, #0]
     68c:	bd10      	pop	{r4, pc}
     68e:	bf00      	nop
     690:	4008c000 	.word	0x4008c000
     694:	447fc000 	.word	0x447fc000

00000698 <gpio_init>:
     698:	1c4a      	adds	r2, r1, #1
     69a:	6001      	str	r1, [r0, #0]
     69c:	d018      	beq.n	6d0 <gpio_init+0x38>
     69e:	b538      	push	{r3, r4, r5, lr}
     6a0:	460c      	mov	r4, r1
     6a2:	4605      	mov	r5, r0
     6a4:	2100      	movs	r1, #0
     6a6:	4620      	mov	r0, r4
     6a8:	f000 f9ea 	bl	a80 <pin_function>
     6ac:	f024 011f 	bic.w	r1, r4, #31
     6b0:	f004 021f 	and.w	r2, r4, #31
     6b4:	2301      	movs	r3, #1
     6b6:	4093      	lsls	r3, r2
     6b8:	f101 0418 	add.w	r4, r1, #24
     6bc:	f101 001c 	add.w	r0, r1, #28
     6c0:	f101 0214 	add.w	r2, r1, #20
     6c4:	60a9      	str	r1, [r5, #8]
     6c6:	606b      	str	r3, [r5, #4]
     6c8:	60ec      	str	r4, [r5, #12]
     6ca:	6128      	str	r0, [r5, #16]
     6cc:	616a      	str	r2, [r5, #20]
     6ce:	bd38      	pop	{r3, r4, r5, pc}
     6d0:	4770      	bx	lr
     6d2:	bf00      	nop

000006d4 <gpio_mode>:
     6d4:	6800      	ldr	r0, [r0, #0]
     6d6:	f000 b9ef 	b.w	ab8 <pin_mode>
     6da:	bf00      	nop

000006dc <gpio_dir>:
     6dc:	b141      	cbz	r1, 6f0 <gpio_dir+0x14>
     6de:	2901      	cmp	r1, #1
     6e0:	d105      	bne.n	6ee <gpio_dir+0x12>
     6e2:	6882      	ldr	r2, [r0, #8]
     6e4:	6843      	ldr	r3, [r0, #4]
     6e6:	6811      	ldr	r1, [r2, #0]
     6e8:	430b      	orrs	r3, r1
     6ea:	6013      	str	r3, [r2, #0]
     6ec:	4770      	bx	lr
     6ee:	4770      	bx	lr
     6f0:	6882      	ldr	r2, [r0, #8]
     6f2:	6841      	ldr	r1, [r0, #4]
     6f4:	6813      	ldr	r3, [r2, #0]
     6f6:	ea23 0301 	bic.w	r3, r3, r1
     6fa:	6013      	str	r3, [r2, #0]
     6fc:	4770      	bx	lr
     6fe:	bf00      	nop

00000700 <analogin_init>:
     700:	b570      	push	{r4, r5, r6, lr}
     702:	460c      	mov	r4, r1
     704:	4d18      	ldr	r5, [pc, #96]	; (768 <analogin_init+0x68>)
     706:	4606      	mov	r6, r0
     708:	4629      	mov	r1, r5
     70a:	4620      	mov	r0, r4
     70c:	f7ff feb0 	bl	470 <pinmap_peripheral>
     710:	4a16      	ldr	r2, [pc, #88]	; (76c <analogin_init+0x6c>)
     712:	7030      	strb	r0, [r6, #0]
     714:	f8d2 30c4 	ldr.w	r3, [r2, #196]	; 0xc4
     718:	4e15      	ldr	r6, [pc, #84]	; (770 <analogin_init+0x70>)
     71a:	f443 5380 	orr.w	r3, r3, #4096	; 0x1000
     71e:	f8c2 30c4 	str.w	r3, [r2, #196]	; 0xc4
     722:	f8d2 31a8 	ldr.w	r3, [r2, #424]	; 0x1a8
     726:	4913      	ldr	r1, [pc, #76]	; (774 <analogin_init+0x74>)
     728:	f023 7340 	bic.w	r3, r3, #50331648	; 0x3000000
     72c:	f8c2 31a8 	str.w	r3, [r2, #424]	; 0x1a8
     730:	f8d2 01a8 	ldr.w	r0, [r2, #424]	; 0x1a8
     734:	4b10      	ldr	r3, [pc, #64]	; (778 <analogin_init+0x78>)
     736:	f040 7080 	orr.w	r0, r0, #16777216	; 0x1000000
     73a:	f8c2 01a8 	str.w	r0, [r2, #424]	; 0x1a8
     73e:	6832      	ldr	r2, [r6, #0]
     740:	4e0e      	ldr	r6, [pc, #56]	; (77c <analogin_init+0x7c>)
     742:	4411      	add	r1, r2
     744:	43ca      	mvns	r2, r1
     746:	fb83 0301 	smull	r0, r3, r3, r1
     74a:	0fd2      	lsrs	r2, r2, #31
     74c:	440b      	add	r3, r1
     74e:	ebc2 53e3 	rsb	r3, r2, r3, asr #23
     752:	021b      	lsls	r3, r3, #8
     754:	f443 1300 	orr.w	r3, r3, #2097152	; 0x200000
     758:	4629      	mov	r1, r5
     75a:	4620      	mov	r0, r4
     75c:	6033      	str	r3, [r6, #0]
     75e:	e8bd 4070 	ldmia.w	sp!, {r4, r5, r6, lr}
     762:	f7ff be3d 	b.w	3e0 <pinmap_pinout>
     766:	bf00      	nop
     768:	00004b50 	.word	0x00004b50
     76c:	400fc000 	.word	0x400fc000
     770:	100000c8 	.word	0x100000c8
     774:	00c65d3f 	.word	0x00c65d3f
     778:	a530e8a5 	.word	0xa530e8a5
     77c:	40034000 	.word	0x40034000

00000780 <analogin_read>:
     780:	4b2b      	ldr	r3, [pc, #172]	; (830 <Heap_Size+0x30>)
     782:	b570      	push	{r4, r5, r6, lr}
     784:	461a      	mov	r2, r3
     786:	6819      	ldr	r1, [r3, #0]
     788:	7800      	ldrb	r0, [r0, #0]
     78a:	f021 01ff 	bic.w	r1, r1, #255	; 0xff
     78e:	6019      	str	r1, [r3, #0]
     790:	6819      	ldr	r1, [r3, #0]
     792:	2501      	movs	r5, #1
     794:	4085      	lsls	r5, r0
     796:	4329      	orrs	r1, r5
     798:	6019      	str	r1, [r3, #0]
     79a:	6819      	ldr	r1, [r3, #0]
     79c:	f041 7180 	orr.w	r1, r1, #16777216	; 0x1000000
     7a0:	6019      	str	r1, [r3, #0]
     7a2:	6850      	ldr	r0, [r2, #4]
     7a4:	4b22      	ldr	r3, [pc, #136]	; (830 <Heap_Size+0x30>)
     7a6:	2800      	cmp	r0, #0
     7a8:	dafb      	bge.n	7a2 <analogin_read+0x22>
     7aa:	461a      	mov	r2, r3
     7ac:	6819      	ldr	r1, [r3, #0]
     7ae:	f3c0 100b 	ubfx	r0, r0, #4, #12
     7b2:	f021 7180 	bic.w	r1, r1, #16777216	; 0x1000000
     7b6:	6019      	str	r1, [r3, #0]
     7b8:	6819      	ldr	r1, [r3, #0]
     7ba:	f021 01ff 	bic.w	r1, r1, #255	; 0xff
     7be:	6019      	str	r1, [r3, #0]
     7c0:	6819      	ldr	r1, [r3, #0]
     7c2:	4329      	orrs	r1, r5
     7c4:	6019      	str	r1, [r3, #0]
     7c6:	6819      	ldr	r1, [r3, #0]
     7c8:	f041 7180 	orr.w	r1, r1, #16777216	; 0x1000000
     7cc:	6019      	str	r1, [r3, #0]
     7ce:	6853      	ldr	r3, [r2, #4]
     7d0:	4917      	ldr	r1, [pc, #92]	; (830 <Heap_Size+0x30>)
     7d2:	2b00      	cmp	r3, #0
     7d4:	dafb      	bge.n	7ce <analogin_read+0x4e>
     7d6:	460c      	mov	r4, r1
     7d8:	680e      	ldr	r6, [r1, #0]
     7da:	f3c3 120b 	ubfx	r2, r3, #4, #12
     7de:	f026 7380 	bic.w	r3, r6, #16777216	; 0x1000000
     7e2:	600b      	str	r3, [r1, #0]
     7e4:	680b      	ldr	r3, [r1, #0]
     7e6:	f023 03ff 	bic.w	r3, r3, #255	; 0xff
     7ea:	600b      	str	r3, [r1, #0]
     7ec:	680b      	ldr	r3, [r1, #0]
     7ee:	431d      	orrs	r5, r3
     7f0:	600d      	str	r5, [r1, #0]
     7f2:	680b      	ldr	r3, [r1, #0]
     7f4:	f043 7380 	orr.w	r3, r3, #16777216	; 0x1000000
     7f8:	600b      	str	r3, [r1, #0]
     7fa:	6863      	ldr	r3, [r4, #4]
     7fc:	490c      	ldr	r1, [pc, #48]	; (830 <Heap_Size+0x30>)
     7fe:	2b00      	cmp	r3, #0
     800:	dafb      	bge.n	7fa <analogin_read+0x7a>
     802:	680c      	ldr	r4, [r1, #0]
     804:	4282      	cmp	r2, r0
     806:	f024 7480 	bic.w	r4, r4, #16777216	; 0x1000000
     80a:	f3c3 130b 	ubfx	r3, r3, #4, #12
     80e:	600c      	str	r4, [r1, #0]
     810:	d202      	bcs.n	818 <Heap_Size+0x18>
     812:	4601      	mov	r1, r0
     814:	4610      	mov	r0, r2
     816:	460a      	mov	r2, r1
     818:	4293      	cmp	r3, r2
     81a:	bf28      	it	cs
     81c:	4613      	movcs	r3, r2
     81e:	4298      	cmp	r0, r3
     820:	bf38      	it	cc
     822:	4618      	movcc	r0, r3
     824:	f001 f8dc 	bl	19e0 <__aeabi_ui2f>
     828:	4902      	ldr	r1, [pc, #8]	; (834 <Heap_Size+0x34>)
     82a:	f001 f931 	bl	1a90 <__aeabi_fmul>
     82e:	bd70      	pop	{r4, r5, r6, pc}
     830:	40034000 	.word	0x40034000
     834:	39800801 	.word	0x39800801

00000838 <us_ticker_init.part.0>:
     838:	b538      	push	{r3, r4, r5, lr}
     83a:	4910      	ldr	r1, [pc, #64]	; (87c <us_ticker_init.part.0+0x44>)
     83c:	4b10      	ldr	r3, [pc, #64]	; (880 <us_ticker_init.part.0+0x48>)
     83e:	2401      	movs	r4, #1
     840:	601c      	str	r4, [r3, #0]
     842:	f8d1 30c4 	ldr.w	r3, [r1, #196]	; 0xc4
     846:	4a0f      	ldr	r2, [pc, #60]	; (884 <us_ticker_init.part.0+0x4c>)
     848:	f443 0300 	orr.w	r3, r3, #8388608	; 0x800000
     84c:	480e      	ldr	r0, [pc, #56]	; (888 <us_ticker_init.part.0+0x50>)
     84e:	2500      	movs	r5, #0
     850:	f8c1 30c4 	str.w	r3, [r1, #196]	; 0xc4
     854:	6715      	str	r5, [r2, #112]	; 0x70
     856:	6803      	ldr	r3, [r0, #0]
     858:	480c      	ldr	r0, [pc, #48]	; (88c <us_ticker_init.part.0+0x54>)
     85a:	2102      	movs	r1, #2
     85c:	fba0 0303 	umull	r0, r3, r0, r3
     860:	0d1b      	lsrs	r3, r3, #20
     862:	3b01      	subs	r3, #1
     864:	6051      	str	r1, [r2, #4]
     866:	2004      	movs	r0, #4
     868:	60d3      	str	r3, [r2, #12]
     86a:	4909      	ldr	r1, [pc, #36]	; (890 <us_ticker_init.part.0+0x58>)
     86c:	6054      	str	r4, [r2, #4]
     86e:	f7ff fe53 	bl	518 <NVIC_SetVector>
     872:	4b08      	ldr	r3, [pc, #32]	; (894 <us_ticker_init.part.0+0x5c>)
     874:	2210      	movs	r2, #16
     876:	601a      	str	r2, [r3, #0]
     878:	bd38      	pop	{r3, r4, r5, pc}
     87a:	bf00      	nop
     87c:	400fc000 	.word	0x400fc000
     880:	10004fe8 	.word	0x10004fe8
     884:	40094000 	.word	0x40094000
     888:	100000c8 	.word	0x100000c8
     88c:	431bde83 	.word	0x431bde83
     890:	00000349 	.word	0x00000349
     894:	e000e100 	.word	0xe000e100

00000898 <us_ticker_init>:
     898:	4b02      	ldr	r3, [pc, #8]	; (8a4 <us_ticker_init+0xc>)
     89a:	681b      	ldr	r3, [r3, #0]
     89c:	b103      	cbz	r3, 8a0 <us_ticker_init+0x8>
     89e:	4770      	bx	lr
     8a0:	f7ff bfca 	b.w	838 <us_ticker_init.part.0>
     8a4:	10004fe8 	.word	0x10004fe8

000008a8 <us_ticker_read>:
     8a8:	b508      	push	{r3, lr}
     8aa:	4b04      	ldr	r3, [pc, #16]	; (8bc <us_ticker_read+0x14>)
     8ac:	681b      	ldr	r3, [r3, #0]
     8ae:	b90b      	cbnz	r3, 8b4 <us_ticker_read+0xc>
     8b0:	f7ff ffc2 	bl	838 <us_ticker_init.part.0>
     8b4:	4b02      	ldr	r3, [pc, #8]	; (8c0 <us_ticker_read+0x18>)
     8b6:	6898      	ldr	r0, [r3, #8]
     8b8:	bd08      	pop	{r3, pc}
     8ba:	bf00      	nop
     8bc:	10004fe8 	.word	0x10004fe8
     8c0:	40094000 	.word	0x40094000

000008c4 <us_ticker_set_interrupt>:
     8c4:	4b03      	ldr	r3, [pc, #12]	; (8d4 <us_ticker_set_interrupt+0x10>)
     8c6:	6198      	str	r0, [r3, #24]
     8c8:	695a      	ldr	r2, [r3, #20]
     8ca:	f042 0201 	orr.w	r2, r2, #1
     8ce:	615a      	str	r2, [r3, #20]
     8d0:	4770      	bx	lr
     8d2:	bf00      	nop
     8d4:	40094000 	.word	0x40094000

000008d8 <us_ticker_disable_interrupt>:
     8d8:	4a02      	ldr	r2, [pc, #8]	; (8e4 <us_ticker_disable_interrupt+0xc>)
     8da:	6953      	ldr	r3, [r2, #20]
     8dc:	f023 0301 	bic.w	r3, r3, #1
     8e0:	6153      	str	r3, [r2, #20]
     8e2:	4770      	bx	lr
     8e4:	40094000 	.word	0x40094000

000008e8 <us_ticker_clear_interrupt>:
     8e8:	4b01      	ldr	r3, [pc, #4]	; (8f0 <us_ticker_clear_interrupt+0x8>)
     8ea:	2201      	movs	r2, #1
     8ec:	601a      	str	r2, [r3, #0]
     8ee:	4770      	bx	lr
     8f0:	40094000 	.word	0x40094000

000008f4 <pwmout_init>:
     8f4:	b5f8      	push	{r3, r4, r5, r6, r7, lr}
     8f6:	460d      	mov	r5, r1
     8f8:	4604      	mov	r4, r0
     8fa:	492f      	ldr	r1, [pc, #188]	; (9b8 <pwmout_init+0xc4>)
     8fc:	4628      	mov	r0, r5
     8fe:	f7ff fdb7 	bl	470 <pinmap_peripheral>
     902:	f644 6120 	movw	r1, #20000	; 0x4e20
     906:	4a2d      	ldr	r2, [pc, #180]	; (9bc <pwmout_init+0xc8>)
     908:	4f2d      	ldr	r7, [pc, #180]	; (9c0 <pwmout_init+0xcc>)
     90a:	f8d2 30c4 	ldr.w	r3, [r2, #196]	; 0xc4
     90e:	b2c6      	uxtb	r6, r0
     910:	f857 7026 	ldr.w	r7, [r7, r6, lsl #2]
     914:	f043 0340 	orr.w	r3, r3, #64	; 0x40
     918:	7120      	strb	r0, [r4, #4]
     91a:	6027      	str	r7, [r4, #0]
     91c:	f8c2 30c4 	str.w	r3, [r2, #196]	; 0xc4
     920:	f8d2 01a8 	ldr.w	r0, [r2, #424]	; 0x1a8
     924:	4b27      	ldr	r3, [pc, #156]	; (9c4 <pwmout_init+0xd0>)
     926:	f420 5040 	bic.w	r0, r0, #12288	; 0x3000
     92a:	f04f 0e00 	mov.w	lr, #0
     92e:	2402      	movs	r4, #2
     930:	f8c2 01a8 	str.w	r0, [r2, #424]	; 0x1a8
     934:	f8c3 e00c 	str.w	lr, [r3, #12]
     938:	615c      	str	r4, [r3, #20]
     93a:	6cd8      	ldr	r0, [r3, #76]	; 0x4c
     93c:	f106 0e08 	add.w	lr, r6, #8
     940:	2201      	movs	r2, #1
     942:	fa02 f20e 	lsl.w	r2, r2, lr
     946:	4302      	orrs	r2, r0
     948:	481f      	ldr	r0, [pc, #124]	; (9c8 <pwmout_init+0xd4>)
     94a:	64da      	str	r2, [r3, #76]	; 0x4c
     94c:	6802      	ldr	r2, [r0, #0]
     94e:	f8df e080 	ldr.w	lr, [pc, #128]	; 9d0 <pwmout_init+0xdc>
     952:	481e      	ldr	r0, [pc, #120]	; (9cc <pwmout_init+0xd8>)
     954:	fbae e202 	umull	lr, r2, lr, r2
     958:	0d12      	lsrs	r2, r2, #20
     95a:	fb01 f102 	mul.w	r1, r1, r2
     95e:	6002      	str	r2, [r0, #0]
     960:	605c      	str	r4, [r3, #4]
     962:	6199      	str	r1, [r3, #24]
     964:	699a      	ldr	r2, [r3, #24]
     966:	b132      	cbz	r2, 976 <pwmout_init+0x82>
     968:	683a      	ldr	r2, [r7, #0]
     96a:	699b      	ldr	r3, [r3, #24]
     96c:	fb02 f101 	mul.w	r1, r2, r1
     970:	fbb1 f1f3 	udiv	r1, r1, r3
     974:	6039      	str	r1, [r7, #0]
     976:	4c13      	ldr	r4, [pc, #76]	; (9c4 <pwmout_init+0xd0>)
     978:	2209      	movs	r2, #9
     97a:	6d23      	ldr	r3, [r4, #80]	; 0x50
     97c:	f043 0301 	orr.w	r3, r3, #1
     980:	6523      	str	r3, [r4, #80]	; 0x50
     982:	6062      	str	r2, [r4, #4]
     984:	69a0      	ldr	r0, [r4, #24]
     986:	f001 f82b 	bl	19e0 <__aeabi_ui2f>
     98a:	2100      	movs	r1, #0
     98c:	f001 f880 	bl	1a90 <__aeabi_fmul>
     990:	f001 fa6a 	bl	1e68 <__aeabi_f2uiz>
     994:	69a3      	ldr	r3, [r4, #24]
     996:	490b      	ldr	r1, [pc, #44]	; (9c4 <pwmout_init+0xd0>)
     998:	4298      	cmp	r0, r3
     99a:	bf08      	it	eq
     99c:	3001      	addeq	r0, #1
     99e:	6038      	str	r0, [r7, #0]
     9a0:	6d0b      	ldr	r3, [r1, #80]	; 0x50
     9a2:	2201      	movs	r2, #1
     9a4:	fa02 f606 	lsl.w	r6, r2, r6
     9a8:	431e      	orrs	r6, r3
     9aa:	650e      	str	r6, [r1, #80]	; 0x50
     9ac:	4628      	mov	r0, r5
     9ae:	e8bd 40f8 	ldmia.w	sp!, {r3, r4, r5, r6, r7, lr}
     9b2:	4901      	ldr	r1, [pc, #4]	; (9b8 <pwmout_init+0xc4>)
     9b4:	f7ff bd14 	b.w	3e0 <pinmap_pinout>
     9b8:	00004bbc 	.word	0x00004bbc
     9bc:	400fc000 	.word	0x400fc000
     9c0:	100000cc 	.word	0x100000cc
     9c4:	40018000 	.word	0x40018000
     9c8:	100000c8 	.word	0x100000c8
     9cc:	10004fec 	.word	0x10004fec
     9d0:	431bde83 	.word	0x431bde83

000009d4 <pwmout_write>:
     9d4:	b570      	push	{r4, r5, r6, lr}
     9d6:	460c      	mov	r4, r1
     9d8:	4605      	mov	r5, r0
     9da:	2100      	movs	r1, #0
     9dc:	4620      	mov	r0, r4
     9de:	f001 f9f5 	bl	1dcc <__aeabi_fcmplt>
     9e2:	b9f0      	cbnz	r0, a22 <pwmout_write+0x4e>
     9e4:	f04f 517e 	mov.w	r1, #1065353216	; 0x3f800000
     9e8:	4620      	mov	r0, r4
     9ea:	f001 fa0d 	bl	1e08 <__aeabi_fcmpgt>
     9ee:	b108      	cbz	r0, 9f4 <pwmout_write+0x20>
     9f0:	f04f 547e 	mov.w	r4, #1065353216	; 0x3f800000
     9f4:	4e0c      	ldr	r6, [pc, #48]	; (a28 <pwmout_write+0x54>)
     9f6:	69b0      	ldr	r0, [r6, #24]
     9f8:	f000 fff2 	bl	19e0 <__aeabi_ui2f>
     9fc:	4621      	mov	r1, r4
     9fe:	f001 f847 	bl	1a90 <__aeabi_fmul>
     a02:	f001 fa31 	bl	1e68 <__aeabi_f2uiz>
     a06:	69b3      	ldr	r3, [r6, #24]
     a08:	4907      	ldr	r1, [pc, #28]	; (a28 <pwmout_write+0x54>)
     a0a:	4298      	cmp	r0, r3
     a0c:	682b      	ldr	r3, [r5, #0]
     a0e:	bf08      	it	eq
     a10:	3001      	addeq	r0, #1
     a12:	6018      	str	r0, [r3, #0]
     a14:	7928      	ldrb	r0, [r5, #4]
     a16:	6d0a      	ldr	r2, [r1, #80]	; 0x50
     a18:	2301      	movs	r3, #1
     a1a:	4083      	lsls	r3, r0
     a1c:	4313      	orrs	r3, r2
     a1e:	650b      	str	r3, [r1, #80]	; 0x50
     a20:	bd70      	pop	{r4, r5, r6, pc}
     a22:	2400      	movs	r4, #0
     a24:	e7e6      	b.n	9f4 <pwmout_write+0x20>
     a26:	bf00      	nop
     a28:	40018000 	.word	0x40018000

00000a2c <pwmout_period>:
     a2c:	460b      	mov	r3, r1
     a2e:	b510      	push	{r4, lr}
     a30:	4910      	ldr	r1, [pc, #64]	; (a74 <pwmout_period+0x48>)
     a32:	4604      	mov	r4, r0
     a34:	4618      	mov	r0, r3
     a36:	f001 f82b 	bl	1a90 <__aeabi_fmul>
     a3a:	f001 f9ef 	bl	1e1c <__aeabi_f2iz>
     a3e:	4b0e      	ldr	r3, [pc, #56]	; (a78 <pwmout_period+0x4c>)
     a40:	4a0e      	ldr	r2, [pc, #56]	; (a7c <pwmout_period+0x50>)
     a42:	681b      	ldr	r3, [r3, #0]
     a44:	2102      	movs	r1, #2
     a46:	fb03 f000 	mul.w	r0, r3, r0
     a4a:	6051      	str	r1, [r2, #4]
     a4c:	6190      	str	r0, [r2, #24]
     a4e:	6993      	ldr	r3, [r2, #24]
     a50:	b13b      	cbz	r3, a62 <pwmout_period+0x36>
     a52:	6821      	ldr	r1, [r4, #0]
     a54:	680b      	ldr	r3, [r1, #0]
     a56:	6992      	ldr	r2, [r2, #24]
     a58:	fb03 f000 	mul.w	r0, r3, r0
     a5c:	fbb0 f0f2 	udiv	r0, r0, r2
     a60:	6008      	str	r0, [r1, #0]
     a62:	4b06      	ldr	r3, [pc, #24]	; (a7c <pwmout_period+0x50>)
     a64:	2109      	movs	r1, #9
     a66:	6d1a      	ldr	r2, [r3, #80]	; 0x50
     a68:	f042 0201 	orr.w	r2, r2, #1
     a6c:	651a      	str	r2, [r3, #80]	; 0x50
     a6e:	6059      	str	r1, [r3, #4]
     a70:	bd10      	pop	{r4, pc}
     a72:	bf00      	nop
     a74:	49742400 	.word	0x49742400
     a78:	10004fec 	.word	0x10004fec
     a7c:	40018000 	.word	0x40018000

00000a80 <pin_function>:
     a80:	f100 4060 	add.w	r0, r0, #3758096384	; 0xe0000000
     a84:	f5a0 201c 	sub.w	r0, r0, #638976	; 0x9c000
     a88:	0903      	lsrs	r3, r0, #4
     a8a:	009b      	lsls	r3, r3, #2
     a8c:	f103 4380 	add.w	r3, r3, #1073741824	; 0x40000000
     a90:	f503 3330 	add.w	r3, r3, #180224	; 0x2c000
     a94:	0040      	lsls	r0, r0, #1
     a96:	b410      	push	{r4}
     a98:	f000 001e 	and.w	r0, r0, #30
     a9c:	681c      	ldr	r4, [r3, #0]
     a9e:	2203      	movs	r2, #3
     aa0:	4082      	lsls	r2, r0
     aa2:	ea24 0202 	bic.w	r2, r4, r2
     aa6:	601a      	str	r2, [r3, #0]
     aa8:	681a      	ldr	r2, [r3, #0]
     aaa:	4081      	lsls	r1, r0
     aac:	ea41 0002 	orr.w	r0, r1, r2
     ab0:	6018      	str	r0, [r3, #0]
     ab2:	bc10      	pop	{r4}
     ab4:	4770      	bx	lr
     ab6:	bf00      	nop

00000ab8 <pin_mode>:
     ab8:	f100 4060 	add.w	r0, r0, #3758096384	; 0xe0000000
     abc:	f5a0 201c 	sub.w	r0, r0, #638976	; 0x9c000
     ac0:	0943      	lsrs	r3, r0, #5
     ac2:	009b      	lsls	r3, r3, #2
     ac4:	f103 4380 	add.w	r3, r3, #1073741824	; 0x40000000
     ac8:	f503 3330 	add.w	r3, r3, #180224	; 0x2c000
     acc:	b430      	push	{r4, r5}
     ace:	f000 021f 	and.w	r2, r0, #31
     ad2:	6e9c      	ldr	r4, [r3, #104]	; 0x68
     ad4:	f3c1 0580 	ubfx	r5, r1, #2, #1
     ad8:	fa05 f202 	lsl.w	r2, r5, r2
     adc:	ea24 0402 	bic.w	r4, r4, r2
     ae0:	669c      	str	r4, [r3, #104]	; 0x68
     ae2:	6e9c      	ldr	r4, [r3, #104]	; 0x68
     ae4:	4322      	orrs	r2, r4
     ae6:	669a      	str	r2, [r3, #104]	; 0x68
     ae8:	b99d      	cbnz	r5, b12 <pin_mode+0x5a>
     aea:	0903      	lsrs	r3, r0, #4
     aec:	009b      	lsls	r3, r3, #2
     aee:	f103 4380 	add.w	r3, r3, #1073741824	; 0x40000000
     af2:	f503 3330 	add.w	r3, r3, #180224	; 0x2c000
     af6:	0040      	lsls	r0, r0, #1
     af8:	6c1c      	ldr	r4, [r3, #64]	; 0x40
     afa:	f000 001e 	and.w	r0, r0, #30
     afe:	2203      	movs	r2, #3
     b00:	4082      	lsls	r2, r0
     b02:	ea24 0202 	bic.w	r2, r4, r2
     b06:	641a      	str	r2, [r3, #64]	; 0x40
     b08:	6c1a      	ldr	r2, [r3, #64]	; 0x40
     b0a:	fa01 f000 	lsl.w	r0, r1, r0
     b0e:	4310      	orrs	r0, r2
     b10:	6418      	str	r0, [r3, #64]	; 0x40
     b12:	bc30      	pop	{r4, r5}
     b14:	4770      	bx	lr
     b16:	bf00      	nop

00000b18 <uart2_irq>:
     b18:	4b15      	ldr	r3, [pc, #84]	; (b70 <uart2_irq+0x58>)
     b1a:	6899      	ldr	r1, [r3, #8]
     b1c:	f3c1 0142 	ubfx	r1, r1, #1, #3
     b20:	2901      	cmp	r1, #1
     b22:	d018      	beq.n	b56 <uart2_irq+0x3e>
     b24:	2902      	cmp	r1, #2
     b26:	d114      	bne.n	b52 <uart2_irq+0x3a>
     b28:	4a12      	ldr	r2, [pc, #72]	; (b74 <uart2_irq+0x5c>)
     b2a:	6f51      	ldr	r1, [r2, #116]	; 0x74
     b2c:	3101      	adds	r1, #1
     b2e:	d006      	beq.n	b3e <uart2_irq+0x26>
     b30:	f8d2 1080 	ldr.w	r1, [r2, #128]	; 0x80
     b34:	6f90      	ldr	r0, [r2, #120]	; 0x78
     b36:	6008      	str	r0, [r1, #0]
     b38:	f892 10a6 	ldrb.w	r1, [r2, #166]	; 0xa6
     b3c:	b189      	cbz	r1, b62 <uart2_irq+0x4a>
     b3e:	6f10      	ldr	r0, [r2, #112]	; 0x70
     b40:	4b0c      	ldr	r3, [pc, #48]	; (b74 <uart2_irq+0x5c>)
     b42:	b138      	cbz	r0, b54 <uart2_irq+0x3c>
     b44:	f893 30a6 	ldrb.w	r3, [r3, #166]	; 0xa6
     b48:	b123      	cbz	r3, b54 <uart2_irq+0x3c>
     b4a:	4b0b      	ldr	r3, [pc, #44]	; (b78 <uart2_irq+0x60>)
     b4c:	2100      	movs	r1, #0
     b4e:	681b      	ldr	r3, [r3, #0]
     b50:	4718      	bx	r3
     b52:	4770      	bx	lr
     b54:	4770      	bx	lr
     b56:	4b07      	ldr	r3, [pc, #28]	; (b74 <uart2_irq+0x5c>)
     b58:	6f18      	ldr	r0, [r3, #112]	; 0x70
     b5a:	b138      	cbz	r0, b6c <uart2_irq+0x54>
     b5c:	4b06      	ldr	r3, [pc, #24]	; (b78 <uart2_irq+0x60>)
     b5e:	681b      	ldr	r3, [r3, #0]
     b60:	4718      	bx	r3
     b62:	6859      	ldr	r1, [r3, #4]
     b64:	f021 0101 	bic.w	r1, r1, #1
     b68:	6059      	str	r1, [r3, #4]
     b6a:	e7e8      	b.n	b3e <uart2_irq+0x26>
     b6c:	4770      	bx	lr
     b6e:	bf00      	nop
     b70:	40098000 	.word	0x40098000
     b74:	10004ff8 	.word	0x10004ff8
     b78:	10004ff4 	.word	0x10004ff4

00000b7c <serial_irq_set_internal>:
     b7c:	b5f8      	push	{r3, r4, r5, r6, r7, lr}
     b7e:	4c29      	ldr	r4, [pc, #164]	; (c24 <Stack_Size+0x24>)
     b80:	6803      	ldr	r3, [r0, #0]
     b82:	42a3      	cmp	r3, r4
     b84:	d047      	beq.n	c16 <Stack_Size+0x16>
     b86:	dd3f      	ble.n	c08 <Stack_Size+0x8>
     b88:	4c27      	ldr	r4, [pc, #156]	; (c28 <Stack_Size+0x28>)
     b8a:	42a3      	cmp	r3, r4
     b8c:	d029      	beq.n	be2 <serial_irq_set_internal+0x66>
     b8e:	f504 4480 	add.w	r4, r4, #16384	; 0x4000
     b92:	42a3      	cmp	r3, r4
     b94:	d142      	bne.n	c1c <Stack_Size+0x1c>
     b96:	4d25      	ldr	r5, [pc, #148]	; (c2c <Stack_Size+0x2c>)
     b98:	2608      	movs	r6, #8
     b9a:	bb32      	cbnz	r2, bea <serial_irq_set_internal+0x6e>
     b9c:	2901      	cmp	r1, #1
     b9e:	d00b      	beq.n	bb8 <serial_irq_set_internal+0x3c>
     ba0:	6842      	ldr	r2, [r0, #4]
     ba2:	4c23      	ldr	r4, [pc, #140]	; (c30 <Stack_Size+0x30>)
     ba4:	ebc2 02c2 	rsb	r2, r2, r2, lsl #3
     ba8:	eb04 02c2 	add.w	r2, r4, r2, lsl #3
     bac:	f892 4036 	ldrb.w	r4, [r2, #54]	; 0x36
     bb0:	f892 2035 	ldrb.w	r2, [r2, #53]	; 0x35
     bb4:	42d4      	cmn	r4, r2
     bb6:	d113      	bne.n	be0 <serial_irq_set_internal+0x64>
     bb8:	fab1 f281 	clz	r2, r1
     bbc:	685d      	ldr	r5, [r3, #4]
     bbe:	2401      	movs	r4, #1
     bc0:	fa04 f101 	lsl.w	r1, r4, r1
     bc4:	ea25 0101 	bic.w	r1, r5, r1
     bc8:	6059      	str	r1, [r3, #4]
     bca:	6803      	ldr	r3, [r0, #0]
     bcc:	0952      	lsrs	r2, r2, #5
     bce:	685b      	ldr	r3, [r3, #4]
     bd0:	fa04 f202 	lsl.w	r2, r4, r2
     bd4:	421a      	tst	r2, r3
     bd6:	d103      	bne.n	be0 <serial_irq_set_internal+0x64>
     bd8:	4b16      	ldr	r3, [pc, #88]	; (c34 <Stack_Size+0x34>)
     bda:	40b4      	lsls	r4, r6
     bdc:	f8c3 4080 	str.w	r4, [r3, #128]	; 0x80
     be0:	bdf8      	pop	{r3, r4, r5, r6, r7, pc}
     be2:	4d15      	ldr	r5, [pc, #84]	; (c38 <Stack_Size+0x38>)
     be4:	2607      	movs	r6, #7
     be6:	2a00      	cmp	r2, #0
     be8:	d0d8      	beq.n	b9c <serial_irq_set_internal+0x20>
     bea:	6858      	ldr	r0, [r3, #4]
     bec:	2701      	movs	r7, #1
     bee:	fa07 f201 	lsl.w	r2, r7, r1
     bf2:	4302      	orrs	r2, r0
     bf4:	b274      	sxtb	r4, r6
     bf6:	605a      	str	r2, [r3, #4]
     bf8:	4629      	mov	r1, r5
     bfa:	4620      	mov	r0, r4
     bfc:	f7ff fc8c 	bl	518 <NVIC_SetVector>
     c00:	4b0c      	ldr	r3, [pc, #48]	; (c34 <Stack_Size+0x34>)
     c02:	40a7      	lsls	r7, r4
     c04:	601f      	str	r7, [r3, #0]
     c06:	bdf8      	pop	{r3, r4, r5, r6, r7, pc}
     c08:	f5a4 4480 	sub.w	r4, r4, #16384	; 0x4000
     c0c:	42a3      	cmp	r3, r4
     c0e:	d105      	bne.n	c1c <Stack_Size+0x1c>
     c10:	4d0a      	ldr	r5, [pc, #40]	; (c3c <Stack_Size+0x3c>)
     c12:	2605      	movs	r6, #5
     c14:	e7c1      	b.n	b9a <serial_irq_set_internal+0x1e>
     c16:	4d0a      	ldr	r5, [pc, #40]	; (c40 <Stack_Size+0x40>)
     c18:	2606      	movs	r6, #6
     c1a:	e7be      	b.n	b9a <serial_irq_set_internal+0x1e>
     c1c:	2500      	movs	r5, #0
     c1e:	462e      	mov	r6, r5
     c20:	e7bb      	b.n	b9a <serial_irq_set_internal+0x1e>
     c22:	bf00      	nop
     c24:	40010000 	.word	0x40010000
     c28:	40098000 	.word	0x40098000
     c2c:	00000c45 	.word	0x00000c45
     c30:	10004ff8 	.word	0x10004ff8
     c34:	e000e100 	.word	0xe000e100
     c38:	00000b19 	.word	0x00000b19
     c3c:	00000cb1 	.word	0x00000cb1
     c40:	00000d11 	.word	0x00000d11

00000c44 <uart3_irq>:
     c44:	4b17      	ldr	r3, [pc, #92]	; (ca4 <uart3_irq+0x60>)
     c46:	6899      	ldr	r1, [r3, #8]
     c48:	f3c1 0142 	ubfx	r1, r1, #1, #3
     c4c:	2901      	cmp	r1, #1
     c4e:	d01b      	beq.n	c88 <uart3_irq+0x44>
     c50:	2902      	cmp	r1, #2
     c52:	d117      	bne.n	c84 <uart3_irq+0x40>
     c54:	4a14      	ldr	r2, [pc, #80]	; (ca8 <uart3_irq+0x64>)
     c56:	f8d2 10ac 	ldr.w	r1, [r2, #172]	; 0xac
     c5a:	3101      	adds	r1, #1
     c5c:	d007      	beq.n	c6e <uart3_irq+0x2a>
     c5e:	f8d2 10b8 	ldr.w	r1, [r2, #184]	; 0xb8
     c62:	f8d2 00b0 	ldr.w	r0, [r2, #176]	; 0xb0
     c66:	6008      	str	r0, [r1, #0]
     c68:	f892 10de 	ldrb.w	r1, [r2, #222]	; 0xde
     c6c:	b199      	cbz	r1, c96 <uart3_irq+0x52>
     c6e:	f8d2 00a8 	ldr.w	r0, [r2, #168]	; 0xa8
     c72:	4b0d      	ldr	r3, [pc, #52]	; (ca8 <uart3_irq+0x64>)
     c74:	b138      	cbz	r0, c86 <uart3_irq+0x42>
     c76:	f893 30de 	ldrb.w	r3, [r3, #222]	; 0xde
     c7a:	b123      	cbz	r3, c86 <uart3_irq+0x42>
     c7c:	4b0b      	ldr	r3, [pc, #44]	; (cac <uart3_irq+0x68>)
     c7e:	2100      	movs	r1, #0
     c80:	681b      	ldr	r3, [r3, #0]
     c82:	4718      	bx	r3
     c84:	4770      	bx	lr
     c86:	4770      	bx	lr
     c88:	4b07      	ldr	r3, [pc, #28]	; (ca8 <uart3_irq+0x64>)
     c8a:	f8d3 00a8 	ldr.w	r0, [r3, #168]	; 0xa8
     c8e:	b138      	cbz	r0, ca0 <uart3_irq+0x5c>
     c90:	4b06      	ldr	r3, [pc, #24]	; (cac <uart3_irq+0x68>)
     c92:	681b      	ldr	r3, [r3, #0]
     c94:	4718      	bx	r3
     c96:	6859      	ldr	r1, [r3, #4]
     c98:	f021 0101 	bic.w	r1, r1, #1
     c9c:	6059      	str	r1, [r3, #4]
     c9e:	e7e6      	b.n	c6e <uart3_irq+0x2a>
     ca0:	4770      	bx	lr
     ca2:	bf00      	nop
     ca4:	4009c000 	.word	0x4009c000
     ca8:	10004ff8 	.word	0x10004ff8
     cac:	10004ff4 	.word	0x10004ff4

00000cb0 <uart0_irq>:
     cb0:	4b14      	ldr	r3, [pc, #80]	; (d04 <uart0_irq+0x54>)
     cb2:	6899      	ldr	r1, [r3, #8]
     cb4:	f3c1 0142 	ubfx	r1, r1, #1, #3
     cb8:	2901      	cmp	r1, #1
     cba:	d017      	beq.n	cec <uart0_irq+0x3c>
     cbc:	2902      	cmp	r1, #2
     cbe:	d113      	bne.n	ce8 <uart0_irq+0x38>
     cc0:	4a11      	ldr	r2, [pc, #68]	; (d08 <uart0_irq+0x58>)
     cc2:	6851      	ldr	r1, [r2, #4]
     cc4:	3101      	adds	r1, #1
     cc6:	d005      	beq.n	cd4 <uart0_irq+0x24>
     cc8:	6911      	ldr	r1, [r2, #16]
     cca:	6890      	ldr	r0, [r2, #8]
     ccc:	6008      	str	r0, [r1, #0]
     cce:	f892 1036 	ldrb.w	r1, [r2, #54]	; 0x36
     cd2:	b189      	cbz	r1, cf8 <uart0_irq+0x48>
     cd4:	6810      	ldr	r0, [r2, #0]
     cd6:	4b0c      	ldr	r3, [pc, #48]	; (d08 <uart0_irq+0x58>)
     cd8:	b138      	cbz	r0, cea <uart0_irq+0x3a>
     cda:	f893 3036 	ldrb.w	r3, [r3, #54]	; 0x36
     cde:	b123      	cbz	r3, cea <uart0_irq+0x3a>
     ce0:	4b0a      	ldr	r3, [pc, #40]	; (d0c <uart0_irq+0x5c>)
     ce2:	2100      	movs	r1, #0
     ce4:	681b      	ldr	r3, [r3, #0]
     ce6:	4718      	bx	r3
     ce8:	4770      	bx	lr
     cea:	4770      	bx	lr
     cec:	4b06      	ldr	r3, [pc, #24]	; (d08 <uart0_irq+0x58>)
     cee:	6818      	ldr	r0, [r3, #0]
     cf0:	b138      	cbz	r0, d02 <uart0_irq+0x52>
     cf2:	4b06      	ldr	r3, [pc, #24]	; (d0c <uart0_irq+0x5c>)
     cf4:	681b      	ldr	r3, [r3, #0]
     cf6:	4718      	bx	r3
     cf8:	6859      	ldr	r1, [r3, #4]
     cfa:	f021 0101 	bic.w	r1, r1, #1
     cfe:	6059      	str	r1, [r3, #4]
     d00:	e7e8      	b.n	cd4 <uart0_irq+0x24>
     d02:	4770      	bx	lr
     d04:	4000c000 	.word	0x4000c000
     d08:	10004ff8 	.word	0x10004ff8
     d0c:	10004ff4 	.word	0x10004ff4

00000d10 <uart1_irq>:
     d10:	4b14      	ldr	r3, [pc, #80]	; (d64 <uart1_irq+0x54>)
     d12:	6899      	ldr	r1, [r3, #8]
     d14:	f3c1 0142 	ubfx	r1, r1, #1, #3
     d18:	2901      	cmp	r1, #1
     d1a:	d017      	beq.n	d4c <uart1_irq+0x3c>
     d1c:	2902      	cmp	r1, #2
     d1e:	d113      	bne.n	d48 <uart1_irq+0x38>
     d20:	4a11      	ldr	r2, [pc, #68]	; (d68 <uart1_irq+0x58>)
     d22:	6bd1      	ldr	r1, [r2, #60]	; 0x3c
     d24:	3101      	adds	r1, #1
     d26:	d005      	beq.n	d34 <uart1_irq+0x24>
     d28:	6c91      	ldr	r1, [r2, #72]	; 0x48
     d2a:	6c10      	ldr	r0, [r2, #64]	; 0x40
     d2c:	6008      	str	r0, [r1, #0]
     d2e:	f892 106e 	ldrb.w	r1, [r2, #110]	; 0x6e
     d32:	b189      	cbz	r1, d58 <uart1_irq+0x48>
     d34:	6b90      	ldr	r0, [r2, #56]	; 0x38
     d36:	4b0c      	ldr	r3, [pc, #48]	; (d68 <uart1_irq+0x58>)
     d38:	b138      	cbz	r0, d4a <uart1_irq+0x3a>
     d3a:	f893 306e 	ldrb.w	r3, [r3, #110]	; 0x6e
     d3e:	b123      	cbz	r3, d4a <uart1_irq+0x3a>
     d40:	4b0a      	ldr	r3, [pc, #40]	; (d6c <uart1_irq+0x5c>)
     d42:	2100      	movs	r1, #0
     d44:	681b      	ldr	r3, [r3, #0]
     d46:	4718      	bx	r3
     d48:	4770      	bx	lr
     d4a:	4770      	bx	lr
     d4c:	4b06      	ldr	r3, [pc, #24]	; (d68 <uart1_irq+0x58>)
     d4e:	6b98      	ldr	r0, [r3, #56]	; 0x38
     d50:	b138      	cbz	r0, d62 <uart1_irq+0x52>
     d52:	4b06      	ldr	r3, [pc, #24]	; (d6c <uart1_irq+0x5c>)
     d54:	681b      	ldr	r3, [r3, #0]
     d56:	4718      	bx	r3
     d58:	6859      	ldr	r1, [r3, #4]
     d5a:	f021 0101 	bic.w	r1, r1, #1
     d5e:	6059      	str	r1, [r3, #4]
     d60:	e7e8      	b.n	d34 <uart1_irq+0x24>
     d62:	4770      	bx	lr
     d64:	40010000 	.word	0x40010000
     d68:	10004ff8 	.word	0x10004ff8
     d6c:	10004ff4 	.word	0x10004ff4

00000d70 <serial_baud>:
     d70:	e92d 4ff0 	stmdb	sp!, {r4, r5, r6, r7, r8, r9, r10, r11, lr}
     d74:	6802      	ldr	r2, [r0, #0]
     d76:	4b6e      	ldr	r3, [pc, #440]	; (f30 <serial_baud+0x1c0>)
     d78:	b089      	sub	sp, #36	; 0x24
     d7a:	429a      	cmp	r2, r3
     d7c:	9007      	str	r0, [sp, #28]
     d7e:	9206      	str	r2, [sp, #24]
     d80:	f000 80c8 	beq.w	f14 <serial_baud+0x1a4>
     d84:	f340 80b4 	ble.w	ef0 <serial_baud+0x180>
     d88:	4b6a      	ldr	r3, [pc, #424]	; (f34 <serial_baud+0x1c4>)
     d8a:	9806      	ldr	r0, [sp, #24]
     d8c:	4298      	cmp	r0, r3
     d8e:	d072      	beq.n	e76 <serial_baud+0x106>
     d90:	f503 4380 	add.w	r3, r3, #16384	; 0x4000
     d94:	4298      	cmp	r0, r3
     d96:	f040 809d 	bne.w	ed4 <serial_baud+0x164>
     d9a:	4b67      	ldr	r3, [pc, #412]	; (f38 <serial_baud+0x1c8>)
     d9c:	f8d3 21ac 	ldr.w	r2, [r3, #428]	; 0x1ac
     da0:	f422 2240 	bic.w	r2, r2, #786432	; 0xc0000
     da4:	f8c3 21ac 	str.w	r2, [r3, #428]	; 0x1ac
     da8:	f8d3 21ac 	ldr.w	r2, [r3, #428]	; 0x1ac
     dac:	f442 2280 	orr.w	r2, r2, #262144	; 0x40000
     db0:	f8c3 21ac 	str.w	r2, [r3, #428]	; 0x1ac
     db4:	4a61      	ldr	r2, [pc, #388]	; (f3c <serial_baud+0x1cc>)
     db6:	010b      	lsls	r3, r1, #4
     db8:	6812      	ldr	r2, [r2, #0]
     dba:	fbb2 f0f3 	udiv	r0, r2, r3
     dbe:	fb03 2310 	mls	r3, r3, r0, r2
     dc2:	9203      	str	r2, [sp, #12]
     dc4:	b280      	uxth	r0, r0
     dc6:	2b00      	cmp	r3, #0
     dc8:	f000 8090 	beq.w	eec <serial_baud+0x17c>
     dcc:	9b03      	ldr	r3, [sp, #12]
     dce:	f04f 0801 	mov.w	r8, #1
     dd2:	005a      	lsls	r2, r3, #1
     dd4:	009c      	lsls	r4, r3, #2
     dd6:	4694      	mov	r12, r2
     dd8:	46a2      	mov	r10, r4
     dda:	46c3      	mov	r11, r8
     ddc:	468e      	mov	lr, r1
     dde:	4699      	mov	r9, r3
     de0:	2300      	movs	r3, #0
     de2:	9205      	str	r2, [sp, #20]
     de4:	9404      	str	r4, [sp, #16]
     de6:	9000      	str	r0, [sp, #0]
     de8:	9102      	str	r1, [sp, #8]
     dea:	9301      	str	r3, [sp, #4]
     dec:	2400      	movs	r4, #0
     dee:	4625      	mov	r5, r4
     df0:	9e02      	ldr	r6, [sp, #8]
     df2:	fa5f f788 	uxtb.w	r7, r8
     df6:	f1bc 0f00 	cmp.w	r12, #0
     dfa:	bfb5      	itete	lt
     dfc:	fbbc f0f6 	udivlt	r0, r12, r6
     e00:	fbba f0f6 	udivge	r0, r10, r6
     e04:	0900      	lsrlt	r0, r0, #4
     e06:	0940      	lsrge	r0, r0, #5
     e08:	3001      	adds	r0, #1
     e0a:	f3c0 004f 	ubfx	r0, r0, #1, #16
     e0e:	eb08 0204 	add.w	r2, r8, r4
     e12:	2800      	cmp	r0, #0
     e14:	d03d      	beq.n	e92 <serial_baud+0x122>
     e16:	b10c      	cbz	r4, e1c <serial_baud+0xac>
     e18:	2801      	cmp	r0, #1
     e1a:	d03b      	beq.n	e94 <serial_baud+0x124>
     e1c:	4603      	mov	r3, r0
     e1e:	fb03 f302 	mul.w	r3, r3, r2
     e22:	00db      	lsls	r3, r3, #3
     e24:	fbb9 f3f3 	udiv	r3, r9, r3
     e28:	3301      	adds	r3, #1
     e2a:	ebc1 0353 	rsb	r3, r1, r3, lsr #1
     e2e:	2b00      	cmp	r3, #0
     e30:	bfb8      	it	lt
     e32:	425b      	neglt	r3, r3
     e34:	4573      	cmp	r3, lr
     e36:	da05      	bge.n	e44 <serial_baud+0xd4>
     e38:	4299      	cmp	r1, r3
     e3a:	d030      	beq.n	e9e <serial_baud+0x12e>
     e3c:	469e      	mov	lr, r3
     e3e:	46bb      	mov	r11, r7
     e40:	e88d 0021 	stmia.w	sp, {r0, r5}
     e44:	3401      	adds	r4, #1
     e46:	b2e5      	uxtb	r5, r4
     e48:	42af      	cmp	r7, r5
     e4a:	440e      	add	r6, r1
     e4c:	d8d3      	bhi.n	df6 <serial_baud+0x86>
     e4e:	9b03      	ldr	r3, [sp, #12]
     e50:	f108 0801 	add.w	r8, r8, #1
     e54:	4499      	add	r9, r3
     e56:	9b05      	ldr	r3, [sp, #20]
     e58:	f1b8 0f10 	cmp.w	r8, #16
     e5c:	449c      	add	r12, r3
     e5e:	9b04      	ldr	r3, [sp, #16]
     e60:	449a      	add	r10, r3
     e62:	9b02      	ldr	r3, [sp, #8]
     e64:	440b      	add	r3, r1
     e66:	9302      	str	r3, [sp, #8]
     e68:	d1c0      	bne.n	dec <serial_baud+0x7c>
     e6a:	9b01      	ldr	r3, [sp, #4]
     e6c:	9800      	ldr	r0, [sp, #0]
     e6e:	ea43 150b 	orr.w	r5, r3, r11, lsl #4
     e72:	b2ed      	uxtb	r5, r5
     e74:	e016      	b.n	ea4 <serial_baud+0x134>
     e76:	4b30      	ldr	r3, [pc, #192]	; (f38 <serial_baud+0x1c8>)
     e78:	f8d3 21ac 	ldr.w	r2, [r3, #428]	; 0x1ac
     e7c:	f422 3240 	bic.w	r2, r2, #196608	; 0x30000
     e80:	f8c3 21ac 	str.w	r2, [r3, #428]	; 0x1ac
     e84:	f8d3 21ac 	ldr.w	r2, [r3, #428]	; 0x1ac
     e88:	f442 3280 	orr.w	r2, r2, #65536	; 0x10000
     e8c:	f8c3 21ac 	str.w	r2, [r3, #428]	; 0x1ac
     e90:	e790      	b.n	db4 <serial_baud+0x44>
     e92:	b114      	cbz	r4, e9a <serial_baud+0x12a>
     e94:	2002      	movs	r0, #2
     e96:	4603      	mov	r3, r0
     e98:	e7c1      	b.n	e1e <serial_baud+0xae>
     e9a:	2001      	movs	r0, #1
     e9c:	e7be      	b.n	e1c <serial_baud+0xac>
     e9e:	ea45 1507 	orr.w	r5, r5, r7, lsl #4
     ea2:	b2ed      	uxtb	r5, r5
     ea4:	9906      	ldr	r1, [sp, #24]
     ea6:	f3c0 2207 	ubfx	r2, r0, #8, #8
     eaa:	7b0b      	ldrb	r3, [r1, #12]
     eac:	b2c0      	uxtb	r0, r0
     eae:	f043 0380 	orr.w	r3, r3, #128	; 0x80
     eb2:	730b      	strb	r3, [r1, #12]
     eb4:	9907      	ldr	r1, [sp, #28]
     eb6:	680b      	ldr	r3, [r1, #0]
     eb8:	711a      	strb	r2, [r3, #4]
     eba:	680b      	ldr	r3, [r1, #0]
     ebc:	7018      	strb	r0, [r3, #0]
     ebe:	680b      	ldr	r3, [r1, #0]
     ec0:	f883 5028 	strb.w	r5, [r3, #40]	; 0x28
     ec4:	680a      	ldr	r2, [r1, #0]
     ec6:	7b13      	ldrb	r3, [r2, #12]
     ec8:	f003 037f 	and.w	r3, r3, #127	; 0x7f
     ecc:	7313      	strb	r3, [r2, #12]
     ece:	b009      	add	sp, #36	; 0x24
     ed0:	e8bd 8ff0 	ldmia.w	sp!, {r4, r5, r6, r7, r8, r9, r10, r11, pc}
     ed4:	4a19      	ldr	r2, [pc, #100]	; (f3c <serial_baud+0x1cc>)
     ed6:	010b      	lsls	r3, r1, #4
     ed8:	6812      	ldr	r2, [r2, #0]
     eda:	fbb2 f0f3 	udiv	r0, r2, r3
     ede:	fb03 2310 	mls	r3, r3, r0, r2
     ee2:	9203      	str	r2, [sp, #12]
     ee4:	b280      	uxth	r0, r0
     ee6:	2b00      	cmp	r3, #0
     ee8:	f47f af70 	bne.w	dcc <serial_baud+0x5c>
     eec:	2510      	movs	r5, #16
     eee:	e7d9      	b.n	ea4 <serial_baud+0x134>
     ef0:	f5a3 4380 	sub.w	r3, r3, #16384	; 0x4000
     ef4:	429a      	cmp	r2, r3
     ef6:	d1ed      	bne.n	ed4 <serial_baud+0x164>
     ef8:	4b0f      	ldr	r3, [pc, #60]	; (f38 <serial_baud+0x1c8>)
     efa:	f8d3 21a8 	ldr.w	r2, [r3, #424]	; 0x1a8
     efe:	f022 02c0 	bic.w	r2, r2, #192	; 0xc0
     f02:	f8c3 21a8 	str.w	r2, [r3, #424]	; 0x1a8
     f06:	f8d3 21a8 	ldr.w	r2, [r3, #424]	; 0x1a8
     f0a:	f042 0240 	orr.w	r2, r2, #64	; 0x40
     f0e:	f8c3 21a8 	str.w	r2, [r3, #424]	; 0x1a8
     f12:	e74f      	b.n	db4 <serial_baud+0x44>
     f14:	4b08      	ldr	r3, [pc, #32]	; (f38 <serial_baud+0x1c8>)
     f16:	f8d3 21a8 	ldr.w	r2, [r3, #424]	; 0x1a8
     f1a:	f422 7240 	bic.w	r2, r2, #768	; 0x300
     f1e:	f8c3 21a8 	str.w	r2, [r3, #424]	; 0x1a8
     f22:	f8d3 21a8 	ldr.w	r2, [r3, #424]	; 0x1a8
     f26:	f442 7280 	orr.w	r2, r2, #256	; 0x100
     f2a:	f8c3 21a8 	str.w	r2, [r3, #424]	; 0x1a8
     f2e:	e741      	b.n	db4 <serial_baud+0x44>
     f30:	40010000 	.word	0x40010000
     f34:	40098000 	.word	0x40098000
     f38:	400fc000 	.word	0x400fc000
     f3c:	100000c8 	.word	0x100000c8

00000f40 <serial_getc>:
     f40:	6802      	ldr	r2, [r0, #0]
     f42:	7d13      	ldrb	r3, [r2, #20]
     f44:	07db      	lsls	r3, r3, #31
     f46:	d5fc      	bpl.n	f42 <serial_getc+0x2>
     f48:	6843      	ldr	r3, [r0, #4]
     f4a:	4909      	ldr	r1, [pc, #36]	; (f70 <serial_getc+0x30>)
     f4c:	ebc3 03c3 	rsb	r3, r3, r3, lsl #3
     f50:	eb01 03c3 	add.w	r3, r1, r3, lsl #3
     f54:	6859      	ldr	r1, [r3, #4]
     f56:	7810      	ldrb	r0, [r2, #0]
     f58:	3101      	adds	r1, #1
     f5a:	b2c0      	uxtb	r0, r0
     f5c:	d006      	beq.n	f6c <serial_getc+0x2c>
     f5e:	6959      	ldr	r1, [r3, #20]
     f60:	689b      	ldr	r3, [r3, #8]
     f62:	600b      	str	r3, [r1, #0]
     f64:	6853      	ldr	r3, [r2, #4]
     f66:	f043 0301 	orr.w	r3, r3, #1
     f6a:	6053      	str	r3, [r2, #4]
     f6c:	4770      	bx	lr
     f6e:	bf00      	nop
     f70:	10004ff8 	.word	0x10004ff8

00000f74 <serial_writable>:
     f74:	6843      	ldr	r3, [r0, #4]
     f76:	4a15      	ldr	r2, [pc, #84]	; (fcc <serial_writable+0x58>)
     f78:	ebc3 03c3 	rsb	r3, r3, r3, lsl #3
     f7c:	00db      	lsls	r3, r3, #3
     f7e:	18d1      	adds	r1, r2, r3
     f80:	b410      	push	{r4}
     f82:	69cc      	ldr	r4, [r1, #28]
     f84:	3401      	adds	r4, #1
     f86:	d00f      	beq.n	fa8 <serial_writable+0x34>
     f88:	460b      	mov	r3, r1
     f8a:	6b0a      	ldr	r2, [r1, #48]	; 0x30
     f8c:	331c      	adds	r3, #28
     f8e:	685b      	ldr	r3, [r3, #4]
     f90:	6812      	ldr	r2, [r2, #0]
     f92:	421a      	tst	r2, r3
     f94:	d105      	bne.n	fa2 <serial_writable+0x2e>
     f96:	6803      	ldr	r3, [r0, #0]
     f98:	bc10      	pop	{r4}
     f9a:	7d18      	ldrb	r0, [r3, #20]
     f9c:	f3c0 1080 	ubfx	r0, r0, #6, #1
     fa0:	4770      	bx	lr
     fa2:	2000      	movs	r0, #0
     fa4:	bc10      	pop	{r4}
     fa6:	4770      	bx	lr
     fa8:	6803      	ldr	r3, [r0, #0]
     faa:	7d1b      	ldrb	r3, [r3, #20]
     fac:	069b      	lsls	r3, r3, #26
     fae:	d407      	bmi.n	fc0 <serial_writable+0x4c>
     fb0:	f891 0034 	ldrb.w	r0, [r1, #52]	; 0x34
     fb4:	bc10      	pop	{r4}
     fb6:	280f      	cmp	r0, #15
     fb8:	bf8c      	ite	hi
     fba:	2000      	movhi	r0, #0
     fbc:	2001      	movls	r0, #1
     fbe:	4770      	bx	lr
     fc0:	2300      	movs	r3, #0
     fc2:	f881 3034 	strb.w	r3, [r1, #52]	; 0x34
     fc6:	2001      	movs	r0, #1
     fc8:	bc10      	pop	{r4}
     fca:	4770      	bx	lr
     fcc:	10004ff8 	.word	0x10004ff8

00000fd0 <serial_putc>:
     fd0:	b538      	push	{r3, r4, r5, lr}
     fd2:	4604      	mov	r4, r0
     fd4:	460d      	mov	r5, r1
     fd6:	4620      	mov	r0, r4
     fd8:	f7ff ffcc 	bl	f74 <serial_writable>
     fdc:	2800      	cmp	r0, #0
     fde:	d0fa      	beq.n	fd6 <serial_putc+0x6>
     fe0:	6823      	ldr	r3, [r4, #0]
     fe2:	b2ed      	uxtb	r5, r5
     fe4:	701d      	strb	r5, [r3, #0]
     fe6:	6863      	ldr	r3, [r4, #4]
     fe8:	4a05      	ldr	r2, [pc, #20]	; (1000 <serial_putc+0x30>)
     fea:	ebc3 03c3 	rsb	r3, r3, r3, lsl #3
     fee:	eb02 03c3 	add.w	r3, r2, r3, lsl #3
     ff2:	f893 2034 	ldrb.w	r2, [r3, #52]	; 0x34
     ff6:	3201      	adds	r2, #1
     ff8:	f883 2034 	strb.w	r2, [r3, #52]	; 0x34
     ffc:	bd38      	pop	{r3, r4, r5, pc}
     ffe:	bf00      	nop
    1000:	10004ff8 	.word	0x10004ff8

00001004 <serial_set_flow_control>:
    1004:	e92d 4ff0 	stmdb	sp!, {r4, r5, r6, r7, r8, r9, r10, r11, lr}
    1008:	4605      	mov	r5, r0
    100a:	4844      	ldr	r0, [pc, #272]	; (111c <serial_set_flow_control+0x118>)
    100c:	682c      	ldr	r4, [r5, #0]
    100e:	b083      	sub	sp, #12
    1010:	4284      	cmp	r4, r0
    1012:	460f      	mov	r7, r1
    1014:	4691      	mov	r9, r2
    1016:	469a      	mov	r10, r3
    1018:	d01d      	beq.n	1056 <serial_set_flow_control+0x52>
    101a:	686e      	ldr	r6, [r5, #4]
    101c:	2400      	movs	r4, #0
    101e:	4632      	mov	r2, r6
    1020:	f8df b104 	ldr.w	r11, [pc, #260]	; 1128 <serial_set_flow_control+0x124>
    1024:	ea4f 08c6 	mov.w	r8, r6, lsl #3
    1028:	ebc2 01c2 	rsb	r1, r2, r2, lsl #3
    102c:	ebc6 0008 	rsb	r0, r6, r8
    1030:	eb0b 00c0 	add.w	r0, r11, r0, lsl #3
    1034:	2200      	movs	r2, #0
    1036:	eb0b 01c1 	add.w	r1, r11, r1, lsl #3
    103a:	f04f 33ff 	mov.w	r3, #4294967295
    103e:	f881 2035 	strb.w	r2, [r1, #53]	; 0x35
    1042:	61c3      	str	r3, [r0, #28]
    1044:	6043      	str	r3, [r0, #4]
    1046:	4611      	mov	r1, r2
    1048:	4628      	mov	r0, r5
    104a:	f7ff fd97 	bl	b7c <serial_irq_set_internal>
    104e:	b94f      	cbnz	r7, 1064 <serial_set_flow_control+0x60>
    1050:	b003      	add	sp, #12
    1052:	e8bd 8ff0 	ldmia.w	sp!, {r4, r5, r6, r7, r8, r9, r10, r11, pc}
    1056:	7c23      	ldrb	r3, [r4, #16]
    1058:	686e      	ldr	r6, [r5, #4]
    105a:	f003 033f 	and.w	r3, r3, #63	; 0x3f
    105e:	7423      	strb	r3, [r4, #16]
    1060:	686a      	ldr	r2, [r5, #4]
    1062:	e7dd      	b.n	1020 <serial_set_flow_control+0x1c>
    1064:	492e      	ldr	r1, [pc, #184]	; (1120 <serial_set_flow_control+0x11c>)
    1066:	4648      	mov	r0, r9
    1068:	f7ff f9f2 	bl	450 <pinmap_find_peripheral>
    106c:	492d      	ldr	r1, [pc, #180]	; (1124 <serial_set_flow_control+0x120>)
    106e:	9001      	str	r0, [sp, #4]
    1070:	4650      	mov	r0, r10
    1072:	f7ff f9ed 	bl	450 <pinmap_find_peripheral>
    1076:	1eba      	subs	r2, r7, #2
    1078:	2a01      	cmp	r2, #1
    107a:	d930      	bls.n	10de <serial_set_flow_control+0xda>
    107c:	2f01      	cmp	r7, #1
    107e:	d1e7      	bne.n	1050 <serial_set_flow_control+0x4c>
    1080:	f1b9 3fff 	cmp.w	r9, #4294967295
    1084:	d0e4      	beq.n	1050 <serial_set_flow_control+0x4c>
    1086:	4a25      	ldr	r2, [pc, #148]	; (111c <serial_set_flow_control+0x118>)
    1088:	9b01      	ldr	r3, [sp, #4]
    108a:	6829      	ldr	r1, [r5, #0]
    108c:	2007      	movs	r0, #7
    108e:	4293      	cmp	r3, r2
    1090:	7208      	strb	r0, [r1, #8]
    1092:	d10b      	bne.n	10ac <serial_set_flow_control+0xa8>
    1094:	b154      	cbz	r4, 10ac <serial_set_flow_control+0xa8>
    1096:	4648      	mov	r0, r9
    1098:	7c23      	ldrb	r3, [r4, #16]
    109a:	4921      	ldr	r1, [pc, #132]	; (1120 <serial_set_flow_control+0x11c>)
    109c:	f043 0340 	orr.w	r3, r3, #64	; 0x40
    10a0:	7423      	strb	r3, [r4, #16]
    10a2:	b003      	add	sp, #12
    10a4:	e8bd 4ff0 	ldmia.w	sp!, {r4, r5, r6, r7, r8, r9, r10, r11, lr}
    10a8:	f7ff b99a 	b.w	3e0 <pinmap_pinout>
    10ac:	ebc6 0608 	rsb	r6, r6, r8
    10b0:	eb0b 00c6 	add.w	r0, r11, r6, lsl #3
    10b4:	4649      	mov	r1, r9
    10b6:	3004      	adds	r0, #4
    10b8:	2200      	movs	r2, #0
    10ba:	f7ff f975 	bl	3a8 <gpio_init_out_ex>
    10be:	686a      	ldr	r2, [r5, #4]
    10c0:	2401      	movs	r4, #1
    10c2:	ebc2 02c2 	rsb	r2, r2, r2, lsl #3
    10c6:	eb0b 03c2 	add.w	r3, r11, r2, lsl #3
    10ca:	4628      	mov	r0, r5
    10cc:	4622      	mov	r2, r4
    10ce:	2100      	movs	r1, #0
    10d0:	f883 4035 	strb.w	r4, [r3, #53]	; 0x35
    10d4:	b003      	add	sp, #12
    10d6:	e8bd 4ff0 	ldmia.w	sp!, {r4, r5, r6, r7, r8, r9, r10, r11, lr}
    10da:	f7ff bd4f 	b.w	b7c <serial_irq_set_internal>
    10de:	f1ba 3fff 	cmp.w	r10, #4294967295
    10e2:	d00a      	beq.n	10fa <serial_set_flow_control+0xf6>
    10e4:	4a0d      	ldr	r2, [pc, #52]	; (111c <serial_set_flow_control+0x118>)
    10e6:	4290      	cmp	r0, r2
    10e8:	d00d      	beq.n	1106 <serial_set_flow_control+0x102>
    10ea:	ebc6 0008 	rsb	r0, r6, r8
    10ee:	eb0b 00c0 	add.w	r0, r11, r0, lsl #3
    10f2:	4651      	mov	r1, r10
    10f4:	301c      	adds	r0, #28
    10f6:	f7ff f92f 	bl	358 <gpio_init_in>
    10fa:	2f03      	cmp	r7, #3
    10fc:	d1a8      	bne.n	1050 <serial_set_flow_control+0x4c>
    10fe:	f1b9 3fff 	cmp.w	r9, #4294967295
    1102:	d1c0      	bne.n	1086 <serial_set_flow_control+0x82>
    1104:	e7a4      	b.n	1050 <serial_set_flow_control+0x4c>
    1106:	2c00      	cmp	r4, #0
    1108:	d0ef      	beq.n	10ea <serial_set_flow_control+0xe6>
    110a:	7c22      	ldrb	r2, [r4, #16]
    110c:	4650      	mov	r0, r10
    110e:	f042 0280 	orr.w	r2, r2, #128	; 0x80
    1112:	7422      	strb	r2, [r4, #16]
    1114:	4903      	ldr	r1, [pc, #12]	; (1124 <serial_set_flow_control+0x120>)
    1116:	f7ff f963 	bl	3e0 <pinmap_pinout>
    111a:	e7ee      	b.n	10fa <serial_set_flow_control+0xf6>
    111c:	40010000 	.word	0x40010000
    1120:	00004c70 	.word	0x00004c70
    1124:	00004d6c 	.word	0x00004d6c
    1128:	10004ff8 	.word	0x10004ff8

0000112c <serial_init>:
    112c:	e92d 41f0 	stmdb	sp!, {r4, r5, r6, r7, r8, lr}
    1130:	460f      	mov	r7, r1
    1132:	4605      	mov	r5, r0
    1134:	4959      	ldr	r1, [pc, #356]	; (129c <serial_init+0x170>)
    1136:	4638      	mov	r0, r7
    1138:	4616      	mov	r6, r2
    113a:	f7ff f999 	bl	470 <pinmap_peripheral>
    113e:	4958      	ldr	r1, [pc, #352]	; (12a0 <serial_init+0x174>)
    1140:	4604      	mov	r4, r0
    1142:	4630      	mov	r0, r6
    1144:	f7ff f994 	bl	470 <pinmap_peripheral>
    1148:	4601      	mov	r1, r0
    114a:	4620      	mov	r0, r4
    114c:	f7ff f96e 	bl	42c <pinmap_merge>
    1150:	4b54      	ldr	r3, [pc, #336]	; (12a4 <serial_init+0x178>)
    1152:	4604      	mov	r4, r0
    1154:	4298      	cmp	r0, r3
    1156:	6028      	str	r0, [r5, #0]
    1158:	d07f      	beq.n	125a <serial_init+0x12e>
    115a:	d96f      	bls.n	123c <serial_init+0x110>
    115c:	4b52      	ldr	r3, [pc, #328]	; (12a8 <serial_init+0x17c>)
    115e:	4298      	cmp	r0, r3
    1160:	d04b      	beq.n	11fa <serial_init+0xce>
    1162:	f503 4380 	add.w	r3, r3, #16384	; 0x4000
    1166:	4298      	cmp	r0, r3
    1168:	d106      	bne.n	1178 <serial_init+0x4c>
    116a:	4a50      	ldr	r2, [pc, #320]	; (12ac <serial_init+0x180>)
    116c:	f8d2 30c4 	ldr.w	r3, [r2, #196]	; 0xc4
    1170:	f043 7300 	orr.w	r3, r3, #33554432	; 0x2000000
    1174:	f8c2 30c4 	str.w	r3, [r2, #196]	; 0xc4
    1178:	2301      	movs	r3, #1
    117a:	7223      	strb	r3, [r4, #8]
    117c:	682b      	ldr	r3, [r5, #0]
    117e:	f04f 0800 	mov.w	r8, #0
    1182:	f8c3 8004 	str.w	r8, [r3, #4]
    1186:	f44f 5116 	mov.w	r1, #9600	; 0x2580
    118a:	4628      	mov	r0, r5
    118c:	f7ff fdf0 	bl	d70 <serial_baud>
    1190:	682b      	ldr	r3, [r5, #0]
    1192:	2203      	movs	r2, #3
    1194:	731a      	strb	r2, [r3, #12]
    1196:	4941      	ldr	r1, [pc, #260]	; (129c <serial_init+0x170>)
    1198:	4638      	mov	r0, r7
    119a:	f7ff f921 	bl	3e0 <pinmap_pinout>
    119e:	4940      	ldr	r1, [pc, #256]	; (12a0 <serial_init+0x174>)
    11a0:	4630      	mov	r0, r6
    11a2:	f7ff f91d 	bl	3e0 <pinmap_pinout>
    11a6:	1c7a      	adds	r2, r7, #1
    11a8:	d003      	beq.n	11b2 <serial_init+0x86>
    11aa:	4641      	mov	r1, r8
    11ac:	4638      	mov	r0, r7
    11ae:	f7ff fc83 	bl	ab8 <pin_mode>
    11b2:	1c73      	adds	r3, r6, #1
    11b4:	d003      	beq.n	11be <serial_init+0x92>
    11b6:	4630      	mov	r0, r6
    11b8:	2100      	movs	r1, #0
    11ba:	f7ff fc7d 	bl	ab8 <pin_mode>
    11be:	4b39      	ldr	r3, [pc, #228]	; (12a4 <serial_init+0x178>)
    11c0:	429c      	cmp	r4, r3
    11c2:	d047      	beq.n	1254 <serial_init+0x128>
    11c4:	d921      	bls.n	120a <serial_init+0xde>
    11c6:	4b38      	ldr	r3, [pc, #224]	; (12a8 <serial_init+0x17c>)
    11c8:	429c      	cmp	r4, r3
    11ca:	d063      	beq.n	1294 <serial_init+0x168>
    11cc:	f503 4380 	add.w	r3, r3, #16384	; 0x4000
    11d0:	429c      	cmp	r4, r3
    11d2:	d14a      	bne.n	126a <serial_init+0x13e>
    11d4:	2303      	movs	r3, #3
    11d6:	606b      	str	r3, [r5, #4]
    11d8:	4c35      	ldr	r4, [pc, #212]	; (12b0 <serial_init+0x184>)
    11da:	ebc3 03c3 	rsb	r3, r3, r3, lsl #3
    11de:	f04f 36ff 	mov.w	r6, #4294967295
    11e2:	eb04 04c3 	add.w	r4, r4, r3, lsl #3
    11e6:	4628      	mov	r0, r5
    11e8:	4633      	mov	r3, r6
    11ea:	4632      	mov	r2, r6
    11ec:	6066      	str	r6, [r4, #4]
    11ee:	61e6      	str	r6, [r4, #28]
    11f0:	2100      	movs	r1, #0
    11f2:	e8bd 41f0 	ldmia.w	sp!, {r4, r5, r6, r7, r8, lr}
    11f6:	f7ff bf05 	b.w	1004 <serial_set_flow_control>
    11fa:	4a2c      	ldr	r2, [pc, #176]	; (12ac <serial_init+0x180>)
    11fc:	f8d2 30c4 	ldr.w	r3, [r2, #196]	; 0xc4
    1200:	f043 7380 	orr.w	r3, r3, #16777216	; 0x1000000
    1204:	f8c2 30c4 	str.w	r3, [r2, #196]	; 0xc4
    1208:	e7b6      	b.n	1178 <serial_init+0x4c>
    120a:	f5a3 4380 	sub.w	r3, r3, #16384	; 0x4000
    120e:	429c      	cmp	r4, r3
    1210:	d12b      	bne.n	126a <serial_init+0x13e>
    1212:	4e27      	ldr	r6, [pc, #156]	; (12b0 <serial_init+0x184>)
    1214:	f04f 34ff 	mov.w	r4, #4294967295
    1218:	2100      	movs	r1, #0
    121a:	6069      	str	r1, [r5, #4]
    121c:	4623      	mov	r3, r4
    121e:	4622      	mov	r2, r4
    1220:	4628      	mov	r0, r5
    1222:	6074      	str	r4, [r6, #4]
    1224:	61f4      	str	r4, [r6, #28]
    1226:	f7ff feed 	bl	1004 <serial_set_flow_control>
    122a:	4b22      	ldr	r3, [pc, #136]	; (12b4 <serial_init+0x188>)
    122c:	2201      	movs	r2, #1
    122e:	601a      	str	r2, [r3, #0]
    1230:	6828      	ldr	r0, [r5, #0]
    1232:	6869      	ldr	r1, [r5, #4]
    1234:	4b20      	ldr	r3, [pc, #128]	; (12b8 <serial_init+0x18c>)
    1236:	c303      	stmia	r3!, {r0, r1}
    1238:	e8bd 81f0 	ldmia.w	sp!, {r4, r5, r6, r7, r8, pc}
    123c:	f5a3 4380 	sub.w	r3, r3, #16384	; 0x4000
    1240:	4298      	cmp	r0, r3
    1242:	d199      	bne.n	1178 <serial_init+0x4c>
    1244:	4a19      	ldr	r2, [pc, #100]	; (12ac <serial_init+0x180>)
    1246:	f8d2 30c4 	ldr.w	r3, [r2, #196]	; 0xc4
    124a:	f043 0308 	orr.w	r3, r3, #8
    124e:	f8c2 30c4 	str.w	r3, [r2, #196]	; 0xc4
    1252:	e791      	b.n	1178 <serial_init+0x4c>
    1254:	2301      	movs	r3, #1
    1256:	606b      	str	r3, [r5, #4]
    1258:	e7be      	b.n	11d8 <serial_init+0xac>
    125a:	4a14      	ldr	r2, [pc, #80]	; (12ac <serial_init+0x180>)
    125c:	f8d2 30c4 	ldr.w	r3, [r2, #196]	; 0xc4
    1260:	f043 0310 	orr.w	r3, r3, #16
    1264:	f8c2 30c4 	str.w	r3, [r2, #196]	; 0xc4
    1268:	e786      	b.n	1178 <serial_init+0x4c>
    126a:	686e      	ldr	r6, [r5, #4]
    126c:	4b10      	ldr	r3, [pc, #64]	; (12b0 <serial_init+0x184>)
    126e:	ebc6 06c6 	rsb	r6, r6, r6, lsl #3
    1272:	f04f 37ff 	mov.w	r7, #4294967295
    1276:	eb03 06c6 	add.w	r6, r3, r6, lsl #3
    127a:	463a      	mov	r2, r7
    127c:	463b      	mov	r3, r7
    127e:	2100      	movs	r1, #0
    1280:	4628      	mov	r0, r5
    1282:	6077      	str	r7, [r6, #4]
    1284:	61f7      	str	r7, [r6, #28]
    1286:	f7ff febd 	bl	1004 <serial_set_flow_control>
    128a:	4b0c      	ldr	r3, [pc, #48]	; (12bc <serial_init+0x190>)
    128c:	429c      	cmp	r4, r3
    128e:	d0cc      	beq.n	122a <serial_init+0xfe>
    1290:	e8bd 81f0 	ldmia.w	sp!, {r4, r5, r6, r7, r8, pc}
    1294:	2302      	movs	r3, #2
    1296:	606b      	str	r3, [r5, #4]
    1298:	e79e      	b.n	11d8 <serial_init+0xac>
    129a:	bf00      	nop
    129c:	00004d00 	.word	0x00004d00
    12a0:	00004c94 	.word	0x00004c94
    12a4:	40010000 	.word	0x40010000
    12a8:	40098000 	.word	0x40098000
    12ac:	400fc000 	.word	0x400fc000
    12b0:	10004ff8 	.word	0x10004ff8
    12b4:	10004ff0 	.word	0x10004ff0
    12b8:	100051e0 	.word	0x100051e0
    12bc:	4000c000 	.word	0x4000c000

000012c0 <init_serial() [clone .part.0]>:
    12c0:	4a02      	ldr	r2, [pc, #8]	; (12cc <init_serial() [clone .part.0]+0xc>)
    12c2:	4903      	ldr	r1, [pc, #12]	; (12d0 <init_serial() [clone .part.0]+0x10>)
    12c4:	4803      	ldr	r0, [pc, #12]	; (12d4 <init_serial() [clone .part.0]+0x14>)
    12c6:	f7ff bf31 	b.w	112c <serial_init>
    12ca:	bf00      	nop
    12cc:	2009c003 	.word	0x2009c003
    12d0:	2009c002 	.word	0x2009c002
    12d4:	100051e0 	.word	0x100051e0

000012d8 <_close>:
    12d8:	2802      	cmp	r0, #2
    12da:	dd0a      	ble.n	12f2 <_close+0x1a>
    12dc:	4a07      	ldr	r2, [pc, #28]	; (12fc <_close+0x24>)
    12de:	1ec3      	subs	r3, r0, #3
    12e0:	f852 0023 	ldr.w	r0, [r2, r3, lsl #2]
    12e4:	2100      	movs	r1, #0
    12e6:	f842 1023 	str.w	r1, [r2, r3, lsl #2]
    12ea:	b120      	cbz	r0, 12f6 <_close+0x1e>
    12ec:	6803      	ldr	r3, [r0, #0]
    12ee:	685b      	ldr	r3, [r3, #4]
    12f0:	4718      	bx	r3
    12f2:	2000      	movs	r0, #0
    12f4:	4770      	bx	lr
    12f6:	f04f 30ff 	mov.w	r0, #4294967295
    12fa:	4770      	bx	lr
    12fc:	100050d8 	.word	0x100050d8

00001300 <_write>:
    1300:	2802      	cmp	r0, #2
    1302:	dc12      	bgt.n	132a <_write+0x2a>
    1304:	4b0e      	ldr	r3, [pc, #56]	; (1340 <_write+0x40>)
    1306:	b570      	push	{r4, r5, r6, lr}
    1308:	681b      	ldr	r3, [r3, #0]
    130a:	460c      	mov	r4, r1
    130c:	4616      	mov	r6, r2
    130e:	b90b      	cbnz	r3, 1314 <_write+0x14>
    1310:	f7ff ffd6 	bl	12c0 <init_serial() [clone .part.0]>
    1314:	19a5      	adds	r5, r4, r6
    1316:	b136      	cbz	r6, 1326 <_write+0x26>
    1318:	f814 1b01 	ldrb.w	r1, [r4], #1
    131c:	4809      	ldr	r0, [pc, #36]	; (1344 <_write+0x44>)
    131e:	f7ff fe57 	bl	fd0 <serial_putc>
    1322:	42ac      	cmp	r4, r5
    1324:	d1f8      	bne.n	1318 <_write+0x18>
    1326:	4630      	mov	r0, r6
    1328:	bd70      	pop	{r4, r5, r6, pc}
    132a:	4b07      	ldr	r3, [pc, #28]	; (1348 <_write+0x48>)
    132c:	3803      	subs	r0, #3
    132e:	f853 0020 	ldr.w	r0, [r3, r0, lsl #2]
    1332:	b110      	cbz	r0, 133a <_write+0x3a>
    1334:	6803      	ldr	r3, [r0, #0]
    1336:	681b      	ldr	r3, [r3, #0]
    1338:	4718      	bx	r3
    133a:	f04f 30ff 	mov.w	r0, #4294967295
    133e:	4770      	bx	lr
    1340:	10004ff0 	.word	0x10004ff0
    1344:	100051e0 	.word	0x100051e0
    1348:	100050d8 	.word	0x100050d8

0000134c <_read>:
    134c:	2802      	cmp	r0, #2
    134e:	dc0d      	bgt.n	136c <_read+0x20>
    1350:	4b0c      	ldr	r3, [pc, #48]	; (1384 <_read+0x38>)
    1352:	b510      	push	{r4, lr}
    1354:	681b      	ldr	r3, [r3, #0]
    1356:	460c      	mov	r4, r1
    1358:	b90b      	cbnz	r3, 135e <_read+0x12>
    135a:	f7ff ffb1 	bl	12c0 <init_serial() [clone .part.0]>
    135e:	480a      	ldr	r0, [pc, #40]	; (1388 <_read+0x3c>)
    1360:	f7ff fdee 	bl	f40 <serial_getc>
    1364:	2301      	movs	r3, #1
    1366:	7020      	strb	r0, [r4, #0]
    1368:	4618      	mov	r0, r3
    136a:	bd10      	pop	{r4, pc}
    136c:	4b07      	ldr	r3, [pc, #28]	; (138c <_read+0x40>)
    136e:	3803      	subs	r0, #3
    1370:	f853 0020 	ldr.w	r0, [r3, r0, lsl #2]
    1374:	b110      	cbz	r0, 137c <_read+0x30>
    1376:	6803      	ldr	r3, [r0, #0]
    1378:	689b      	ldr	r3, [r3, #8]
    137a:	4718      	bx	r3
    137c:	f04f 33ff 	mov.w	r3, #4294967295
    1380:	4618      	mov	r0, r3
    1382:	4770      	bx	lr
    1384:	10004ff0 	.word	0x10004ff0
    1388:	100051e0 	.word	0x100051e0
    138c:	100050d8 	.word	0x100050d8

00001390 <_isatty>:
    1390:	2802      	cmp	r0, #2
    1392:	dd07      	ble.n	13a4 <_isatty+0x14>
    1394:	4b06      	ldr	r3, [pc, #24]	; (13b0 <_isatty+0x20>)
    1396:	3803      	subs	r0, #3
    1398:	f853 0020 	ldr.w	r0, [r3, r0, lsl #2]
    139c:	b120      	cbz	r0, 13a8 <_isatty+0x18>
    139e:	6803      	ldr	r3, [r0, #0]
    13a0:	68db      	ldr	r3, [r3, #12]
    13a2:	4718      	bx	r3
    13a4:	2001      	movs	r0, #1
    13a6:	4770      	bx	lr
    13a8:	f04f 30ff 	mov.w	r0, #4294967295
    13ac:	4770      	bx	lr
    13ae:	bf00      	nop
    13b0:	100050d8 	.word	0x100050d8

000013b4 <_lseek>:
    13b4:	2802      	cmp	r0, #2
    13b6:	dd07      	ble.n	13c8 <_lseek+0x14>
    13b8:	4b06      	ldr	r3, [pc, #24]	; (13d4 <_lseek+0x20>)
    13ba:	3803      	subs	r0, #3
    13bc:	f853 0020 	ldr.w	r0, [r3, r0, lsl #2]
    13c0:	b120      	cbz	r0, 13cc <_lseek+0x18>
    13c2:	6803      	ldr	r3, [r0, #0]
    13c4:	691b      	ldr	r3, [r3, #16]
    13c6:	4718      	bx	r3
    13c8:	2000      	movs	r0, #0
    13ca:	4770      	bx	lr
    13cc:	f04f 30ff 	mov.w	r0, #4294967295
    13d0:	4770      	bx	lr
    13d2:	bf00      	nop
    13d4:	100050d8 	.word	0x100050d8

000013d8 <_fstat>:
    13d8:	2802      	cmp	r0, #2
    13da:	b508      	push	{r3, lr}
    13dc:	d804      	bhi.n	13e8 <_fstat+0x10>
    13de:	f44f 5300 	mov.w	r3, #8192	; 0x2000
    13e2:	604b      	str	r3, [r1, #4]
    13e4:	2000      	movs	r0, #0
    13e6:	bd08      	pop	{r3, pc}
    13e8:	f000 fd5e 	bl	1ea8 <__errno>
    13ec:	2309      	movs	r3, #9
    13ee:	6003      	str	r3, [r0, #0]
    13f0:	f04f 30ff 	mov.w	r0, #4294967295
    13f4:	bd08      	pop	{r3, pc}
    13f6:	bf00      	nop

000013f8 <mbed_main>:
    13f8:	4770      	bx	lr
    13fa:	bf00      	nop

000013fc <mbed_sdk_init>:
    13fc:	4770      	bx	lr
    13fe:	bf00      	nop

00001400 <__wrap_main>:
    1400:	b508      	push	{r3, lr}
    1402:	f7ff fffb 	bl	13fc <mbed_sdk_init>
    1406:	f7ff fff7 	bl	13f8 <mbed_main>
    140a:	e8bd 4008 	ldmia.w	sp!, {r3, lr}
    140e:	f7fe beaf 	b.w	170 <main>
    1412:	bf00      	nop

00001414 <_sbrk>:
    1414:	4a07      	ldr	r2, [pc, #28]	; (1434 <_sbrk+0x20>)
    1416:	6813      	ldr	r3, [r2, #0]
    1418:	1819      	adds	r1, r3, r0
    141a:	f3ef 8008 	mrs	r0, MSP
    141e:	4281      	cmp	r1, r0
    1420:	d202      	bcs.n	1428 <_sbrk+0x14>
    1422:	4618      	mov	r0, r3
    1424:	6011      	str	r1, [r2, #0]
    1426:	4770      	bx	lr
    1428:	4b03      	ldr	r3, [pc, #12]	; (1438 <_sbrk+0x24>)
    142a:	220c      	movs	r2, #12
    142c:	601a      	str	r2, [r3, #0]
    142e:	f04f 30ff 	mov.w	r0, #4294967295
    1432:	4770      	bx	lr
    1434:	100000e8 	.word	0x100000e8
    1438:	100051e8 	.word	0x100051e8

0000143c <_exit>:
    143c:	4c0b      	ldr	r4, [pc, #44]	; (146c <_exit+0x30>)
    143e:	b508      	push	{r3, lr}
    1440:	6823      	ldr	r3, [r4, #0]
    1442:	4605      	mov	r5, r0
    1444:	6898      	ldr	r0, [r3, #8]
    1446:	f000 fdf9 	bl	203c <fflush>
    144a:	6823      	ldr	r3, [r4, #0]
    144c:	68d8      	ldr	r0, [r3, #12]
    144e:	f000 fdf5 	bl	203c <fflush>
    1452:	f7fe ff7f 	bl	354 <mbed_interface_connected>
    1456:	b920      	cbnz	r0, 1462 <_exit+0x26>
    1458:	b905      	cbnz	r5, 145c <_exit+0x20>
    145a:	e7fe      	b.n	145a <_exit+0x1e>
    145c:	f7ff f822 	bl	4a4 <mbed_die>
    1460:	e7fb      	b.n	145a <_exit+0x1e>
    1462:	f7fe ff2d 	bl	2c0 <semihost_exit>
    1466:	2d00      	cmp	r5, #0
    1468:	d0f7      	beq.n	145a <_exit+0x1e>
    146a:	e7f7      	b.n	145c <_exit+0x20>
    146c:	1000014c 	.word	0x1000014c

00001470 <Reset_Handler>:
    1470:	4906      	ldr	r1, [pc, #24]	; (148c <Reset_Handler+0x1c>)
    1472:	4a07      	ldr	r2, [pc, #28]	; (1490 <Reset_Handler+0x20>)
    1474:	4b07      	ldr	r3, [pc, #28]	; (1494 <Reset_Handler+0x24>)
    1476:	429a      	cmp	r2, r3
    1478:	bfbe      	ittt	lt
    147a:	f851 0b04 	ldrlt.w	r0, [r1], #4
    147e:	f842 0b04 	strlt.w	r0, [r2], #4
    1482:	e7f8      	blt.n	1476 <Reset_Handler+0x6>
    1484:	4804      	ldr	r0, [pc, #16]	; (1498 <Reset_Handler+0x28>)
    1486:	4780      	blx	r0
    1488:	4804      	ldr	r0, [pc, #16]	; (149c <Reset_Handler+0x2c>)
    148a:	4700      	bx	r0
    148c:	00004f5c 	.word	0x00004f5c
    1490:	100000c8 	.word	0x100000c8
    1494:	10000194 	.word	0x10000194
    1498:	00000555 	.word	0x00000555
    149c:	00000235 	.word	0x00000235

000014a0 <NMI_Handler>:
    14a0:	e7fe      	b.n	14a0 <NMI_Handler>

000014a2 <HardFault_Handler>:
    14a2:	e7fe      	b.n	14a2 <HardFault_Handler>

000014a4 <MemManage_Handler>:
    14a4:	e7fe      	b.n	14a4 <MemManage_Handler>

000014a6 <BusFault_Handler>:
    14a6:	e7fe      	b.n	14a6 <BusFault_Handler>

000014a8 <UsageFault_Handler>:
    14a8:	e7fe      	b.n	14a8 <UsageFault_Handler>

000014aa <SVC_Handler>:
    14aa:	e7fe      	b.n	14aa <SVC_Handler>

000014ac <DebugMon_Handler>:
    14ac:	e7fe      	b.n	14ac <DebugMon_Handler>

000014ae <PendSV_Handler>:
    14ae:	e7fe      	b.n	14ae <PendSV_Handler>

000014b0 <SysTick_Handler>:
    14b0:	e7fe      	b.n	14b0 <SysTick_Handler>

000014b2 <ADC_IRQHandler>:
    14b2:	e7fe      	b.n	14b2 <ADC_IRQHandler>

000014b4 <__aeabi_drsub>:
    14b4:	f081 4100 	eor.w	r1, r1, #2147483648	; 0x80000000
    14b8:	e002      	b.n	14c0 <__adddf3>
    14ba:	bf00      	nop

000014bc <__aeabi_dsub>:
    14bc:	f083 4300 	eor.w	r3, r3, #2147483648	; 0x80000000

000014c0 <__adddf3>:
    14c0:	b530      	push	{r4, r5, lr}
    14c2:	ea4f 0441 	mov.w	r4, r1, lsl #1
    14c6:	ea4f 0543 	mov.w	r5, r3, lsl #1
    14ca:	ea94 0f05 	teq	r4, r5
    14ce:	bf08      	it	eq
    14d0:	ea90 0f02 	teqeq	r0, r2
    14d4:	bf1f      	itttt	ne
    14d6:	ea54 0c00 	orrsne.w	r12, r4, r0
    14da:	ea55 0c02 	orrsne.w	r12, r5, r2
    14de:	ea7f 5c64 	mvnsne.w	r12, r4, asr #21
    14e2:	ea7f 5c65 	mvnsne.w	r12, r5, asr #21
    14e6:	f000 80e2 	beq.w	16ae <__adddf3+0x1ee>
    14ea:	ea4f 5454 	mov.w	r4, r4, lsr #21
    14ee:	ebd4 5555 	rsbs	r5, r4, r5, lsr #21
    14f2:	bfb8      	it	lt
    14f4:	426d      	neglt	r5, r5
    14f6:	dd0c      	ble.n	1512 <__adddf3+0x52>
    14f8:	442c      	add	r4, r5
    14fa:	ea80 0202 	eor.w	r2, r0, r2
    14fe:	ea81 0303 	eor.w	r3, r1, r3
    1502:	ea82 0000 	eor.w	r0, r2, r0
    1506:	ea83 0101 	eor.w	r1, r3, r1
    150a:	ea80 0202 	eor.w	r2, r0, r2
    150e:	ea81 0303 	eor.w	r3, r1, r3
    1512:	2d36      	cmp	r5, #54	; 0x36
    1514:	bf88      	it	hi
    1516:	bd30      	pophi	{r4, r5, pc}
    1518:	f011 4f00 	tst.w	r1, #2147483648	; 0x80000000
    151c:	ea4f 3101 	mov.w	r1, r1, lsl #12
    1520:	f44f 1c80 	mov.w	r12, #1048576	; 0x100000
    1524:	ea4c 3111 	orr.w	r1, r12, r1, lsr #12
    1528:	d002      	beq.n	1530 <__adddf3+0x70>
    152a:	4240      	negs	r0, r0
    152c:	eb61 0141 	sbc.w	r1, r1, r1, lsl #1
    1530:	f013 4f00 	tst.w	r3, #2147483648	; 0x80000000
    1534:	ea4f 3303 	mov.w	r3, r3, lsl #12
    1538:	ea4c 3313 	orr.w	r3, r12, r3, lsr #12
    153c:	d002      	beq.n	1544 <__adddf3+0x84>
    153e:	4252      	negs	r2, r2
    1540:	eb63 0343 	sbc.w	r3, r3, r3, lsl #1
    1544:	ea94 0f05 	teq	r4, r5
    1548:	f000 80a7 	beq.w	169a <__adddf3+0x1da>
    154c:	f1a4 0401 	sub.w	r4, r4, #1
    1550:	f1d5 0e20 	rsbs	lr, r5, #32
    1554:	db0d      	blt.n	1572 <__adddf3+0xb2>
    1556:	fa02 fc0e 	lsl.w	r12, r2, lr
    155a:	fa22 f205 	lsr.w	r2, r2, r5
    155e:	1880      	adds	r0, r0, r2
    1560:	f141 0100 	adc.w	r1, r1, #0
    1564:	fa03 f20e 	lsl.w	r2, r3, lr
    1568:	1880      	adds	r0, r0, r2
    156a:	fa43 f305 	asr.w	r3, r3, r5
    156e:	4159      	adcs	r1, r3
    1570:	e00e      	b.n	1590 <__adddf3+0xd0>
    1572:	f1a5 0520 	sub.w	r5, r5, #32
    1576:	f10e 0e20 	add.w	lr, lr, #32
    157a:	2a01      	cmp	r2, #1
    157c:	fa03 fc0e 	lsl.w	r12, r3, lr
    1580:	bf28      	it	cs
    1582:	f04c 0c02 	orrcs.w	r12, r12, #2
    1586:	fa43 f305 	asr.w	r3, r3, r5
    158a:	18c0      	adds	r0, r0, r3
    158c:	eb51 71e3 	adcs.w	r1, r1, r3, asr #31
    1590:	f001 4500 	and.w	r5, r1, #2147483648	; 0x80000000
    1594:	d507      	bpl.n	15a6 <__adddf3+0xe6>
    1596:	f04f 0e00 	mov.w	lr, #0
    159a:	f1dc 0c00 	rsbs	r12, r12, #0
    159e:	eb7e 0000 	sbcs.w	r0, lr, r0
    15a2:	eb6e 0101 	sbc.w	r1, lr, r1
    15a6:	f5b1 1f80 	cmp.w	r1, #1048576	; 0x100000
    15aa:	d31b      	bcc.n	15e4 <__adddf3+0x124>
    15ac:	f5b1 1f00 	cmp.w	r1, #2097152	; 0x200000
    15b0:	d30c      	bcc.n	15cc <__adddf3+0x10c>
    15b2:	0849      	lsrs	r1, r1, #1
    15b4:	ea5f 0030 	movs.w	r0, r0, rrx
    15b8:	ea4f 0c3c 	mov.w	r12, r12, rrx
    15bc:	f104 0401 	add.w	r4, r4, #1
    15c0:	ea4f 5244 	mov.w	r2, r4, lsl #21
    15c4:	f512 0f80 	cmn.w	r2, #4194304	; 0x400000
    15c8:	f080 809a 	bcs.w	1700 <__adddf3+0x240>
    15cc:	f1bc 4f00 	cmp.w	r12, #2147483648	; 0x80000000
    15d0:	bf08      	it	eq
    15d2:	ea5f 0c50 	movseq.w	r12, r0, lsr #1
    15d6:	f150 0000 	adcs.w	r0, r0, #0
    15da:	eb41 5104 	adc.w	r1, r1, r4, lsl #20
    15de:	ea41 0105 	orr.w	r1, r1, r5
    15e2:	bd30      	pop	{r4, r5, pc}
    15e4:	ea5f 0c4c 	movs.w	r12, r12, lsl #1
    15e8:	4140      	adcs	r0, r0
    15ea:	eb41 0101 	adc.w	r1, r1, r1
    15ee:	f411 1f80 	tst.w	r1, #1048576	; 0x100000
    15f2:	f1a4 0401 	sub.w	r4, r4, #1
    15f6:	d1e9      	bne.n	15cc <__adddf3+0x10c>
    15f8:	f091 0f00 	teq	r1, #0
    15fc:	bf04      	itt	eq
    15fe:	4601      	moveq	r1, r0
    1600:	2000      	moveq	r0, #0
    1602:	fab1 f381 	clz	r3, r1
    1606:	bf08      	it	eq
    1608:	3320      	addeq	r3, #32
    160a:	f1a3 030b 	sub.w	r3, r3, #11
    160e:	f1b3 0220 	subs.w	r2, r3, #32
    1612:	da0c      	bge.n	162e <__adddf3+0x16e>
    1614:	320c      	adds	r2, #12
    1616:	dd08      	ble.n	162a <__adddf3+0x16a>
    1618:	f102 0c14 	add.w	r12, r2, #20
    161c:	f1c2 020c 	rsb	r2, r2, #12
    1620:	fa01 f00c 	lsl.w	r0, r1, r12
    1624:	fa21 f102 	lsr.w	r1, r1, r2
    1628:	e00c      	b.n	1644 <__adddf3+0x184>
    162a:	f102 0214 	add.w	r2, r2, #20
    162e:	bfd8      	it	le
    1630:	f1c2 0c20 	rsble	r12, r2, #32
    1634:	fa01 f102 	lsl.w	r1, r1, r2
    1638:	fa20 fc0c 	lsr.w	r12, r0, r12
    163c:	bfdc      	itt	le
    163e:	ea41 010c 	orrle.w	r1, r1, r12
    1642:	4090      	lslle	r0, r2
    1644:	1ae4      	subs	r4, r4, r3
    1646:	bfa2      	ittt	ge
    1648:	eb01 5104 	addge.w	r1, r1, r4, lsl #20
    164c:	4329      	orrge	r1, r5
    164e:	bd30      	popge	{r4, r5, pc}
    1650:	ea6f 0404 	mvn.w	r4, r4
    1654:	3c1f      	subs	r4, #31
    1656:	da1c      	bge.n	1692 <__adddf3+0x1d2>
    1658:	340c      	adds	r4, #12
    165a:	dc0e      	bgt.n	167a <__adddf3+0x1ba>
    165c:	f104 0414 	add.w	r4, r4, #20
    1660:	f1c4 0220 	rsb	r2, r4, #32
    1664:	fa20 f004 	lsr.w	r0, r0, r4
    1668:	fa01 f302 	lsl.w	r3, r1, r2
    166c:	ea40 0003 	orr.w	r0, r0, r3
    1670:	fa21 f304 	lsr.w	r3, r1, r4
    1674:	ea45 0103 	orr.w	r1, r5, r3
    1678:	bd30      	pop	{r4, r5, pc}
    167a:	f1c4 040c 	rsb	r4, r4, #12
    167e:	f1c4 0220 	rsb	r2, r4, #32
    1682:	fa20 f002 	lsr.w	r0, r0, r2
    1686:	fa01 f304 	lsl.w	r3, r1, r4
    168a:	ea40 0003 	orr.w	r0, r0, r3
    168e:	4629      	mov	r1, r5
    1690:	bd30      	pop	{r4, r5, pc}
    1692:	fa21 f004 	lsr.w	r0, r1, r4
    1696:	4629      	mov	r1, r5
    1698:	bd30      	pop	{r4, r5, pc}
    169a:	f094 0f00 	teq	r4, #0
    169e:	f483 1380 	eor.w	r3, r3, #1048576	; 0x100000
    16a2:	bf06      	itte	eq
    16a4:	f481 1180 	eoreq.w	r1, r1, #1048576	; 0x100000
    16a8:	3401      	addeq	r4, #1
    16aa:	3d01      	subne	r5, #1
    16ac:	e74e      	b.n	154c <__adddf3+0x8c>
    16ae:	ea7f 5c64 	mvns.w	r12, r4, asr #21
    16b2:	bf18      	it	ne
    16b4:	ea7f 5c65 	mvnsne.w	r12, r5, asr #21
    16b8:	d029      	beq.n	170e <__adddf3+0x24e>
    16ba:	ea94 0f05 	teq	r4, r5
    16be:	bf08      	it	eq
    16c0:	ea90 0f02 	teqeq	r0, r2
    16c4:	d005      	beq.n	16d2 <__adddf3+0x212>
    16c6:	ea54 0c00 	orrs.w	r12, r4, r0
    16ca:	bf04      	itt	eq
    16cc:	4619      	moveq	r1, r3
    16ce:	4610      	moveq	r0, r2
    16d0:	bd30      	pop	{r4, r5, pc}
    16d2:	ea91 0f03 	teq	r1, r3
    16d6:	bf1e      	ittt	ne
    16d8:	2100      	movne	r1, #0
    16da:	2000      	movne	r0, #0
    16dc:	bd30      	popne	{r4, r5, pc}
    16de:	ea5f 5c54 	movs.w	r12, r4, lsr #21
    16e2:	d105      	bne.n	16f0 <__adddf3+0x230>
    16e4:	0040      	lsls	r0, r0, #1
    16e6:	4149      	adcs	r1, r1
    16e8:	bf28      	it	cs
    16ea:	f041 4100 	orrcs.w	r1, r1, #2147483648	; 0x80000000
    16ee:	bd30      	pop	{r4, r5, pc}
    16f0:	f514 0480 	adds.w	r4, r4, #4194304	; 0x400000
    16f4:	bf3c      	itt	cc
    16f6:	f501 1180 	addcc.w	r1, r1, #1048576	; 0x100000
    16fa:	bd30      	popcc	{r4, r5, pc}
    16fc:	f001 4500 	and.w	r5, r1, #2147483648	; 0x80000000
    1700:	f045 41fe 	orr.w	r1, r5, #2130706432	; 0x7f000000
    1704:	f441 0170 	orr.w	r1, r1, #15728640	; 0xf00000
    1708:	f04f 0000 	mov.w	r0, #0
    170c:	bd30      	pop	{r4, r5, pc}
    170e:	ea7f 5c64 	mvns.w	r12, r4, asr #21
    1712:	bf1a      	itte	ne
    1714:	4619      	movne	r1, r3
    1716:	4610      	movne	r0, r2
    1718:	ea7f 5c65 	mvnseq.w	r12, r5, asr #21
    171c:	bf1c      	itt	ne
    171e:	460b      	movne	r3, r1
    1720:	4602      	movne	r2, r0
    1722:	ea50 3401 	orrs.w	r4, r0, r1, lsl #12
    1726:	bf06      	itte	eq
    1728:	ea52 3503 	orrseq.w	r5, r2, r3, lsl #12
    172c:	ea91 0f03 	teqeq	r1, r3
    1730:	f441 2100 	orrne.w	r1, r1, #524288	; 0x80000
    1734:	bd30      	pop	{r4, r5, pc}
    1736:	bf00      	nop

00001738 <__aeabi_ui2d>:
    1738:	f090 0f00 	teq	r0, #0
    173c:	bf04      	itt	eq
    173e:	2100      	moveq	r1, #0
    1740:	4770      	bxeq	lr
    1742:	b530      	push	{r4, r5, lr}
    1744:	f44f 6480 	mov.w	r4, #1024	; 0x400
    1748:	f104 0432 	add.w	r4, r4, #50	; 0x32
    174c:	f04f 0500 	mov.w	r5, #0
    1750:	f04f 0100 	mov.w	r1, #0
    1754:	e750      	b.n	15f8 <__adddf3+0x138>
    1756:	bf00      	nop

00001758 <__aeabi_i2d>:
    1758:	f090 0f00 	teq	r0, #0
    175c:	bf04      	itt	eq
    175e:	2100      	moveq	r1, #0
    1760:	4770      	bxeq	lr
    1762:	b530      	push	{r4, r5, lr}
    1764:	f44f 6480 	mov.w	r4, #1024	; 0x400
    1768:	f104 0432 	add.w	r4, r4, #50	; 0x32
    176c:	f010 4500 	ands.w	r5, r0, #2147483648	; 0x80000000
    1770:	bf48      	it	mi
    1772:	4240      	negmi	r0, r0
    1774:	f04f 0100 	mov.w	r1, #0
    1778:	e73e      	b.n	15f8 <__adddf3+0x138>
    177a:	bf00      	nop

0000177c <__aeabi_f2d>:
    177c:	0042      	lsls	r2, r0, #1
    177e:	ea4f 01e2 	mov.w	r1, r2, asr #3
    1782:	ea4f 0131 	mov.w	r1, r1, rrx
    1786:	ea4f 7002 	mov.w	r0, r2, lsl #28
    178a:	bf1f      	itttt	ne
    178c:	f012 437f 	andsne.w	r3, r2, #4278190080	; 0xff000000
    1790:	f093 4f7f 	teqne	r3, #4278190080	; 0xff000000
    1794:	f081 5160 	eorne.w	r1, r1, #939524096	; 0x38000000
    1798:	4770      	bxne	lr
    179a:	f092 0f00 	teq	r2, #0
    179e:	bf14      	ite	ne
    17a0:	f093 4f7f 	teqne	r3, #4278190080	; 0xff000000
    17a4:	4770      	bxeq	lr
    17a6:	b530      	push	{r4, r5, lr}
    17a8:	f44f 7460 	mov.w	r4, #896	; 0x380
    17ac:	f001 4500 	and.w	r5, r1, #2147483648	; 0x80000000
    17b0:	f021 4100 	bic.w	r1, r1, #2147483648	; 0x80000000
    17b4:	e720      	b.n	15f8 <__adddf3+0x138>
    17b6:	bf00      	nop

000017b8 <__aeabi_ul2d>:
    17b8:	ea50 0201 	orrs.w	r2, r0, r1
    17bc:	bf08      	it	eq
    17be:	4770      	bxeq	lr
    17c0:	b530      	push	{r4, r5, lr}
    17c2:	f04f 0500 	mov.w	r5, #0
    17c6:	e00a      	b.n	17de <__aeabi_l2d+0x16>

000017c8 <__aeabi_l2d>:
    17c8:	ea50 0201 	orrs.w	r2, r0, r1
    17cc:	bf08      	it	eq
    17ce:	4770      	bxeq	lr
    17d0:	b530      	push	{r4, r5, lr}
    17d2:	f011 4500 	ands.w	r5, r1, #2147483648	; 0x80000000
    17d6:	d502      	bpl.n	17de <__aeabi_l2d+0x16>
    17d8:	4240      	negs	r0, r0
    17da:	eb61 0141 	sbc.w	r1, r1, r1, lsl #1
    17de:	f44f 6480 	mov.w	r4, #1024	; 0x400
    17e2:	f104 0432 	add.w	r4, r4, #50	; 0x32
    17e6:	ea5f 5c91 	movs.w	r12, r1, lsr #22
    17ea:	f43f aedc 	beq.w	15a6 <__adddf3+0xe6>
    17ee:	f04f 0203 	mov.w	r2, #3
    17f2:	ea5f 0cdc 	movs.w	r12, r12, lsr #3
    17f6:	bf18      	it	ne
    17f8:	3203      	addne	r2, #3
    17fa:	ea5f 0cdc 	movs.w	r12, r12, lsr #3
    17fe:	bf18      	it	ne
    1800:	3203      	addne	r2, #3
    1802:	eb02 02dc 	add.w	r2, r2, r12, lsr #3
    1806:	f1c2 0320 	rsb	r3, r2, #32
    180a:	fa00 fc03 	lsl.w	r12, r0, r3
    180e:	fa20 f002 	lsr.w	r0, r0, r2
    1812:	fa01 fe03 	lsl.w	lr, r1, r3
    1816:	ea40 000e 	orr.w	r0, r0, lr
    181a:	fa21 f102 	lsr.w	r1, r1, r2
    181e:	4414      	add	r4, r2
    1820:	e6c1      	b.n	15a6 <__adddf3+0xe6>
    1822:	bf00      	nop

00001824 <__aeabi_d2iz>:
    1824:	ea4f 0241 	mov.w	r2, r1, lsl #1
    1828:	f512 1200 	adds.w	r2, r2, #2097152	; 0x200000
    182c:	d215      	bcs.n	185a <__aeabi_d2iz+0x36>
    182e:	d511      	bpl.n	1854 <__aeabi_d2iz+0x30>
    1830:	f46f 7378 	mvn.w	r3, #992	; 0x3e0
    1834:	ebb3 5262 	subs.w	r2, r3, r2, asr #21
    1838:	d912      	bls.n	1860 <__aeabi_d2iz+0x3c>
    183a:	ea4f 23c1 	mov.w	r3, r1, lsl #11
    183e:	f043 4300 	orr.w	r3, r3, #2147483648	; 0x80000000
    1842:	ea43 5350 	orr.w	r3, r3, r0, lsr #21
    1846:	f011 4f00 	tst.w	r1, #2147483648	; 0x80000000
    184a:	fa23 f002 	lsr.w	r0, r3, r2
    184e:	bf18      	it	ne
    1850:	4240      	negne	r0, r0
    1852:	4770      	bx	lr
    1854:	f04f 0000 	mov.w	r0, #0
    1858:	4770      	bx	lr
    185a:	ea50 3001 	orrs.w	r0, r0, r1, lsl #12
    185e:	d105      	bne.n	186c <__aeabi_d2iz+0x48>
    1860:	f011 4000 	ands.w	r0, r1, #2147483648	; 0x80000000
    1864:	bf08      	it	eq
    1866:	f06f 4000 	mvneq.w	r0, #2147483648	; 0x80000000
    186a:	4770      	bx	lr
    186c:	f04f 0000 	mov.w	r0, #0
    1870:	4770      	bx	lr
    1872:	bf00      	nop

00001874 <__aeabi_frsub>:
    1874:	f080 4000 	eor.w	r0, r0, #2147483648	; 0x80000000
    1878:	e002      	b.n	1880 <__addsf3>
    187a:	bf00      	nop

0000187c <__aeabi_fsub>:
    187c:	f081 4100 	eor.w	r1, r1, #2147483648	; 0x80000000

00001880 <__addsf3>:
    1880:	0042      	lsls	r2, r0, #1
    1882:	bf1f      	itttt	ne
    1884:	ea5f 0341 	movsne.w	r3, r1, lsl #1
    1888:	ea92 0f03 	teqne	r2, r3
    188c:	ea7f 6c22 	mvnsne.w	r12, r2, asr #24
    1890:	ea7f 6c23 	mvnsne.w	r12, r3, asr #24
    1894:	d06a      	beq.n	196c <__addsf3+0xec>
    1896:	ea4f 6212 	mov.w	r2, r2, lsr #24
    189a:	ebd2 6313 	rsbs	r3, r2, r3, lsr #24
    189e:	bfc1      	itttt	gt
    18a0:	18d2      	addgt	r2, r2, r3
    18a2:	4041      	eorgt	r1, r0
    18a4:	4048      	eorgt	r0, r1
    18a6:	4041      	eorgt	r1, r0
    18a8:	bfb8      	it	lt
    18aa:	425b      	neglt	r3, r3
    18ac:	2b19      	cmp	r3, #25
    18ae:	bf88      	it	hi
    18b0:	4770      	bxhi	lr
    18b2:	f010 4f00 	tst.w	r0, #2147483648	; 0x80000000
    18b6:	f440 0000 	orr.w	r0, r0, #8388608	; 0x800000
    18ba:	f020 407f 	bic.w	r0, r0, #4278190080	; 0xff000000
    18be:	bf18      	it	ne
    18c0:	4240      	negne	r0, r0
    18c2:	f011 4f00 	tst.w	r1, #2147483648	; 0x80000000
    18c6:	f441 0100 	orr.w	r1, r1, #8388608	; 0x800000
    18ca:	f021 417f 	bic.w	r1, r1, #4278190080	; 0xff000000
    18ce:	bf18      	it	ne
    18d0:	4249      	negne	r1, r1
    18d2:	ea92 0f03 	teq	r2, r3
    18d6:	d03f      	beq.n	1958 <__addsf3+0xd8>
    18d8:	f1a2 0201 	sub.w	r2, r2, #1
    18dc:	fa41 fc03 	asr.w	r12, r1, r3
    18e0:	eb10 000c 	adds.w	r0, r0, r12
    18e4:	f1c3 0320 	rsb	r3, r3, #32
    18e8:	fa01 f103 	lsl.w	r1, r1, r3
    18ec:	f000 4300 	and.w	r3, r0, #2147483648	; 0x80000000
    18f0:	d502      	bpl.n	18f8 <__addsf3+0x78>
    18f2:	4249      	negs	r1, r1
    18f4:	eb60 0040 	sbc.w	r0, r0, r0, lsl #1
    18f8:	f5b0 0f00 	cmp.w	r0, #8388608	; 0x800000
    18fc:	d313      	bcc.n	1926 <__addsf3+0xa6>
    18fe:	f1b0 7f80 	cmp.w	r0, #16777216	; 0x1000000
    1902:	d306      	bcc.n	1912 <__addsf3+0x92>
    1904:	0840      	lsrs	r0, r0, #1
    1906:	ea4f 0131 	mov.w	r1, r1, rrx
    190a:	f102 0201 	add.w	r2, r2, #1
    190e:	2afe      	cmp	r2, #254	; 0xfe
    1910:	d251      	bcs.n	19b6 <__addsf3+0x136>
    1912:	f1b1 4f00 	cmp.w	r1, #2147483648	; 0x80000000
    1916:	eb40 50c2 	adc.w	r0, r0, r2, lsl #23
    191a:	bf08      	it	eq
    191c:	f020 0001 	biceq.w	r0, r0, #1
    1920:	ea40 0003 	orr.w	r0, r0, r3
    1924:	4770      	bx	lr
    1926:	0049      	lsls	r1, r1, #1
    1928:	eb40 0000 	adc.w	r0, r0, r0
    192c:	f410 0f00 	tst.w	r0, #8388608	; 0x800000
    1930:	f1a2 0201 	sub.w	r2, r2, #1
    1934:	d1ed      	bne.n	1912 <__addsf3+0x92>
    1936:	fab0 fc80 	clz	r12, r0
    193a:	f1ac 0c08 	sub.w	r12, r12, #8
    193e:	ebb2 020c 	subs.w	r2, r2, r12
    1942:	fa00 f00c 	lsl.w	r0, r0, r12
    1946:	bfaa      	itet	ge
    1948:	eb00 50c2 	addge.w	r0, r0, r2, lsl #23
    194c:	4252      	neglt	r2, r2
    194e:	4318      	orrge	r0, r3
    1950:	bfbc      	itt	lt
    1952:	40d0      	lsrlt	r0, r2
    1954:	4318      	orrlt	r0, r3
    1956:	4770      	bx	lr
    1958:	f092 0f00 	teq	r2, #0
    195c:	f481 0100 	eor.w	r1, r1, #8388608	; 0x800000
    1960:	bf06      	itte	eq
    1962:	f480 0000 	eoreq.w	r0, r0, #8388608	; 0x800000
    1966:	3201      	addeq	r2, #1
    1968:	3b01      	subne	r3, #1
    196a:	e7b5      	b.n	18d8 <__addsf3+0x58>
    196c:	ea4f 0341 	mov.w	r3, r1, lsl #1
    1970:	ea7f 6c22 	mvns.w	r12, r2, asr #24
    1974:	bf18      	it	ne
    1976:	ea7f 6c23 	mvnsne.w	r12, r3, asr #24
    197a:	d021      	beq.n	19c0 <__addsf3+0x140>
    197c:	ea92 0f03 	teq	r2, r3
    1980:	d004      	beq.n	198c <__addsf3+0x10c>
    1982:	f092 0f00 	teq	r2, #0
    1986:	bf08      	it	eq
    1988:	4608      	moveq	r0, r1
    198a:	4770      	bx	lr
    198c:	ea90 0f01 	teq	r0, r1
    1990:	bf1c      	itt	ne
    1992:	2000      	movne	r0, #0
    1994:	4770      	bxne	lr
    1996:	f012 4f7f 	tst.w	r2, #4278190080	; 0xff000000
    199a:	d104      	bne.n	19a6 <__addsf3+0x126>
    199c:	0040      	lsls	r0, r0, #1
    199e:	bf28      	it	cs
    19a0:	f040 4000 	orrcs.w	r0, r0, #2147483648	; 0x80000000
    19a4:	4770      	bx	lr
    19a6:	f112 7200 	adds.w	r2, r2, #33554432	; 0x2000000
    19aa:	bf3c      	itt	cc
    19ac:	f500 0000 	addcc.w	r0, r0, #8388608	; 0x800000
    19b0:	4770      	bxcc	lr
    19b2:	f000 4300 	and.w	r3, r0, #2147483648	; 0x80000000
    19b6:	f043 40fe 	orr.w	r0, r3, #2130706432	; 0x7f000000
    19ba:	f440 0000 	orr.w	r0, r0, #8388608	; 0x800000
    19be:	4770      	bx	lr
    19c0:	ea7f 6222 	mvns.w	r2, r2, asr #24
    19c4:	bf16      	itet	ne
    19c6:	4608      	movne	r0, r1
    19c8:	ea7f 6323 	mvnseq.w	r3, r3, asr #24
    19cc:	4601      	movne	r1, r0
    19ce:	0242      	lsls	r2, r0, #9
    19d0:	bf06      	itte	eq
    19d2:	ea5f 2341 	movseq.w	r3, r1, lsl #9
    19d6:	ea90 0f01 	teqeq	r0, r1
    19da:	f440 0080 	orrne.w	r0, r0, #4194304	; 0x400000
    19de:	4770      	bx	lr

000019e0 <__aeabi_ui2f>:
    19e0:	f04f 0300 	mov.w	r3, #0
    19e4:	e004      	b.n	19f0 <__aeabi_i2f+0x8>
    19e6:	bf00      	nop

000019e8 <__aeabi_i2f>:
    19e8:	f010 4300 	ands.w	r3, r0, #2147483648	; 0x80000000
    19ec:	bf48      	it	mi
    19ee:	4240      	negmi	r0, r0
    19f0:	ea5f 0c00 	movs.w	r12, r0
    19f4:	bf08      	it	eq
    19f6:	4770      	bxeq	lr
    19f8:	f043 4396 	orr.w	r3, r3, #1258291200	; 0x4b000000
    19fc:	4601      	mov	r1, r0
    19fe:	f04f 0000 	mov.w	r0, #0
    1a02:	e01c      	b.n	1a3e <__aeabi_l2f+0x2a>

00001a04 <__aeabi_ul2f>:
    1a04:	ea50 0201 	orrs.w	r2, r0, r1
    1a08:	bf08      	it	eq
    1a0a:	4770      	bxeq	lr
    1a0c:	f04f 0300 	mov.w	r3, #0
    1a10:	e00a      	b.n	1a28 <__aeabi_l2f+0x14>
    1a12:	bf00      	nop

00001a14 <__aeabi_l2f>:
    1a14:	ea50 0201 	orrs.w	r2, r0, r1
    1a18:	bf08      	it	eq
    1a1a:	4770      	bxeq	lr
    1a1c:	f011 4300 	ands.w	r3, r1, #2147483648	; 0x80000000
    1a20:	d502      	bpl.n	1a28 <__aeabi_l2f+0x14>
    1a22:	4240      	negs	r0, r0
    1a24:	eb61 0141 	sbc.w	r1, r1, r1, lsl #1
    1a28:	ea5f 0c01 	movs.w	r12, r1
    1a2c:	bf02      	ittt	eq
    1a2e:	4684      	moveq	r12, r0
    1a30:	4601      	moveq	r1, r0
    1a32:	2000      	moveq	r0, #0
    1a34:	f043 43b6 	orr.w	r3, r3, #1526726656	; 0x5b000000
    1a38:	bf08      	it	eq
    1a3a:	f1a3 5380 	subeq.w	r3, r3, #268435456	; 0x10000000
    1a3e:	f5a3 0300 	sub.w	r3, r3, #8388608	; 0x800000
    1a42:	fabc f28c 	clz	r2, r12
    1a46:	3a08      	subs	r2, #8
    1a48:	eba3 53c2 	sub.w	r3, r3, r2, lsl #23
    1a4c:	db10      	blt.n	1a70 <__aeabi_l2f+0x5c>
    1a4e:	fa01 fc02 	lsl.w	r12, r1, r2
    1a52:	4463      	add	r3, r12
    1a54:	fa00 fc02 	lsl.w	r12, r0, r2
    1a58:	f1c2 0220 	rsb	r2, r2, #32
    1a5c:	f1bc 4f00 	cmp.w	r12, #2147483648	; 0x80000000
    1a60:	fa20 f202 	lsr.w	r2, r0, r2
    1a64:	eb43 0002 	adc.w	r0, r3, r2
    1a68:	bf08      	it	eq
    1a6a:	f020 0001 	biceq.w	r0, r0, #1
    1a6e:	4770      	bx	lr
    1a70:	f102 0220 	add.w	r2, r2, #32
    1a74:	fa01 fc02 	lsl.w	r12, r1, r2
    1a78:	f1c2 0220 	rsb	r2, r2, #32
    1a7c:	ea50 004c 	orrs.w	r0, r0, r12, lsl #1
    1a80:	fa21 f202 	lsr.w	r2, r1, r2
    1a84:	eb43 0002 	adc.w	r0, r3, r2
    1a88:	bf08      	it	eq
    1a8a:	ea20 70dc 	biceq.w	r0, r0, r12, lsr #31
    1a8e:	4770      	bx	lr

00001a90 <__aeabi_fmul>:
    1a90:	f04f 0cff 	mov.w	r12, #255	; 0xff
    1a94:	ea1c 52d0 	ands.w	r2, r12, r0, lsr #23
    1a98:	bf1e      	ittt	ne
    1a9a:	ea1c 53d1 	andsne.w	r3, r12, r1, lsr #23
    1a9e:	ea92 0f0c 	teqne	r2, r12
    1aa2:	ea93 0f0c 	teqne	r3, r12
    1aa6:	d06f      	beq.n	1b88 <__aeabi_fmul+0xf8>
    1aa8:	441a      	add	r2, r3
    1aaa:	ea80 0c01 	eor.w	r12, r0, r1
    1aae:	0240      	lsls	r0, r0, #9
    1ab0:	bf18      	it	ne
    1ab2:	ea5f 2141 	movsne.w	r1, r1, lsl #9
    1ab6:	d01e      	beq.n	1af6 <__aeabi_fmul+0x66>
    1ab8:	f04f 6300 	mov.w	r3, #134217728	; 0x8000000
    1abc:	ea43 1050 	orr.w	r0, r3, r0, lsr #5
    1ac0:	ea43 1151 	orr.w	r1, r3, r1, lsr #5
    1ac4:	fba0 3101 	umull	r3, r1, r0, r1
    1ac8:	f00c 4000 	and.w	r0, r12, #2147483648	; 0x80000000
    1acc:	f5b1 0f00 	cmp.w	r1, #8388608	; 0x800000
    1ad0:	bf3e      	ittt	cc
    1ad2:	0049      	lslcc	r1, r1, #1
    1ad4:	ea41 71d3 	orrcc.w	r1, r1, r3, lsr #31
    1ad8:	005b      	lslcc	r3, r3, #1
    1ada:	ea40 0001 	orr.w	r0, r0, r1
    1ade:	f162 027f 	sbc.w	r2, r2, #127	; 0x7f
    1ae2:	2afd      	cmp	r2, #253	; 0xfd
    1ae4:	d81d      	bhi.n	1b22 <__aeabi_fmul+0x92>
    1ae6:	f1b3 4f00 	cmp.w	r3, #2147483648	; 0x80000000
    1aea:	eb40 50c2 	adc.w	r0, r0, r2, lsl #23
    1aee:	bf08      	it	eq
    1af0:	f020 0001 	biceq.w	r0, r0, #1
    1af4:	4770      	bx	lr
    1af6:	f090 0f00 	teq	r0, #0
    1afa:	f00c 4c00 	and.w	r12, r12, #2147483648	; 0x80000000
    1afe:	bf08      	it	eq
    1b00:	0249      	lsleq	r1, r1, #9
    1b02:	ea4c 2050 	orr.w	r0, r12, r0, lsr #9
    1b06:	ea40 2051 	orr.w	r0, r0, r1, lsr #9
    1b0a:	3a7f      	subs	r2, #127	; 0x7f
    1b0c:	bfc2      	ittt	gt
    1b0e:	f1d2 03ff 	rsbsgt	r3, r2, #255	; 0xff
    1b12:	ea40 50c2 	orrgt.w	r0, r0, r2, lsl #23
    1b16:	4770      	bxgt	lr
    1b18:	f440 0000 	orr.w	r0, r0, #8388608	; 0x800000
    1b1c:	f04f 0300 	mov.w	r3, #0
    1b20:	3a01      	subs	r2, #1
    1b22:	dc5d      	bgt.n	1be0 <__aeabi_fmul+0x150>
    1b24:	f112 0f19 	cmn.w	r2, #25
    1b28:	bfdc      	itt	le
    1b2a:	f000 4000 	andle.w	r0, r0, #2147483648	; 0x80000000
    1b2e:	4770      	bxle	lr
    1b30:	f1c2 0200 	rsb	r2, r2, #0
    1b34:	0041      	lsls	r1, r0, #1
    1b36:	fa21 f102 	lsr.w	r1, r1, r2
    1b3a:	f1c2 0220 	rsb	r2, r2, #32
    1b3e:	fa00 fc02 	lsl.w	r12, r0, r2
    1b42:	ea5f 0031 	movs.w	r0, r1, rrx
    1b46:	f140 0000 	adc.w	r0, r0, #0
    1b4a:	ea53 034c 	orrs.w	r3, r3, r12, lsl #1
    1b4e:	bf08      	it	eq
    1b50:	ea20 70dc 	biceq.w	r0, r0, r12, lsr #31
    1b54:	4770      	bx	lr
    1b56:	f092 0f00 	teq	r2, #0
    1b5a:	f000 4c00 	and.w	r12, r0, #2147483648	; 0x80000000
    1b5e:	bf02      	ittt	eq
    1b60:	0040      	lsleq	r0, r0, #1
    1b62:	f410 0f00 	tsteq.w	r0, #8388608	; 0x800000
    1b66:	3a01      	subeq	r2, #1
    1b68:	d0f9      	beq.n	1b5e <__aeabi_fmul+0xce>
    1b6a:	ea40 000c 	orr.w	r0, r0, r12
    1b6e:	f093 0f00 	teq	r3, #0
    1b72:	f001 4c00 	and.w	r12, r1, #2147483648	; 0x80000000
    1b76:	bf02      	ittt	eq
    1b78:	0049      	lsleq	r1, r1, #1
    1b7a:	f411 0f00 	tsteq.w	r1, #8388608	; 0x800000
    1b7e:	3b01      	subeq	r3, #1
    1b80:	d0f9      	beq.n	1b76 <__aeabi_fmul+0xe6>
    1b82:	ea41 010c 	orr.w	r1, r1, r12
    1b86:	e78f      	b.n	1aa8 <__aeabi_fmul+0x18>
    1b88:	ea0c 53d1 	and.w	r3, r12, r1, lsr #23
    1b8c:	ea92 0f0c 	teq	r2, r12
    1b90:	bf18      	it	ne
    1b92:	ea93 0f0c 	teqne	r3, r12
    1b96:	d00a      	beq.n	1bae <__aeabi_fmul+0x11e>
    1b98:	f030 4c00 	bics.w	r12, r0, #2147483648	; 0x80000000
    1b9c:	bf18      	it	ne
    1b9e:	f031 4c00 	bicsne.w	r12, r1, #2147483648	; 0x80000000
    1ba2:	d1d8      	bne.n	1b56 <__aeabi_fmul+0xc6>
    1ba4:	ea80 0001 	eor.w	r0, r0, r1
    1ba8:	f000 4000 	and.w	r0, r0, #2147483648	; 0x80000000
    1bac:	4770      	bx	lr
    1bae:	f090 0f00 	teq	r0, #0
    1bb2:	bf17      	itett	ne
    1bb4:	f090 4f00 	teqne	r0, #2147483648	; 0x80000000
    1bb8:	4608      	moveq	r0, r1
    1bba:	f091 0f00 	teqne	r1, #0
    1bbe:	f091 4f00 	teqne	r1, #2147483648	; 0x80000000
    1bc2:	d014      	beq.n	1bee <__aeabi_fmul+0x15e>
    1bc4:	ea92 0f0c 	teq	r2, r12
    1bc8:	d101      	bne.n	1bce <__aeabi_fmul+0x13e>
    1bca:	0242      	lsls	r2, r0, #9
    1bcc:	d10f      	bne.n	1bee <__aeabi_fmul+0x15e>
    1bce:	ea93 0f0c 	teq	r3, r12
    1bd2:	d103      	bne.n	1bdc <__aeabi_fmul+0x14c>
    1bd4:	024b      	lsls	r3, r1, #9
    1bd6:	bf18      	it	ne
    1bd8:	4608      	movne	r0, r1
    1bda:	d108      	bne.n	1bee <__aeabi_fmul+0x15e>
    1bdc:	ea80 0001 	eor.w	r0, r0, r1
    1be0:	f000 4000 	and.w	r0, r0, #2147483648	; 0x80000000
    1be4:	f040 40fe 	orr.w	r0, r0, #2130706432	; 0x7f000000
    1be8:	f440 0000 	orr.w	r0, r0, #8388608	; 0x800000
    1bec:	4770      	bx	lr
    1bee:	f040 40fe 	orr.w	r0, r0, #2130706432	; 0x7f000000
    1bf2:	f440 0040 	orr.w	r0, r0, #12582912	; 0xc00000
    1bf6:	4770      	bx	lr

00001bf8 <__aeabi_fdiv>:
    1bf8:	f04f 0cff 	mov.w	r12, #255	; 0xff
    1bfc:	ea1c 52d0 	ands.w	r2, r12, r0, lsr #23
    1c00:	bf1e      	ittt	ne
    1c02:	ea1c 53d1 	andsne.w	r3, r12, r1, lsr #23
    1c06:	ea92 0f0c 	teqne	r2, r12
    1c0a:	ea93 0f0c 	teqne	r3, r12
    1c0e:	d069      	beq.n	1ce4 <__aeabi_fdiv+0xec>
    1c10:	eba2 0203 	sub.w	r2, r2, r3
    1c14:	ea80 0c01 	eor.w	r12, r0, r1
    1c18:	0249      	lsls	r1, r1, #9
    1c1a:	ea4f 2040 	mov.w	r0, r0, lsl #9
    1c1e:	d037      	beq.n	1c90 <__aeabi_fdiv+0x98>
    1c20:	f04f 5380 	mov.w	r3, #268435456	; 0x10000000
    1c24:	ea43 1111 	orr.w	r1, r3, r1, lsr #4
    1c28:	ea43 1310 	orr.w	r3, r3, r0, lsr #4
    1c2c:	f00c 4000 	and.w	r0, r12, #2147483648	; 0x80000000
    1c30:	428b      	cmp	r3, r1
    1c32:	bf38      	it	cc
    1c34:	005b      	lslcc	r3, r3, #1
    1c36:	f142 027d 	adc.w	r2, r2, #125	; 0x7d
    1c3a:	f44f 0c00 	mov.w	r12, #8388608	; 0x800000
    1c3e:	428b      	cmp	r3, r1
    1c40:	bf24      	itt	cs
    1c42:	1a5b      	subcs	r3, r3, r1
    1c44:	ea40 000c 	orrcs.w	r0, r0, r12
    1c48:	ebb3 0f51 	cmp.w	r3, r1, lsr #1
    1c4c:	bf24      	itt	cs
    1c4e:	eba3 0351 	subcs.w	r3, r3, r1, lsr #1
    1c52:	ea40 005c 	orrcs.w	r0, r0, r12, lsr #1
    1c56:	ebb3 0f91 	cmp.w	r3, r1, lsr #2
    1c5a:	bf24      	itt	cs
    1c5c:	eba3 0391 	subcs.w	r3, r3, r1, lsr #2
    1c60:	ea40 009c 	orrcs.w	r0, r0, r12, lsr #2
    1c64:	ebb3 0fd1 	cmp.w	r3, r1, lsr #3
    1c68:	bf24      	itt	cs
    1c6a:	eba3 03d1 	subcs.w	r3, r3, r1, lsr #3
    1c6e:	ea40 00dc 	orrcs.w	r0, r0, r12, lsr #3
    1c72:	011b      	lsls	r3, r3, #4
    1c74:	bf18      	it	ne
    1c76:	ea5f 1c1c 	movsne.w	r12, r12, lsr #4
    1c7a:	d1e0      	bne.n	1c3e <__aeabi_fdiv+0x46>
    1c7c:	2afd      	cmp	r2, #253	; 0xfd
    1c7e:	f63f af50 	bhi.w	1b22 <__aeabi_fmul+0x92>
    1c82:	428b      	cmp	r3, r1
    1c84:	eb40 50c2 	adc.w	r0, r0, r2, lsl #23
    1c88:	bf08      	it	eq
    1c8a:	f020 0001 	biceq.w	r0, r0, #1
    1c8e:	4770      	bx	lr
    1c90:	f00c 4c00 	and.w	r12, r12, #2147483648	; 0x80000000
    1c94:	ea4c 2050 	orr.w	r0, r12, r0, lsr #9
    1c98:	327f      	adds	r2, #127	; 0x7f
    1c9a:	bfc2      	ittt	gt
    1c9c:	f1d2 03ff 	rsbsgt	r3, r2, #255	; 0xff
    1ca0:	ea40 50c2 	orrgt.w	r0, r0, r2, lsl #23
    1ca4:	4770      	bxgt	lr
    1ca6:	f440 0000 	orr.w	r0, r0, #8388608	; 0x800000
    1caa:	f04f 0300 	mov.w	r3, #0
    1cae:	3a01      	subs	r2, #1
    1cb0:	e737      	b.n	1b22 <__aeabi_fmul+0x92>
    1cb2:	f092 0f00 	teq	r2, #0
    1cb6:	f000 4c00 	and.w	r12, r0, #2147483648	; 0x80000000
    1cba:	bf02      	ittt	eq
    1cbc:	0040      	lsleq	r0, r0, #1
    1cbe:	f410 0f00 	tsteq.w	r0, #8388608	; 0x800000
    1cc2:	3a01      	subeq	r2, #1
    1cc4:	d0f9      	beq.n	1cba <__aeabi_fdiv+0xc2>
    1cc6:	ea40 000c 	orr.w	r0, r0, r12
    1cca:	f093 0f00 	teq	r3, #0
    1cce:	f001 4c00 	and.w	r12, r1, #2147483648	; 0x80000000
    1cd2:	bf02      	ittt	eq
    1cd4:	0049      	lsleq	r1, r1, #1
    1cd6:	f411 0f00 	tsteq.w	r1, #8388608	; 0x800000
    1cda:	3b01      	subeq	r3, #1
    1cdc:	d0f9      	beq.n	1cd2 <__aeabi_fdiv+0xda>
    1cde:	ea41 010c 	orr.w	r1, r1, r12
    1ce2:	e795      	b.n	1c10 <__aeabi_fdiv+0x18>
    1ce4:	ea0c 53d1 	and.w	r3, r12, r1, lsr #23
    1ce8:	ea92 0f0c 	teq	r2, r12
    1cec:	d108      	bne.n	1d00 <__aeabi_fdiv+0x108>
    1cee:	0242      	lsls	r2, r0, #9
    1cf0:	f47f af7d 	bne.w	1bee <__aeabi_fmul+0x15e>
    1cf4:	ea93 0f0c 	teq	r3, r12
    1cf8:	f47f af70 	bne.w	1bdc <__aeabi_fmul+0x14c>
    1cfc:	4608      	mov	r0, r1
    1cfe:	e776      	b.n	1bee <__aeabi_fmul+0x15e>
    1d00:	ea93 0f0c 	teq	r3, r12
    1d04:	d104      	bne.n	1d10 <__aeabi_fdiv+0x118>
    1d06:	024b      	lsls	r3, r1, #9
    1d08:	f43f af4c 	beq.w	1ba4 <__aeabi_fmul+0x114>
    1d0c:	4608      	mov	r0, r1
    1d0e:	e76e      	b.n	1bee <__aeabi_fmul+0x15e>
    1d10:	f030 4c00 	bics.w	r12, r0, #2147483648	; 0x80000000
    1d14:	bf18      	it	ne
    1d16:	f031 4c00 	bicsne.w	r12, r1, #2147483648	; 0x80000000
    1d1a:	d1ca      	bne.n	1cb2 <__aeabi_fdiv+0xba>
    1d1c:	f030 4200 	bics.w	r2, r0, #2147483648	; 0x80000000
    1d20:	f47f af5c 	bne.w	1bdc <__aeabi_fmul+0x14c>
    1d24:	f031 4300 	bics.w	r3, r1, #2147483648	; 0x80000000
    1d28:	f47f af3c 	bne.w	1ba4 <__aeabi_fmul+0x114>
    1d2c:	e75f      	b.n	1bee <__aeabi_fmul+0x15e>
    1d2e:	bf00      	nop

00001d30 <__gesf2>:
    1d30:	f04f 3cff 	mov.w	r12, #4294967295
    1d34:	e006      	b.n	1d44 <__cmpsf2+0x4>
    1d36:	bf00      	nop

00001d38 <__lesf2>:
    1d38:	f04f 0c01 	mov.w	r12, #1
    1d3c:	e002      	b.n	1d44 <__cmpsf2+0x4>
    1d3e:	bf00      	nop

00001d40 <__cmpsf2>:
    1d40:	f04f 0c01 	mov.w	r12, #1
    1d44:	f84d cd04 	str.w	r12, [sp, #-4]!
    1d48:	ea4f 0240 	mov.w	r2, r0, lsl #1
    1d4c:	ea4f 0341 	mov.w	r3, r1, lsl #1
    1d50:	ea7f 6c22 	mvns.w	r12, r2, asr #24
    1d54:	bf18      	it	ne
    1d56:	ea7f 6c23 	mvnsne.w	r12, r3, asr #24
    1d5a:	d011      	beq.n	1d80 <__cmpsf2+0x40>
    1d5c:	b001      	add	sp, #4
    1d5e:	ea52 0c53 	orrs.w	r12, r2, r3, lsr #1
    1d62:	bf18      	it	ne
    1d64:	ea90 0f01 	teqne	r0, r1
    1d68:	bf58      	it	pl
    1d6a:	ebb2 0003 	subspl.w	r0, r2, r3
    1d6e:	bf88      	it	hi
    1d70:	17c8      	asrhi	r0, r1, #31
    1d72:	bf38      	it	cc
    1d74:	ea6f 70e1 	mvncc.w	r0, r1, asr #31
    1d78:	bf18      	it	ne
    1d7a:	f040 0001 	orrne.w	r0, r0, #1
    1d7e:	4770      	bx	lr
    1d80:	ea7f 6c22 	mvns.w	r12, r2, asr #24
    1d84:	d102      	bne.n	1d8c <__cmpsf2+0x4c>
    1d86:	ea5f 2c40 	movs.w	r12, r0, lsl #9
    1d8a:	d105      	bne.n	1d98 <__cmpsf2+0x58>
    1d8c:	ea7f 6c23 	mvns.w	r12, r3, asr #24
    1d90:	d1e4      	bne.n	1d5c <__cmpsf2+0x1c>
    1d92:	ea5f 2c41 	movs.w	r12, r1, lsl #9
    1d96:	d0e1      	beq.n	1d5c <__cmpsf2+0x1c>
    1d98:	f85d 0b04 	ldr.w	r0, [sp], #4
    1d9c:	4770      	bx	lr
    1d9e:	bf00      	nop

00001da0 <__aeabi_cfrcmple>:
    1da0:	4684      	mov	r12, r0
    1da2:	4608      	mov	r0, r1
    1da4:	4661      	mov	r1, r12
    1da6:	e7ff      	b.n	1da8 <__aeabi_cfcmpeq>

00001da8 <__aeabi_cfcmpeq>:
    1da8:	b50f      	push	{r0, r1, r2, r3, lr}
    1daa:	f7ff ffc9 	bl	1d40 <__cmpsf2>
    1dae:	2800      	cmp	r0, #0
    1db0:	bf48      	it	mi
    1db2:	f110 0f00 	cmnmi.w	r0, #0
    1db6:	bd0f      	pop	{r0, r1, r2, r3, pc}

00001db8 <__aeabi_fcmpeq>:
    1db8:	f84d ed08 	str.w	lr, [sp, #-8]!
    1dbc:	f7ff fff4 	bl	1da8 <__aeabi_cfcmpeq>
    1dc0:	bf0c      	ite	eq
    1dc2:	2001      	moveq	r0, #1
    1dc4:	2000      	movne	r0, #0
    1dc6:	f85d fb08 	ldr.w	pc, [sp], #8
    1dca:	bf00      	nop

00001dcc <__aeabi_fcmplt>:
    1dcc:	f84d ed08 	str.w	lr, [sp, #-8]!
    1dd0:	f7ff ffea 	bl	1da8 <__aeabi_cfcmpeq>
    1dd4:	bf34      	ite	cc
    1dd6:	2001      	movcc	r0, #1
    1dd8:	2000      	movcs	r0, #0
    1dda:	f85d fb08 	ldr.w	pc, [sp], #8
    1dde:	bf00      	nop

00001de0 <__aeabi_fcmple>:
    1de0:	f84d ed08 	str.w	lr, [sp, #-8]!
    1de4:	f7ff ffe0 	bl	1da8 <__aeabi_cfcmpeq>
    1de8:	bf94      	ite	ls
    1dea:	2001      	movls	r0, #1
    1dec:	2000      	movhi	r0, #0
    1dee:	f85d fb08 	ldr.w	pc, [sp], #8
    1df2:	bf00      	nop

00001df4 <__aeabi_fcmpge>:
    1df4:	f84d ed08 	str.w	lr, [sp, #-8]!
    1df8:	f7ff ffd2 	bl	1da0 <__aeabi_cfrcmple>
    1dfc:	bf94      	ite	ls
    1dfe:	2001      	movls	r0, #1
    1e00:	2000      	movhi	r0, #0
    1e02:	f85d fb08 	ldr.w	pc, [sp], #8
    1e06:	bf00      	nop

00001e08 <__aeabi_fcmpgt>:
    1e08:	f84d ed08 	str.w	lr, [sp, #-8]!
    1e0c:	f7ff ffc8 	bl	1da0 <__aeabi_cfrcmple>
    1e10:	bf34      	ite	cc
    1e12:	2001      	movcc	r0, #1
    1e14:	2000      	movcs	r0, #0
    1e16:	f85d fb08 	ldr.w	pc, [sp], #8
    1e1a:	bf00      	nop

00001e1c <__aeabi_f2iz>:
    1e1c:	ea4f 0240 	mov.w	r2, r0, lsl #1
    1e20:	f1b2 4ffe 	cmp.w	r2, #2130706432	; 0x7f000000
    1e24:	d30f      	bcc.n	1e46 <__aeabi_f2iz+0x2a>
    1e26:	f04f 039e 	mov.w	r3, #158	; 0x9e
    1e2a:	ebb3 6212 	subs.w	r2, r3, r2, lsr #24
    1e2e:	d90d      	bls.n	1e4c <__aeabi_f2iz+0x30>
    1e30:	ea4f 2300 	mov.w	r3, r0, lsl #8
    1e34:	f043 4300 	orr.w	r3, r3, #2147483648	; 0x80000000
    1e38:	f010 4f00 	tst.w	r0, #2147483648	; 0x80000000
    1e3c:	fa23 f002 	lsr.w	r0, r3, r2
    1e40:	bf18      	it	ne
    1e42:	4240      	negne	r0, r0
    1e44:	4770      	bx	lr
    1e46:	f04f 0000 	mov.w	r0, #0
    1e4a:	4770      	bx	lr
    1e4c:	f112 0f61 	cmn.w	r2, #97	; 0x61
    1e50:	d101      	bne.n	1e56 <__aeabi_f2iz+0x3a>
    1e52:	0242      	lsls	r2, r0, #9
    1e54:	d105      	bne.n	1e62 <__aeabi_f2iz+0x46>
    1e56:	f010 4000 	ands.w	r0, r0, #2147483648	; 0x80000000
    1e5a:	bf08      	it	eq
    1e5c:	f06f 4000 	mvneq.w	r0, #2147483648	; 0x80000000
    1e60:	4770      	bx	lr
    1e62:	f04f 0000 	mov.w	r0, #0
    1e66:	4770      	bx	lr

00001e68 <__aeabi_f2uiz>:
    1e68:	0042      	lsls	r2, r0, #1
    1e6a:	d20e      	bcs.n	1e8a <__aeabi_f2uiz+0x22>
    1e6c:	f1b2 4ffe 	cmp.w	r2, #2130706432	; 0x7f000000
    1e70:	d30b      	bcc.n	1e8a <__aeabi_f2uiz+0x22>
    1e72:	f04f 039e 	mov.w	r3, #158	; 0x9e
    1e76:	ebb3 6212 	subs.w	r2, r3, r2, lsr #24
    1e7a:	d409      	bmi.n	1e90 <__aeabi_f2uiz+0x28>
    1e7c:	ea4f 2300 	mov.w	r3, r0, lsl #8
    1e80:	f043 4300 	orr.w	r3, r3, #2147483648	; 0x80000000
    1e84:	fa23 f002 	lsr.w	r0, r3, r2
    1e88:	4770      	bx	lr
    1e8a:	f04f 0000 	mov.w	r0, #0
    1e8e:	4770      	bx	lr
    1e90:	f112 0f61 	cmn.w	r2, #97	; 0x61
    1e94:	d101      	bne.n	1e9a <__aeabi_f2uiz+0x32>
    1e96:	0242      	lsls	r2, r0, #9
    1e98:	d102      	bne.n	1ea0 <__aeabi_f2uiz+0x38>
    1e9a:	f04f 30ff 	mov.w	r0, #4294967295
    1e9e:	4770      	bx	lr
    1ea0:	f04f 0000 	mov.w	r0, #0
    1ea4:	4770      	bx	lr
    1ea6:	bf00      	nop

00001ea8 <__errno>:
    1ea8:	4b01      	ldr	r3, [pc, #4]	; (1eb0 <__errno+0x8>)
    1eaa:	6818      	ldr	r0, [r3, #0]
    1eac:	4770      	bx	lr
    1eae:	bf00      	nop
    1eb0:	1000014c 	.word	0x1000014c

00001eb4 <exit>:
    1eb4:	b508      	push	{r3, lr}
    1eb6:	4b07      	ldr	r3, [pc, #28]	; (1ed4 <exit+0x20>)
    1eb8:	4604      	mov	r4, r0
    1eba:	b113      	cbz	r3, 1ec2 <exit+0xe>
    1ebc:	2100      	movs	r1, #0
    1ebe:	f3af 8000 	nop.w
    1ec2:	4b05      	ldr	r3, [pc, #20]	; (1ed8 <exit+0x24>)
    1ec4:	6818      	ldr	r0, [r3, #0]
    1ec6:	6a83      	ldr	r3, [r0, #40]	; 0x28
    1ec8:	b103      	cbz	r3, 1ecc <exit+0x18>
    1eca:	4798      	blx	r3
    1ecc:	4620      	mov	r0, r4
    1ece:	f7ff fab5 	bl	143c <_exit>
    1ed2:	bf00      	nop
    1ed4:	00000000 	.word	0x00000000
    1ed8:	00004df4 	.word	0x00004df4

00001edc <__sflush_r>:
    1edc:	898a      	ldrh	r2, [r1, #12]
    1ede:	e92d 41f0 	stmdb	sp!, {r4, r5, r6, r7, r8, lr}
    1ee2:	4605      	mov	r5, r0
    1ee4:	0710      	lsls	r0, r2, #28
    1ee6:	460c      	mov	r4, r1
    1ee8:	d459      	bmi.n	1f9e <__sflush_r+0xc2>
    1eea:	684b      	ldr	r3, [r1, #4]
    1eec:	2b00      	cmp	r3, #0
    1eee:	dc02      	bgt.n	1ef6 <__sflush_r+0x1a>
    1ef0:	6c0b      	ldr	r3, [r1, #64]	; 0x40
    1ef2:	2b00      	cmp	r3, #0
    1ef4:	dd17      	ble.n	1f26 <__sflush_r+0x4a>
    1ef6:	6ae6      	ldr	r6, [r4, #44]	; 0x2c
    1ef8:	b1ae      	cbz	r6, 1f26 <__sflush_r+0x4a>
    1efa:	f402 5280 	and.w	r2, r2, #4096	; 0x1000
    1efe:	2300      	movs	r3, #0
    1f00:	b292      	uxth	r2, r2
    1f02:	682f      	ldr	r7, [r5, #0]
    1f04:	602b      	str	r3, [r5, #0]
    1f06:	b10a      	cbz	r2, 1f0c <__sflush_r+0x30>
    1f08:	6d60      	ldr	r0, [r4, #84]	; 0x54
    1f0a:	e015      	b.n	1f38 <__sflush_r+0x5c>
    1f0c:	6a21      	ldr	r1, [r4, #32]
    1f0e:	2301      	movs	r3, #1
    1f10:	4628      	mov	r0, r5
    1f12:	47b0      	blx	r6
    1f14:	1c41      	adds	r1, r0, #1
    1f16:	d10f      	bne.n	1f38 <__sflush_r+0x5c>
    1f18:	682b      	ldr	r3, [r5, #0]
    1f1a:	b16b      	cbz	r3, 1f38 <__sflush_r+0x5c>
    1f1c:	2b1d      	cmp	r3, #29
    1f1e:	d001      	beq.n	1f24 <__sflush_r+0x48>
    1f20:	2b16      	cmp	r3, #22
    1f22:	d103      	bne.n	1f2c <__sflush_r+0x50>
    1f24:	602f      	str	r7, [r5, #0]
    1f26:	2000      	movs	r0, #0
    1f28:	e8bd 81f0 	ldmia.w	sp!, {r4, r5, r6, r7, r8, pc}
    1f2c:	89a3      	ldrh	r3, [r4, #12]
    1f2e:	f043 0340 	orr.w	r3, r3, #64	; 0x40
    1f32:	81a3      	strh	r3, [r4, #12]
    1f34:	e8bd 81f0 	ldmia.w	sp!, {r4, r5, r6, r7, r8, pc}
    1f38:	89a3      	ldrh	r3, [r4, #12]
    1f3a:	075a      	lsls	r2, r3, #29
    1f3c:	d505      	bpl.n	1f4a <__sflush_r+0x6e>
    1f3e:	6863      	ldr	r3, [r4, #4]
    1f40:	1ac0      	subs	r0, r0, r3
    1f42:	6b63      	ldr	r3, [r4, #52]	; 0x34
    1f44:	b10b      	cbz	r3, 1f4a <__sflush_r+0x6e>
    1f46:	6c23      	ldr	r3, [r4, #64]	; 0x40
    1f48:	1ac0      	subs	r0, r0, r3
    1f4a:	2300      	movs	r3, #0
    1f4c:	4602      	mov	r2, r0
    1f4e:	6ae6      	ldr	r6, [r4, #44]	; 0x2c
    1f50:	6a21      	ldr	r1, [r4, #32]
    1f52:	4628      	mov	r0, r5
    1f54:	47b0      	blx	r6
    1f56:	1c43      	adds	r3, r0, #1
    1f58:	89a3      	ldrh	r3, [r4, #12]
    1f5a:	d106      	bne.n	1f6a <__sflush_r+0x8e>
    1f5c:	6829      	ldr	r1, [r5, #0]
    1f5e:	291d      	cmp	r1, #29
    1f60:	d839      	bhi.n	1fd6 <__sflush_r+0xfa>
    1f62:	4a20      	ldr	r2, [pc, #128]	; (1fe4 <__sflush_r+0x108>)
    1f64:	40ca      	lsrs	r2, r1
    1f66:	07d6      	lsls	r6, r2, #31
    1f68:	d535      	bpl.n	1fd6 <__sflush_r+0xfa>
    1f6a:	2200      	movs	r2, #0
    1f6c:	6062      	str	r2, [r4, #4]
    1f6e:	6922      	ldr	r2, [r4, #16]
    1f70:	04d9      	lsls	r1, r3, #19
    1f72:	6022      	str	r2, [r4, #0]
    1f74:	d504      	bpl.n	1f80 <__sflush_r+0xa4>
    1f76:	1c42      	adds	r2, r0, #1
    1f78:	d101      	bne.n	1f7e <__sflush_r+0xa2>
    1f7a:	682b      	ldr	r3, [r5, #0]
    1f7c:	b903      	cbnz	r3, 1f80 <__sflush_r+0xa4>
    1f7e:	6560      	str	r0, [r4, #84]	; 0x54
    1f80:	6b61      	ldr	r1, [r4, #52]	; 0x34
    1f82:	602f      	str	r7, [r5, #0]
    1f84:	2900      	cmp	r1, #0
    1f86:	d0ce      	beq.n	1f26 <__sflush_r+0x4a>
    1f88:	f104 0344 	add.w	r3, r4, #68	; 0x44
    1f8c:	4299      	cmp	r1, r3
    1f8e:	d002      	beq.n	1f96 <__sflush_r+0xba>
    1f90:	4628      	mov	r0, r5
    1f92:	f000 f9cb 	bl	232c <_free_r>
    1f96:	2000      	movs	r0, #0
    1f98:	6360      	str	r0, [r4, #52]	; 0x34
    1f9a:	e8bd 81f0 	ldmia.w	sp!, {r4, r5, r6, r7, r8, pc}
    1f9e:	690f      	ldr	r7, [r1, #16]
    1fa0:	2f00      	cmp	r7, #0
    1fa2:	d0c0      	beq.n	1f26 <__sflush_r+0x4a>
    1fa4:	0793      	lsls	r3, r2, #30
    1fa6:	680e      	ldr	r6, [r1, #0]
    1fa8:	bf0c      	ite	eq
    1faa:	694b      	ldreq	r3, [r1, #20]
    1fac:	2300      	movne	r3, #0
    1fae:	ebc7 0806 	rsb	r8, r7, r6
    1fb2:	600f      	str	r7, [r1, #0]
    1fb4:	608b      	str	r3, [r1, #8]
    1fb6:	e002      	b.n	1fbe <__sflush_r+0xe2>
    1fb8:	4407      	add	r7, r0
    1fba:	ebc0 0808 	rsb	r8, r0, r8
    1fbe:	f1b8 0f00 	cmp.w	r8, #0
    1fc2:	ddb0      	ble.n	1f26 <__sflush_r+0x4a>
    1fc4:	4643      	mov	r3, r8
    1fc6:	463a      	mov	r2, r7
    1fc8:	6a21      	ldr	r1, [r4, #32]
    1fca:	4628      	mov	r0, r5
    1fcc:	6aa6      	ldr	r6, [r4, #40]	; 0x28
    1fce:	47b0      	blx	r6
    1fd0:	2800      	cmp	r0, #0
    1fd2:	dcf1      	bgt.n	1fb8 <__sflush_r+0xdc>
    1fd4:	89a3      	ldrh	r3, [r4, #12]
    1fd6:	f043 0340 	orr.w	r3, r3, #64	; 0x40
    1fda:	81a3      	strh	r3, [r4, #12]
    1fdc:	f04f 30ff 	mov.w	r0, #4294967295
    1fe0:	e8bd 81f0 	ldmia.w	sp!, {r4, r5, r6, r7, r8, pc}
    1fe4:	20400001 	.word	0x20400001

00001fe8 <_fflush_r>:
    1fe8:	b538      	push	{r3, r4, r5, lr}
    1fea:	690b      	ldr	r3, [r1, #16]
    1fec:	4605      	mov	r5, r0
    1fee:	460c      	mov	r4, r1
    1ff0:	b1db      	cbz	r3, 202a <_fflush_r+0x42>
    1ff2:	b118      	cbz	r0, 1ffc <_fflush_r+0x14>
    1ff4:	6983      	ldr	r3, [r0, #24]
    1ff6:	b90b      	cbnz	r3, 1ffc <_fflush_r+0x14>
    1ff8:	f000 f872 	bl	20e0 <__sinit>
    1ffc:	4b0c      	ldr	r3, [pc, #48]	; (2030 <_fflush_r+0x48>)
    1ffe:	429c      	cmp	r4, r3
    2000:	d101      	bne.n	2006 <_fflush_r+0x1e>
    2002:	686c      	ldr	r4, [r5, #4]
    2004:	e008      	b.n	2018 <_fflush_r+0x30>
    2006:	4b0b      	ldr	r3, [pc, #44]	; (2034 <_fflush_r+0x4c>)
    2008:	429c      	cmp	r4, r3
    200a:	d101      	bne.n	2010 <_fflush_r+0x28>
    200c:	68ac      	ldr	r4, [r5, #8]
    200e:	e003      	b.n	2018 <_fflush_r+0x30>
    2010:	4b09      	ldr	r3, [pc, #36]	; (2038 <_fflush_r+0x50>)
    2012:	429c      	cmp	r4, r3
    2014:	bf08      	it	eq
    2016:	68ec      	ldreq	r4, [r5, #12]
    2018:	f9b4 300c 	ldrsh.w	r3, [r4, #12]
    201c:	b12b      	cbz	r3, 202a <_fflush_r+0x42>
    201e:	4621      	mov	r1, r4
    2020:	4628      	mov	r0, r5
    2022:	e8bd 4038 	ldmia.w	sp!, {r3, r4, r5, lr}
    2026:	f7ff bf59 	b.w	1edc <__sflush_r>
    202a:	2000      	movs	r0, #0
    202c:	bd38      	pop	{r3, r4, r5, pc}
    202e:	bf00      	nop
    2030:	00004d90 	.word	0x00004d90
    2034:	00004db0 	.word	0x00004db0
    2038:	00004dd0 	.word	0x00004dd0

0000203c <fflush>:
    203c:	4601      	mov	r1, r0
    203e:	b920      	cbnz	r0, 204a <fflush+0xe>
    2040:	4b04      	ldr	r3, [pc, #16]	; (2054 <fflush+0x18>)
    2042:	4905      	ldr	r1, [pc, #20]	; (2058 <fflush+0x1c>)
    2044:	6818      	ldr	r0, [r3, #0]
    2046:	f000 b8b7 	b.w	21b8 <_fwalk_reent>
    204a:	4b04      	ldr	r3, [pc, #16]	; (205c <fflush+0x20>)
    204c:	6818      	ldr	r0, [r3, #0]
    204e:	f7ff bfcb 	b.w	1fe8 <_fflush_r>
    2052:	bf00      	nop
    2054:	00004df4 	.word	0x00004df4
    2058:	00001fe9 	.word	0x00001fe9
    205c:	1000014c 	.word	0x1000014c

00002060 <_cleanup_r>:
    2060:	4901      	ldr	r1, [pc, #4]	; (2068 <_cleanup_r+0x8>)
    2062:	f000 b8a9 	b.w	21b8 <_fwalk_reent>
    2066:	bf00      	nop
    2068:	00001fe9 	.word	0x00001fe9

0000206c <std.isra.0>:
    206c:	b510      	push	{r4, lr}
    206e:	4604      	mov	r4, r0
    2070:	2300      	movs	r3, #0
    2072:	6003      	str	r3, [r0, #0]
    2074:	6043      	str	r3, [r0, #4]
    2076:	6083      	str	r3, [r0, #8]
    2078:	8181      	strh	r1, [r0, #12]
    207a:	6643      	str	r3, [r0, #100]	; 0x64
    207c:	81c2      	strh	r2, [r0, #14]
    207e:	6103      	str	r3, [r0, #16]
    2080:	6143      	str	r3, [r0, #20]
    2082:	6183      	str	r3, [r0, #24]
    2084:	4619      	mov	r1, r3
    2086:	2208      	movs	r2, #8
    2088:	305c      	adds	r0, #92	; 0x5c
    208a:	f000 f946 	bl	231a <memset>
    208e:	4b05      	ldr	r3, [pc, #20]	; (20a4 <std.isra.0+0x38>)
    2090:	6224      	str	r4, [r4, #32]
    2092:	6263      	str	r3, [r4, #36]	; 0x24
    2094:	4b04      	ldr	r3, [pc, #16]	; (20a8 <std.isra.0+0x3c>)
    2096:	62a3      	str	r3, [r4, #40]	; 0x28
    2098:	4b04      	ldr	r3, [pc, #16]	; (20ac <std.isra.0+0x40>)
    209a:	62e3      	str	r3, [r4, #44]	; 0x2c
    209c:	4b04      	ldr	r3, [pc, #16]	; (20b0 <std.isra.0+0x44>)
    209e:	6323      	str	r3, [r4, #48]	; 0x30
    20a0:	bd10      	pop	{r4, pc}
    20a2:	bf00      	nop
    20a4:	00003061 	.word	0x00003061
    20a8:	00003083 	.word	0x00003083
    20ac:	000030bb 	.word	0x000030bb
    20b0:	000030df 	.word	0x000030df

000020b4 <__sfmoreglue>:
    20b4:	b570      	push	{r4, r5, r6, lr}
    20b6:	2368      	movs	r3, #104	; 0x68
    20b8:	1e4d      	subs	r5, r1, #1
    20ba:	435d      	muls	r5, r3
    20bc:	460e      	mov	r6, r1
    20be:	f105 0174 	add.w	r1, r5, #116	; 0x74
    20c2:	f000 f977 	bl	23b4 <_malloc_r>
    20c6:	4604      	mov	r4, r0
    20c8:	b140      	cbz	r0, 20dc <__sfmoreglue+0x28>
    20ca:	2100      	movs	r1, #0
    20cc:	e880 0042 	stmia.w	r0, {r1, r6}
    20d0:	300c      	adds	r0, #12
    20d2:	60a0      	str	r0, [r4, #8]
    20d4:	f105 0268 	add.w	r2, r5, #104	; 0x68
    20d8:	f000 f91f 	bl	231a <memset>
    20dc:	4620      	mov	r0, r4
    20de:	bd70      	pop	{r4, r5, r6, pc}

000020e0 <__sinit>:
    20e0:	6983      	ldr	r3, [r0, #24]
    20e2:	b510      	push	{r4, lr}
    20e4:	4604      	mov	r4, r0
    20e6:	bb33      	cbnz	r3, 2136 <__sinit+0x56>
    20e8:	6483      	str	r3, [r0, #72]	; 0x48
    20ea:	64c3      	str	r3, [r0, #76]	; 0x4c
    20ec:	6503      	str	r3, [r0, #80]	; 0x50
    20ee:	4b12      	ldr	r3, [pc, #72]	; (2138 <__sinit+0x58>)
    20f0:	4a12      	ldr	r2, [pc, #72]	; (213c <__sinit+0x5c>)
    20f2:	681b      	ldr	r3, [r3, #0]
    20f4:	6282      	str	r2, [r0, #40]	; 0x28
    20f6:	4298      	cmp	r0, r3
    20f8:	bf04      	itt	eq
    20fa:	2301      	moveq	r3, #1
    20fc:	6183      	streq	r3, [r0, #24]
    20fe:	f000 f81f 	bl	2140 <__sfp>
    2102:	6060      	str	r0, [r4, #4]
    2104:	4620      	mov	r0, r4
    2106:	f000 f81b 	bl	2140 <__sfp>
    210a:	60a0      	str	r0, [r4, #8]
    210c:	4620      	mov	r0, r4
    210e:	f000 f817 	bl	2140 <__sfp>
    2112:	2200      	movs	r2, #0
    2114:	60e0      	str	r0, [r4, #12]
    2116:	2104      	movs	r1, #4
    2118:	6860      	ldr	r0, [r4, #4]
    211a:	f7ff ffa7 	bl	206c <std.isra.0>
    211e:	2201      	movs	r2, #1
    2120:	2109      	movs	r1, #9
    2122:	68a0      	ldr	r0, [r4, #8]
    2124:	f7ff ffa2 	bl	206c <std.isra.0>
    2128:	2202      	movs	r2, #2
    212a:	2112      	movs	r1, #18
    212c:	68e0      	ldr	r0, [r4, #12]
    212e:	f7ff ff9d 	bl	206c <std.isra.0>
    2132:	2301      	movs	r3, #1
    2134:	61a3      	str	r3, [r4, #24]
    2136:	bd10      	pop	{r4, pc}
    2138:	00004df4 	.word	0x00004df4
    213c:	00002061 	.word	0x00002061

00002140 <__sfp>:
    2140:	b5f8      	push	{r3, r4, r5, r6, r7, lr}
    2142:	4b1c      	ldr	r3, [pc, #112]	; (21b4 <__sfp+0x74>)
    2144:	4607      	mov	r7, r0
    2146:	681e      	ldr	r6, [r3, #0]
    2148:	69b3      	ldr	r3, [r6, #24]
    214a:	b913      	cbnz	r3, 2152 <__sfp+0x12>
    214c:	4630      	mov	r0, r6
    214e:	f7ff ffc7 	bl	20e0 <__sinit>
    2152:	3648      	adds	r6, #72	; 0x48
    2154:	68b4      	ldr	r4, [r6, #8]
    2156:	6873      	ldr	r3, [r6, #4]
    2158:	3b01      	subs	r3, #1
    215a:	d404      	bmi.n	2166 <__sfp+0x26>
    215c:	f9b4 500c 	ldrsh.w	r5, [r4, #12]
    2160:	b17d      	cbz	r5, 2182 <__sfp+0x42>
    2162:	3468      	adds	r4, #104	; 0x68
    2164:	e7f8      	b.n	2158 <__sfp+0x18>
    2166:	6833      	ldr	r3, [r6, #0]
    2168:	b10b      	cbz	r3, 216e <__sfp+0x2e>
    216a:	6836      	ldr	r6, [r6, #0]
    216c:	e7f2      	b.n	2154 <__sfp+0x14>
    216e:	2104      	movs	r1, #4
    2170:	4638      	mov	r0, r7
    2172:	f7ff ff9f 	bl	20b4 <__sfmoreglue>
    2176:	6030      	str	r0, [r6, #0]
    2178:	2800      	cmp	r0, #0
    217a:	d1f6      	bne.n	216a <__sfp+0x2a>
    217c:	230c      	movs	r3, #12
    217e:	603b      	str	r3, [r7, #0]
    2180:	bdf8      	pop	{r3, r4, r5, r6, r7, pc}
    2182:	f64f 73ff 	movw	r3, #65535	; 0xffff
    2186:	81e3      	strh	r3, [r4, #14]
    2188:	2301      	movs	r3, #1
    218a:	81a3      	strh	r3, [r4, #12]
    218c:	6665      	str	r5, [r4, #100]	; 0x64
    218e:	6025      	str	r5, [r4, #0]
    2190:	60a5      	str	r5, [r4, #8]
    2192:	6065      	str	r5, [r4, #4]
    2194:	6125      	str	r5, [r4, #16]
    2196:	6165      	str	r5, [r4, #20]
    2198:	61a5      	str	r5, [r4, #24]
    219a:	2208      	movs	r2, #8
    219c:	4629      	mov	r1, r5
    219e:	f104 005c 	add.w	r0, r4, #92	; 0x5c
    21a2:	f000 f8ba 	bl	231a <memset>
    21a6:	6365      	str	r5, [r4, #52]	; 0x34
    21a8:	63a5      	str	r5, [r4, #56]	; 0x38
    21aa:	64a5      	str	r5, [r4, #72]	; 0x48
    21ac:	64e5      	str	r5, [r4, #76]	; 0x4c
    21ae:	4620      	mov	r0, r4
    21b0:	bdf8      	pop	{r3, r4, r5, r6, r7, pc}
    21b2:	bf00      	nop
    21b4:	00004df4 	.word	0x00004df4

000021b8 <_fwalk_reent>:
    21b8:	e92d 43f8 	stmdb	sp!, {r3, r4, r5, r6, r7, r8, r9, lr}
    21bc:	4680      	mov	r8, r0
    21be:	4689      	mov	r9, r1
    21c0:	f100 0448 	add.w	r4, r0, #72	; 0x48
    21c4:	2600      	movs	r6, #0
    21c6:	b194      	cbz	r4, 21ee <_fwalk_reent+0x36>
    21c8:	68a5      	ldr	r5, [r4, #8]
    21ca:	6867      	ldr	r7, [r4, #4]
    21cc:	3f01      	subs	r7, #1
    21ce:	d40c      	bmi.n	21ea <_fwalk_reent+0x32>
    21d0:	89ab      	ldrh	r3, [r5, #12]
    21d2:	2b01      	cmp	r3, #1
    21d4:	d907      	bls.n	21e6 <_fwalk_reent+0x2e>
    21d6:	f9b5 300e 	ldrsh.w	r3, [r5, #14]
    21da:	3301      	adds	r3, #1
    21dc:	d003      	beq.n	21e6 <_fwalk_reent+0x2e>
    21de:	4629      	mov	r1, r5
    21e0:	4640      	mov	r0, r8
    21e2:	47c8      	blx	r9
    21e4:	4306      	orrs	r6, r0
    21e6:	3568      	adds	r5, #104	; 0x68
    21e8:	e7f0      	b.n	21cc <_fwalk_reent+0x14>
    21ea:	6824      	ldr	r4, [r4, #0]
    21ec:	e7eb      	b.n	21c6 <_fwalk_reent+0xe>
    21ee:	4630      	mov	r0, r6
    21f0:	e8bd 83f8 	ldmia.w	sp!, {r3, r4, r5, r6, r7, r8, r9, pc}

000021f4 <__libc_init_array>:
    21f4:	4b0e      	ldr	r3, [pc, #56]	; (2230 <__libc_init_array+0x3c>)
    21f6:	b570      	push	{r4, r5, r6, lr}
    21f8:	461e      	mov	r6, r3
    21fa:	4c0e      	ldr	r4, [pc, #56]	; (2234 <__libc_init_array+0x40>)
    21fc:	2500      	movs	r5, #0
    21fe:	1ae4      	subs	r4, r4, r3
    2200:	10a4      	asrs	r4, r4, #2
    2202:	42a5      	cmp	r5, r4
    2204:	d004      	beq.n	2210 <__libc_init_array+0x1c>
    2206:	f856 3025 	ldr.w	r3, [r6, r5, lsl #2]
    220a:	4798      	blx	r3
    220c:	3501      	adds	r5, #1
    220e:	e7f8      	b.n	2202 <__libc_init_array+0xe>
    2210:	f002 fc42 	bl	4a98 <_init>
    2214:	4b08      	ldr	r3, [pc, #32]	; (2238 <__libc_init_array+0x44>)
    2216:	4c09      	ldr	r4, [pc, #36]	; (223c <__libc_init_array+0x48>)
    2218:	461e      	mov	r6, r3
    221a:	1ae4      	subs	r4, r4, r3
    221c:	10a4      	asrs	r4, r4, #2
    221e:	2500      	movs	r5, #0
    2220:	42a5      	cmp	r5, r4
    2222:	d004      	beq.n	222e <__libc_init_array+0x3a>
    2224:	f856 3025 	ldr.w	r3, [r6, r5, lsl #2]
    2228:	4798      	blx	r3
    222a:	3501      	adds	r5, #1
    222c:	e7f8      	b.n	2220 <__libc_init_array+0x2c>
    222e:	bd70      	pop	{r4, r5, r6, pc}
    2230:	10000188 	.word	0x10000188
    2234:	10000188 	.word	0x10000188
    2238:	10000188 	.word	0x10000188
    223c:	10000190 	.word	0x10000190

00002240 <__smakebuf_r>:
    2240:	b5f0      	push	{r4, r5, r6, r7, lr}
    2242:	898b      	ldrh	r3, [r1, #12]
    2244:	b091      	sub	sp, #68	; 0x44
    2246:	079d      	lsls	r5, r3, #30
    2248:	4606      	mov	r6, r0
    224a:	460c      	mov	r4, r1
    224c:	d425      	bmi.n	229a <__smakebuf_r+0x5a>
    224e:	f9b1 100e 	ldrsh.w	r1, [r1, #14]
    2252:	2900      	cmp	r1, #0
    2254:	da08      	bge.n	2268 <__smakebuf_r+0x28>
    2256:	89a3      	ldrh	r3, [r4, #12]
    2258:	2500      	movs	r5, #0
    225a:	f013 0f80 	tst.w	r3, #128	; 0x80
    225e:	bf14      	ite	ne
    2260:	2740      	movne	r7, #64	; 0x40
    2262:	f44f 6780 	moveq.w	r7, #1024	; 0x400
    2266:	e00d      	b.n	2284 <__smakebuf_r+0x44>
    2268:	aa01      	add	r2, sp, #4
    226a:	f001 fe4d 	bl	3f08 <_fstat_r>
    226e:	2800      	cmp	r0, #0
    2270:	dbf1      	blt.n	2256 <__smakebuf_r+0x16>
    2272:	9d02      	ldr	r5, [sp, #8]
    2274:	f44f 6780 	mov.w	r7, #1024	; 0x400
    2278:	f405 4570 	and.w	r5, r5, #61440	; 0xf000
    227c:	f5a5 5100 	sub.w	r1, r5, #8192	; 0x2000
    2280:	424d      	negs	r5, r1
    2282:	414d      	adcs	r5, r1
    2284:	4639      	mov	r1, r7
    2286:	4630      	mov	r0, r6
    2288:	f000 f894 	bl	23b4 <_malloc_r>
    228c:	b960      	cbnz	r0, 22a8 <__smakebuf_r+0x68>
    228e:	89a3      	ldrh	r3, [r4, #12]
    2290:	059a      	lsls	r2, r3, #22
    2292:	d41d      	bmi.n	22d0 <__smakebuf_r+0x90>
    2294:	f043 0302 	orr.w	r3, r3, #2
    2298:	81a3      	strh	r3, [r4, #12]
    229a:	f104 0347 	add.w	r3, r4, #71	; 0x47
    229e:	6023      	str	r3, [r4, #0]
    22a0:	6123      	str	r3, [r4, #16]
    22a2:	2301      	movs	r3, #1
    22a4:	6163      	str	r3, [r4, #20]
    22a6:	e013      	b.n	22d0 <__smakebuf_r+0x90>
    22a8:	4b0a      	ldr	r3, [pc, #40]	; (22d4 <__smakebuf_r+0x94>)
    22aa:	62b3      	str	r3, [r6, #40]	; 0x28
    22ac:	89a3      	ldrh	r3, [r4, #12]
    22ae:	6020      	str	r0, [r4, #0]
    22b0:	f043 0380 	orr.w	r3, r3, #128	; 0x80
    22b4:	81a3      	strh	r3, [r4, #12]
    22b6:	6120      	str	r0, [r4, #16]
    22b8:	6167      	str	r7, [r4, #20]
    22ba:	b14d      	cbz	r5, 22d0 <__smakebuf_r+0x90>
    22bc:	f9b4 100e 	ldrsh.w	r1, [r4, #14]
    22c0:	4630      	mov	r0, r6
    22c2:	f001 fe33 	bl	3f2c <_isatty_r>
    22c6:	b118      	cbz	r0, 22d0 <__smakebuf_r+0x90>
    22c8:	89a3      	ldrh	r3, [r4, #12]
    22ca:	f043 0301 	orr.w	r3, r3, #1
    22ce:	81a3      	strh	r3, [r4, #12]
    22d0:	b011      	add	sp, #68	; 0x44
    22d2:	bdf0      	pop	{r4, r5, r6, r7, pc}
    22d4:	00002061 	.word	0x00002061

000022d8 <malloc>:
    22d8:	4b02      	ldr	r3, [pc, #8]	; (22e4 <malloc+0xc>)
    22da:	4601      	mov	r1, r0
    22dc:	6818      	ldr	r0, [r3, #0]
    22de:	f000 b869 	b.w	23b4 <_malloc_r>
    22e2:	bf00      	nop
    22e4:	1000014c 	.word	0x1000014c

000022e8 <memchr>:
    22e8:	b510      	push	{r4, lr}
    22ea:	b2c9      	uxtb	r1, r1
    22ec:	4402      	add	r2, r0
    22ee:	4290      	cmp	r0, r2
    22f0:	4603      	mov	r3, r0
    22f2:	d005      	beq.n	2300 <memchr+0x18>
    22f4:	781c      	ldrb	r4, [r3, #0]
    22f6:	3001      	adds	r0, #1
    22f8:	428c      	cmp	r4, r1
    22fa:	d1f8      	bne.n	22ee <memchr+0x6>
    22fc:	4618      	mov	r0, r3
    22fe:	bd10      	pop	{r4, pc}
    2300:	2000      	movs	r0, #0
    2302:	bd10      	pop	{r4, pc}

00002304 <memcpy>:
    2304:	b510      	push	{r4, lr}
    2306:	1e43      	subs	r3, r0, #1
    2308:	440a      	add	r2, r1
    230a:	4291      	cmp	r1, r2
    230c:	d004      	beq.n	2318 <memcpy+0x14>
    230e:	f811 4b01 	ldrb.w	r4, [r1], #1
    2312:	f803 4f01 	strb.w	r4, [r3, #1]!
    2316:	e7f8      	b.n	230a <memcpy+0x6>
    2318:	bd10      	pop	{r4, pc}

0000231a <memset>:
    231a:	4603      	mov	r3, r0
    231c:	4402      	add	r2, r0
    231e:	4293      	cmp	r3, r2
    2320:	d002      	beq.n	2328 <memset+0xe>
    2322:	f803 1b01 	strb.w	r1, [r3], #1
    2326:	e7fa      	b.n	231e <memset+0x4>
    2328:	4770      	bx	lr
	...

0000232c <_free_r>:
    232c:	b530      	push	{r4, r5, lr}
    232e:	2900      	cmp	r1, #0
    2330:	d03c      	beq.n	23ac <_free_r+0x80>
    2332:	f851 2c04 	ldr.w	r2, [r1, #-4]
    2336:	1f0b      	subs	r3, r1, #4
    2338:	491d      	ldr	r1, [pc, #116]	; (23b0 <_free_r+0x84>)
    233a:	2a00      	cmp	r2, #0
    233c:	bfb8      	it	lt
    233e:	189b      	addlt	r3, r3, r2
    2340:	680a      	ldr	r2, [r1, #0]
    2342:	460c      	mov	r4, r1
    2344:	b912      	cbnz	r2, 234c <_free_r+0x20>
    2346:	605a      	str	r2, [r3, #4]
    2348:	600b      	str	r3, [r1, #0]
    234a:	bd30      	pop	{r4, r5, pc}
    234c:	429a      	cmp	r2, r3
    234e:	d90d      	bls.n	236c <_free_r+0x40>
    2350:	6819      	ldr	r1, [r3, #0]
    2352:	1858      	adds	r0, r3, r1
    2354:	4282      	cmp	r2, r0
    2356:	bf01      	itttt	eq
    2358:	6810      	ldreq	r0, [r2, #0]
    235a:	6852      	ldreq	r2, [r2, #4]
    235c:	1809      	addeq	r1, r1, r0
    235e:	6019      	streq	r1, [r3, #0]
    2360:	605a      	str	r2, [r3, #4]
    2362:	6023      	str	r3, [r4, #0]
    2364:	bd30      	pop	{r4, r5, pc}
    2366:	4299      	cmp	r1, r3
    2368:	d803      	bhi.n	2372 <_free_r+0x46>
    236a:	460a      	mov	r2, r1
    236c:	6851      	ldr	r1, [r2, #4]
    236e:	2900      	cmp	r1, #0
    2370:	d1f9      	bne.n	2366 <_free_r+0x3a>
    2372:	6814      	ldr	r4, [r2, #0]
    2374:	1915      	adds	r5, r2, r4
    2376:	429d      	cmp	r5, r3
    2378:	d10a      	bne.n	2390 <_free_r+0x64>
    237a:	681b      	ldr	r3, [r3, #0]
    237c:	4423      	add	r3, r4
    237e:	18d0      	adds	r0, r2, r3
    2380:	4281      	cmp	r1, r0
    2382:	6013      	str	r3, [r2, #0]
    2384:	d112      	bne.n	23ac <_free_r+0x80>
    2386:	6808      	ldr	r0, [r1, #0]
    2388:	4403      	add	r3, r0
    238a:	6013      	str	r3, [r2, #0]
    238c:	684b      	ldr	r3, [r1, #4]
    238e:	e00c      	b.n	23aa <_free_r+0x7e>
    2390:	d902      	bls.n	2398 <_free_r+0x6c>
    2392:	230c      	movs	r3, #12
    2394:	6003      	str	r3, [r0, #0]
    2396:	bd30      	pop	{r4, r5, pc}
    2398:	6818      	ldr	r0, [r3, #0]
    239a:	181c      	adds	r4, r3, r0
    239c:	42a1      	cmp	r1, r4
    239e:	bf01      	itttt	eq
    23a0:	680c      	ldreq	r4, [r1, #0]
    23a2:	6849      	ldreq	r1, [r1, #4]
    23a4:	1900      	addeq	r0, r0, r4
    23a6:	6018      	streq	r0, [r3, #0]
    23a8:	6059      	str	r1, [r3, #4]
    23aa:	6053      	str	r3, [r2, #4]
    23ac:	bd30      	pop	{r4, r5, pc}
    23ae:	bf00      	nop
    23b0:	100051dc 	.word	0x100051dc

000023b4 <_malloc_r>:
    23b4:	b570      	push	{r4, r5, r6, lr}
    23b6:	1ccd      	adds	r5, r1, #3
    23b8:	f025 0503 	bic.w	r5, r5, #3
    23bc:	3508      	adds	r5, #8
    23be:	2d0c      	cmp	r5, #12
    23c0:	bf38      	it	cc
    23c2:	250c      	movcc	r5, #12
    23c4:	2d00      	cmp	r5, #0
    23c6:	4606      	mov	r6, r0
    23c8:	da03      	bge.n	23d2 <_malloc_r+0x1e>
    23ca:	230c      	movs	r3, #12
    23cc:	6033      	str	r3, [r6, #0]
    23ce:	2000      	movs	r0, #0
    23d0:	bd70      	pop	{r4, r5, r6, pc}
    23d2:	42a9      	cmp	r1, r5
    23d4:	d8f9      	bhi.n	23ca <_malloc_r+0x16>
    23d6:	4b1f      	ldr	r3, [pc, #124]	; (2454 <_malloc_r+0xa0>)
    23d8:	681c      	ldr	r4, [r3, #0]
    23da:	461a      	mov	r2, r3
    23dc:	4621      	mov	r1, r4
    23de:	b1a1      	cbz	r1, 240a <_malloc_r+0x56>
    23e0:	680b      	ldr	r3, [r1, #0]
    23e2:	1b5b      	subs	r3, r3, r5
    23e4:	d40e      	bmi.n	2404 <_malloc_r+0x50>
    23e6:	2b0b      	cmp	r3, #11
    23e8:	d903      	bls.n	23f2 <_malloc_r+0x3e>
    23ea:	600b      	str	r3, [r1, #0]
    23ec:	18cc      	adds	r4, r1, r3
    23ee:	50cd      	str	r5, [r1, r3]
    23f0:	e01e      	b.n	2430 <_malloc_r+0x7c>
    23f2:	428c      	cmp	r4, r1
    23f4:	bf0b      	itete	eq
    23f6:	6863      	ldreq	r3, [r4, #4]
    23f8:	684b      	ldrne	r3, [r1, #4]
    23fa:	6013      	streq	r3, [r2, #0]
    23fc:	6063      	strne	r3, [r4, #4]
    23fe:	bf18      	it	ne
    2400:	460c      	movne	r4, r1
    2402:	e015      	b.n	2430 <_malloc_r+0x7c>
    2404:	460c      	mov	r4, r1
    2406:	6849      	ldr	r1, [r1, #4]
    2408:	e7e9      	b.n	23de <_malloc_r+0x2a>
    240a:	4c13      	ldr	r4, [pc, #76]	; (2458 <_malloc_r+0xa4>)
    240c:	6823      	ldr	r3, [r4, #0]
    240e:	b91b      	cbnz	r3, 2418 <_malloc_r+0x64>
    2410:	4630      	mov	r0, r6
    2412:	f000 fe15 	bl	3040 <_sbrk_r>
    2416:	6020      	str	r0, [r4, #0]
    2418:	4629      	mov	r1, r5
    241a:	4630      	mov	r0, r6
    241c:	f000 fe10 	bl	3040 <_sbrk_r>
    2420:	1c43      	adds	r3, r0, #1
    2422:	d0d2      	beq.n	23ca <_malloc_r+0x16>
    2424:	1cc4      	adds	r4, r0, #3
    2426:	f024 0403 	bic.w	r4, r4, #3
    242a:	42a0      	cmp	r0, r4
    242c:	d10a      	bne.n	2444 <_malloc_r+0x90>
    242e:	6025      	str	r5, [r4, #0]
    2430:	f104 000b 	add.w	r0, r4, #11
    2434:	1d23      	adds	r3, r4, #4
    2436:	f020 0007 	bic.w	r0, r0, #7
    243a:	1ac3      	subs	r3, r0, r3
    243c:	d009      	beq.n	2452 <_malloc_r+0x9e>
    243e:	425a      	negs	r2, r3
    2440:	50e2      	str	r2, [r4, r3]
    2442:	bd70      	pop	{r4, r5, r6, pc}
    2444:	1a21      	subs	r1, r4, r0
    2446:	4630      	mov	r0, r6
    2448:	f000 fdfa 	bl	3040 <_sbrk_r>
    244c:	3001      	adds	r0, #1
    244e:	d1ee      	bne.n	242e <_malloc_r+0x7a>
    2450:	e7bb      	b.n	23ca <_malloc_r+0x16>
    2452:	bd70      	pop	{r4, r5, r6, pc}
    2454:	100051dc 	.word	0x100051dc
    2458:	100051d8 	.word	0x100051d8

0000245c <__sfputc_r>:
    245c:	6893      	ldr	r3, [r2, #8]
    245e:	b410      	push	{r4}
    2460:	3b01      	subs	r3, #1
    2462:	2b00      	cmp	r3, #0
    2464:	6093      	str	r3, [r2, #8]
    2466:	da08      	bge.n	247a <__sfputc_r+0x1e>
    2468:	6994      	ldr	r4, [r2, #24]
    246a:	42a3      	cmp	r3, r4
    246c:	db02      	blt.n	2474 <__sfputc_r+0x18>
    246e:	b2cb      	uxtb	r3, r1
    2470:	2b0a      	cmp	r3, #10
    2472:	d102      	bne.n	247a <__sfputc_r+0x1e>
    2474:	bc10      	pop	{r4}
    2476:	f000 be3f 	b.w	30f8 <__swbuf_r>
    247a:	6813      	ldr	r3, [r2, #0]
    247c:	1c58      	adds	r0, r3, #1
    247e:	6010      	str	r0, [r2, #0]
    2480:	7019      	strb	r1, [r3, #0]
    2482:	b2c8      	uxtb	r0, r1
    2484:	bc10      	pop	{r4}
    2486:	4770      	bx	lr

00002488 <__sfputs_r>:
    2488:	b5f8      	push	{r3, r4, r5, r6, r7, lr}
    248a:	4606      	mov	r6, r0
    248c:	460f      	mov	r7, r1
    248e:	4614      	mov	r4, r2
    2490:	18d5      	adds	r5, r2, r3
    2492:	42ac      	cmp	r4, r5
    2494:	d008      	beq.n	24a8 <__sfputs_r+0x20>
    2496:	463a      	mov	r2, r7
    2498:	f814 1b01 	ldrb.w	r1, [r4], #1
    249c:	4630      	mov	r0, r6
    249e:	f7ff ffdd 	bl	245c <__sfputc_r>
    24a2:	1c43      	adds	r3, r0, #1
    24a4:	d1f5      	bne.n	2492 <__sfputs_r+0xa>
    24a6:	e000      	b.n	24aa <__sfputs_r+0x22>
    24a8:	2000      	movs	r0, #0
    24aa:	bdf8      	pop	{r3, r4, r5, r6, r7, pc}

000024ac <_vfiprintf_r>:
    24ac:	e92d 4ff0 	stmdb	sp!, {r4, r5, r6, r7, r8, r9, r10, r11, lr}
    24b0:	b09d      	sub	sp, #116	; 0x74
    24b2:	460c      	mov	r4, r1
    24b4:	4617      	mov	r7, r2
    24b6:	9303      	str	r3, [sp, #12]
    24b8:	4606      	mov	r6, r0
    24ba:	b118      	cbz	r0, 24c4 <_vfiprintf_r+0x18>
    24bc:	6983      	ldr	r3, [r0, #24]
    24be:	b90b      	cbnz	r3, 24c4 <_vfiprintf_r+0x18>
    24c0:	f7ff fe0e 	bl	20e0 <__sinit>
    24c4:	4b7f      	ldr	r3, [pc, #508]	; (26c4 <_vfiprintf_r+0x218>)
    24c6:	429c      	cmp	r4, r3
    24c8:	d101      	bne.n	24ce <_vfiprintf_r+0x22>
    24ca:	6874      	ldr	r4, [r6, #4]
    24cc:	e008      	b.n	24e0 <_vfiprintf_r+0x34>
    24ce:	4b7e      	ldr	r3, [pc, #504]	; (26c8 <_vfiprintf_r+0x21c>)
    24d0:	429c      	cmp	r4, r3
    24d2:	d101      	bne.n	24d8 <_vfiprintf_r+0x2c>
    24d4:	68b4      	ldr	r4, [r6, #8]
    24d6:	e003      	b.n	24e0 <_vfiprintf_r+0x34>
    24d8:	4b7c      	ldr	r3, [pc, #496]	; (26cc <_vfiprintf_r+0x220>)
    24da:	429c      	cmp	r4, r3
    24dc:	bf08      	it	eq
    24de:	68f4      	ldreq	r4, [r6, #12]
    24e0:	89a3      	ldrh	r3, [r4, #12]
    24e2:	0718      	lsls	r0, r3, #28
    24e4:	d50c      	bpl.n	2500 <_vfiprintf_r+0x54>
    24e6:	6923      	ldr	r3, [r4, #16]
    24e8:	b153      	cbz	r3, 2500 <_vfiprintf_r+0x54>
    24ea:	2300      	movs	r3, #0
    24ec:	9309      	str	r3, [sp, #36]	; 0x24
    24ee:	2320      	movs	r3, #32
    24f0:	f88d 3029 	strb.w	r3, [sp, #41]	; 0x29
    24f4:	2330      	movs	r3, #48	; 0x30
    24f6:	f88d 302a 	strb.w	r3, [sp, #42]	; 0x2a
    24fa:	f8df b1d4 	ldr.w	r11, [pc, #468]	; 26d0 <_vfiprintf_r+0x224>
    24fe:	e044      	b.n	258a <_vfiprintf_r+0xde>
    2500:	4621      	mov	r1, r4
    2502:	4630      	mov	r0, r6
    2504:	f000 fe5e 	bl	31c4 <__swsetup_r>
    2508:	2800      	cmp	r0, #0
    250a:	d0ee      	beq.n	24ea <_vfiprintf_r+0x3e>
    250c:	f04f 30ff 	mov.w	r0, #4294967295
    2510:	e0d5      	b.n	26be <_vfiprintf_r+0x212>
    2512:	9a03      	ldr	r2, [sp, #12]
    2514:	1d11      	adds	r1, r2, #4
    2516:	6812      	ldr	r2, [r2, #0]
    2518:	9103      	str	r1, [sp, #12]
    251a:	2a00      	cmp	r2, #0
    251c:	f280 808c 	bge.w	2638 <_vfiprintf_r+0x18c>
    2520:	4252      	negs	r2, r2
    2522:	f043 0002 	orr.w	r0, r3, #2
    2526:	9207      	str	r2, [sp, #28]
    2528:	9004      	str	r0, [sp, #16]
    252a:	f898 3000 	ldrb.w	r3, [r8]
    252e:	2b2e      	cmp	r3, #46	; 0x2e
    2530:	f000 8084 	beq.w	263c <_vfiprintf_r+0x190>
    2534:	2203      	movs	r2, #3
    2536:	f898 1000 	ldrb.w	r1, [r8]
    253a:	4865      	ldr	r0, [pc, #404]	; (26d0 <_vfiprintf_r+0x224>)
    253c:	f7ff fed4 	bl	22e8 <memchr>
    2540:	b148      	cbz	r0, 2556 <_vfiprintf_r+0xaa>
    2542:	2340      	movs	r3, #64	; 0x40
    2544:	ebcb 0000 	rsb	r0, r11, r0
    2548:	fa03 f000 	lsl.w	r0, r3, r0
    254c:	9b04      	ldr	r3, [sp, #16]
    254e:	f108 0801 	add.w	r8, r8, #1
    2552:	4318      	orrs	r0, r3
    2554:	9004      	str	r0, [sp, #16]
    2556:	f898 1000 	ldrb.w	r1, [r8]
    255a:	2206      	movs	r2, #6
    255c:	485d      	ldr	r0, [pc, #372]	; (26d4 <_vfiprintf_r+0x228>)
    255e:	f108 0701 	add.w	r7, r8, #1
    2562:	f88d 1028 	strb.w	r1, [sp, #40]	; 0x28
    2566:	f7ff febf 	bl	22e8 <memchr>
    256a:	2800      	cmp	r0, #0
    256c:	f000 8095 	beq.w	269a <_vfiprintf_r+0x1ee>
    2570:	4b59      	ldr	r3, [pc, #356]	; (26d8 <_vfiprintf_r+0x22c>)
    2572:	2b00      	cmp	r3, #0
    2574:	f040 8088 	bne.w	2688 <_vfiprintf_r+0x1dc>
    2578:	9b03      	ldr	r3, [sp, #12]
    257a:	3307      	adds	r3, #7
    257c:	f023 0307 	bic.w	r3, r3, #7
    2580:	3308      	adds	r3, #8
    2582:	9303      	str	r3, [sp, #12]
    2584:	9b09      	ldr	r3, [sp, #36]	; 0x24
    2586:	4453      	add	r3, r10
    2588:	9309      	str	r3, [sp, #36]	; 0x24
    258a:	46b8      	mov	r8, r7
    258c:	4645      	mov	r5, r8
    258e:	f815 3b01 	ldrb.w	r3, [r5], #1
    2592:	b91b      	cbnz	r3, 259c <_vfiprintf_r+0xf0>
    2594:	ebb8 0907 	subs.w	r9, r8, r7
    2598:	d00f      	beq.n	25ba <_vfiprintf_r+0x10e>
    259a:	e003      	b.n	25a4 <_vfiprintf_r+0xf8>
    259c:	2b25      	cmp	r3, #37	; 0x25
    259e:	d0f9      	beq.n	2594 <_vfiprintf_r+0xe8>
    25a0:	46a8      	mov	r8, r5
    25a2:	e7f3      	b.n	258c <_vfiprintf_r+0xe0>
    25a4:	464b      	mov	r3, r9
    25a6:	463a      	mov	r2, r7
    25a8:	4621      	mov	r1, r4
    25aa:	4630      	mov	r0, r6
    25ac:	f7ff ff6c 	bl	2488 <__sfputs_r>
    25b0:	3001      	adds	r0, #1
    25b2:	d07f      	beq.n	26b4 <_vfiprintf_r+0x208>
    25b4:	9b09      	ldr	r3, [sp, #36]	; 0x24
    25b6:	444b      	add	r3, r9
    25b8:	9309      	str	r3, [sp, #36]	; 0x24
    25ba:	f898 3000 	ldrb.w	r3, [r8]
    25be:	2b00      	cmp	r3, #0
    25c0:	d078      	beq.n	26b4 <_vfiprintf_r+0x208>
    25c2:	2300      	movs	r3, #0
    25c4:	f04f 32ff 	mov.w	r2, #4294967295
    25c8:	9304      	str	r3, [sp, #16]
    25ca:	9307      	str	r3, [sp, #28]
    25cc:	9205      	str	r2, [sp, #20]
    25ce:	9306      	str	r3, [sp, #24]
    25d0:	f88d 3053 	strb.w	r3, [sp, #83]	; 0x53
    25d4:	931a      	str	r3, [sp, #104]	; 0x68
    25d6:	2701      	movs	r7, #1
    25d8:	2205      	movs	r2, #5
    25da:	7829      	ldrb	r1, [r5, #0]
    25dc:	483f      	ldr	r0, [pc, #252]	; (26dc <_vfiprintf_r+0x230>)
    25de:	f7ff fe83 	bl	22e8 <memchr>
    25e2:	f105 0801 	add.w	r8, r5, #1
    25e6:	9b04      	ldr	r3, [sp, #16]
    25e8:	b138      	cbz	r0, 25fa <_vfiprintf_r+0x14e>
    25ea:	4a3c      	ldr	r2, [pc, #240]	; (26dc <_vfiprintf_r+0x230>)
    25ec:	4645      	mov	r5, r8
    25ee:	1a80      	subs	r0, r0, r2
    25f0:	fa07 f000 	lsl.w	r0, r7, r0
    25f4:	4318      	orrs	r0, r3
    25f6:	9004      	str	r0, [sp, #16]
    25f8:	e7ee      	b.n	25d8 <_vfiprintf_r+0x12c>
    25fa:	06d9      	lsls	r1, r3, #27
    25fc:	bf44      	itt	mi
    25fe:	2220      	movmi	r2, #32
    2600:	f88d 2053 	strbmi.w	r2, [sp, #83]	; 0x53
    2604:	071a      	lsls	r2, r3, #28
    2606:	bf44      	itt	mi
    2608:	222b      	movmi	r2, #43	; 0x2b
    260a:	f88d 2053 	strbmi.w	r2, [sp, #83]	; 0x53
    260e:	782a      	ldrb	r2, [r5, #0]
    2610:	2a2a      	cmp	r2, #42	; 0x2a
    2612:	f43f af7e 	beq.w	2512 <_vfiprintf_r+0x66>
    2616:	9a07      	ldr	r2, [sp, #28]
    2618:	2100      	movs	r1, #0
    261a:	200a      	movs	r0, #10
    261c:	46a8      	mov	r8, r5
    261e:	f898 3000 	ldrb.w	r3, [r8]
    2622:	3501      	adds	r5, #1
    2624:	3b30      	subs	r3, #48	; 0x30
    2626:	2b09      	cmp	r3, #9
    2628:	d803      	bhi.n	2632 <_vfiprintf_r+0x186>
    262a:	fb00 3202 	mla	r2, r0, r2, r3
    262e:	2101      	movs	r1, #1
    2630:	e7f4      	b.n	261c <_vfiprintf_r+0x170>
    2632:	2900      	cmp	r1, #0
    2634:	f43f af79 	beq.w	252a <_vfiprintf_r+0x7e>
    2638:	9207      	str	r2, [sp, #28]
    263a:	e776      	b.n	252a <_vfiprintf_r+0x7e>
    263c:	f898 3001 	ldrb.w	r3, [r8, #1]
    2640:	2b2a      	cmp	r3, #42	; 0x2a
    2642:	d10b      	bne.n	265c <_vfiprintf_r+0x1b0>
    2644:	9b03      	ldr	r3, [sp, #12]
    2646:	f108 0802 	add.w	r8, r8, #2
    264a:	1d1a      	adds	r2, r3, #4
    264c:	681b      	ldr	r3, [r3, #0]
    264e:	9203      	str	r2, [sp, #12]
    2650:	2b00      	cmp	r3, #0
    2652:	bfb8      	it	lt
    2654:	f04f 33ff 	movlt.w	r3, #4294967295
    2658:	9305      	str	r3, [sp, #20]
    265a:	e76b      	b.n	2534 <_vfiprintf_r+0x88>
    265c:	2300      	movs	r3, #0
    265e:	4619      	mov	r1, r3
    2660:	9305      	str	r3, [sp, #20]
    2662:	f108 0001 	add.w	r0, r8, #1
    2666:	250a      	movs	r5, #10
    2668:	4680      	mov	r8, r0
    266a:	f898 2000 	ldrb.w	r2, [r8]
    266e:	3001      	adds	r0, #1
    2670:	3a30      	subs	r2, #48	; 0x30
    2672:	2a09      	cmp	r2, #9
    2674:	d803      	bhi.n	267e <_vfiprintf_r+0x1d2>
    2676:	fb05 2101 	mla	r1, r5, r1, r2
    267a:	2301      	movs	r3, #1
    267c:	e7f4      	b.n	2668 <_vfiprintf_r+0x1bc>
    267e:	2b00      	cmp	r3, #0
    2680:	f43f af58 	beq.w	2534 <_vfiprintf_r+0x88>
    2684:	9105      	str	r1, [sp, #20]
    2686:	e755      	b.n	2534 <_vfiprintf_r+0x88>
    2688:	ab03      	add	r3, sp, #12
    268a:	9300      	str	r3, [sp, #0]
    268c:	4622      	mov	r2, r4
    268e:	4b14      	ldr	r3, [pc, #80]	; (26e0 <_vfiprintf_r+0x234>)
    2690:	a904      	add	r1, sp, #16
    2692:	4630      	mov	r0, r6
    2694:	f000 f8c2 	bl	281c <_printf_float>
    2698:	e007      	b.n	26aa <_vfiprintf_r+0x1fe>
    269a:	ab03      	add	r3, sp, #12
    269c:	9300      	str	r3, [sp, #0]
    269e:	4622      	mov	r2, r4
    26a0:	4b0f      	ldr	r3, [pc, #60]	; (26e0 <_vfiprintf_r+0x234>)
    26a2:	a904      	add	r1, sp, #16
    26a4:	4630      	mov	r0, r6
    26a6:	f000 fb65 	bl	2d74 <_printf_i>
    26aa:	f1b0 3fff 	cmp.w	r0, #4294967295
    26ae:	4682      	mov	r10, r0
    26b0:	f47f af68 	bne.w	2584 <_vfiprintf_r+0xd8>
    26b4:	89a3      	ldrh	r3, [r4, #12]
    26b6:	065b      	lsls	r3, r3, #25
    26b8:	f53f af28 	bmi.w	250c <_vfiprintf_r+0x60>
    26bc:	9809      	ldr	r0, [sp, #36]	; 0x24
    26be:	b01d      	add	sp, #116	; 0x74
    26c0:	e8bd 8ff0 	ldmia.w	sp!, {r4, r5, r6, r7, r8, r9, r10, r11, pc}
    26c4:	00004d90 	.word	0x00004d90
    26c8:	00004db0 	.word	0x00004db0
    26cc:	00004dd0 	.word	0x00004dd0
    26d0:	00004dfe 	.word	0x00004dfe
    26d4:	00004e02 	.word	0x00004e02
    26d8:	0000281d 	.word	0x0000281d
    26dc:	00004df8 	.word	0x00004df8
    26e0:	00002489 	.word	0x00002489

000026e4 <vfiprintf>:
    26e4:	4613      	mov	r3, r2
    26e6:	460a      	mov	r2, r1
    26e8:	4601      	mov	r1, r0
    26ea:	4802      	ldr	r0, [pc, #8]	; (26f4 <vfiprintf+0x10>)
    26ec:	6800      	ldr	r0, [r0, #0]
    26ee:	f7ff bedd 	b.w	24ac <_vfiprintf_r>
    26f2:	bf00      	nop
    26f4:	1000014c 	.word	0x1000014c

000026f8 <__cvt>:
    26f8:	e92d 47f0 	stmdb	sp!, {r4, r5, r6, r7, r8, r9, r10, lr}
    26fc:	b088      	sub	sp, #32
    26fe:	9f14      	ldr	r7, [sp, #80]	; 0x50
    2700:	2b00      	cmp	r3, #0
    2702:	461e      	mov	r6, r3
    2704:	9912      	ldr	r1, [sp, #72]	; 0x48
    2706:	bfb8      	it	lt
    2708:	f103 4300 	addlt.w	r3, r3, #2147483648	; 0x80000000
    270c:	f027 0720 	bic.w	r7, r7, #32
    2710:	bfb6      	itet	lt
    2712:	461e      	movlt	r6, r3
    2714:	2300      	movge	r3, #0
    2716:	232d      	movlt	r3, #45	; 0x2d
    2718:	2f46      	cmp	r7, #70	; 0x46
    271a:	4614      	mov	r4, r2
    271c:	9d10      	ldr	r5, [sp, #64]	; 0x40
    271e:	f8dd a04c 	ldr.w	r10, [sp, #76]	; 0x4c
    2722:	700b      	strb	r3, [r1, #0]
    2724:	d003      	beq.n	272e <__cvt+0x36>
    2726:	2f45      	cmp	r7, #69	; 0x45
    2728:	d103      	bne.n	2732 <__cvt+0x3a>
    272a:	3501      	adds	r5, #1
    272c:	e001      	b.n	2732 <__cvt+0x3a>
    272e:	2303      	movs	r3, #3
    2730:	e000      	b.n	2734 <__cvt+0x3c>
    2732:	2302      	movs	r3, #2
    2734:	aa07      	add	r2, sp, #28
    2736:	9204      	str	r2, [sp, #16]
    2738:	aa06      	add	r2, sp, #24
    273a:	9203      	str	r2, [sp, #12]
    273c:	e88d 0428 	stmia.w	sp, {r3, r5, r10}
    2740:	4622      	mov	r2, r4
    2742:	4633      	mov	r3, r6
    2744:	f000 fe48 	bl	33d8 <_dtoa_r>
    2748:	2f47      	cmp	r7, #71	; 0x47
    274a:	4680      	mov	r8, r0
    274c:	d102      	bne.n	2754 <__cvt+0x5c>
    274e:	9b11      	ldr	r3, [sp, #68]	; 0x44
    2750:	07db      	lsls	r3, r3, #31
    2752:	d528      	bpl.n	27a6 <__cvt+0xae>
    2754:	2f46      	cmp	r7, #70	; 0x46
    2756:	eb08 0905 	add.w	r9, r8, r5
    275a:	d111      	bne.n	2780 <__cvt+0x88>
    275c:	f898 3000 	ldrb.w	r3, [r8]
    2760:	2b30      	cmp	r3, #48	; 0x30
    2762:	d10a      	bne.n	277a <__cvt+0x82>
    2764:	2200      	movs	r2, #0
    2766:	2300      	movs	r3, #0
    2768:	4620      	mov	r0, r4
    276a:	4631      	mov	r1, r6
    276c:	f002 f962 	bl	4a34 <__aeabi_dcmpeq>
    2770:	b918      	cbnz	r0, 277a <__cvt+0x82>
    2772:	f1c5 0501 	rsb	r5, r5, #1
    2776:	f8ca 5000 	str.w	r5, [r10]
    277a:	f8da 3000 	ldr.w	r3, [r10]
    277e:	4499      	add	r9, r3
    2780:	2200      	movs	r2, #0
    2782:	2300      	movs	r3, #0
    2784:	4620      	mov	r0, r4
    2786:	4631      	mov	r1, r6
    2788:	f002 f954 	bl	4a34 <__aeabi_dcmpeq>
    278c:	b908      	cbnz	r0, 2792 <__cvt+0x9a>
    278e:	2230      	movs	r2, #48	; 0x30
    2790:	e002      	b.n	2798 <__cvt+0xa0>
    2792:	f8cd 901c 	str.w	r9, [sp, #28]
    2796:	e006      	b.n	27a6 <__cvt+0xae>
    2798:	9b07      	ldr	r3, [sp, #28]
    279a:	4599      	cmp	r9, r3
    279c:	d903      	bls.n	27a6 <__cvt+0xae>
    279e:	1c59      	adds	r1, r3, #1
    27a0:	9107      	str	r1, [sp, #28]
    27a2:	701a      	strb	r2, [r3, #0]
    27a4:	e7f8      	b.n	2798 <__cvt+0xa0>
    27a6:	4640      	mov	r0, r8
    27a8:	9b07      	ldr	r3, [sp, #28]
    27aa:	9a15      	ldr	r2, [sp, #84]	; 0x54
    27ac:	ebc8 0303 	rsb	r3, r8, r3
    27b0:	6013      	str	r3, [r2, #0]
    27b2:	b008      	add	sp, #32
    27b4:	e8bd 87f0 	ldmia.w	sp!, {r4, r5, r6, r7, r8, r9, r10, pc}

000027b8 <__exponent>:
    27b8:	4603      	mov	r3, r0
    27ba:	b573      	push	{r0, r1, r4, r5, r6, lr}
    27bc:	2900      	cmp	r1, #0
    27be:	bfb8      	it	lt
    27c0:	4249      	neglt	r1, r1
    27c2:	f803 2b02 	strb.w	r2, [r3], #2
    27c6:	bfb4      	ite	lt
    27c8:	222d      	movlt	r2, #45	; 0x2d
    27ca:	222b      	movge	r2, #43	; 0x2b
    27cc:	2909      	cmp	r1, #9
    27ce:	7042      	strb	r2, [r0, #1]
    27d0:	dd1a      	ble.n	2808 <__exponent+0x50>
    27d2:	f10d 0207 	add.w	r2, sp, #7
    27d6:	4616      	mov	r6, r2
    27d8:	250a      	movs	r5, #10
    27da:	fb91 f4f5 	sdiv	r4, r1, r5
    27de:	fb05 1114 	mls	r1, r5, r4, r1
    27e2:	2c09      	cmp	r4, #9
    27e4:	f101 0130 	add.w	r1, r1, #48	; 0x30
    27e8:	f802 1d01 	strb.w	r1, [r2, #-1]!
    27ec:	4621      	mov	r1, r4
    27ee:	dcf4      	bgt.n	27da <__exponent+0x22>
    27f0:	3130      	adds	r1, #48	; 0x30
    27f2:	1e54      	subs	r4, r2, #1
    27f4:	f802 1c01 	strb.w	r1, [r2, #-1]
    27f8:	42b4      	cmp	r4, r6
    27fa:	461a      	mov	r2, r3
    27fc:	d20a      	bcs.n	2814 <__exponent+0x5c>
    27fe:	f814 2b01 	ldrb.w	r2, [r4], #1
    2802:	f803 2b01 	strb.w	r2, [r3], #1
    2806:	e7f7      	b.n	27f8 <__exponent+0x40>
    2808:	461a      	mov	r2, r3
    280a:	2430      	movs	r4, #48	; 0x30
    280c:	4421      	add	r1, r4
    280e:	f802 4b02 	strb.w	r4, [r2], #2
    2812:	7059      	strb	r1, [r3, #1]
    2814:	1a10      	subs	r0, r2, r0
    2816:	b002      	add	sp, #8
    2818:	bd70      	pop	{r4, r5, r6, pc}
	...

0000281c <_printf_float>:
    281c:	e92d 4ff0 	stmdb	sp!, {r4, r5, r6, r7, r8, r9, r10, r11, lr}
    2820:	b08f      	sub	sp, #60	; 0x3c
    2822:	460c      	mov	r4, r1
    2824:	4616      	mov	r6, r2
    2826:	461f      	mov	r7, r3
    2828:	f8dd 8060 	ldr.w	r8, [sp, #96]	; 0x60
    282c:	4605      	mov	r5, r0
    282e:	f001 fb8d 	bl	3f4c <_localeconv_r>
    2832:	f8d0 b000 	ldr.w	r11, [r0]
    2836:	4658      	mov	r0, r11
    2838:	f000 fc55 	bl	30e6 <strlen>
    283c:	2300      	movs	r3, #0
    283e:	930c      	str	r3, [sp, #48]	; 0x30
    2840:	f8d8 3000 	ldr.w	r3, [r8]
    2844:	9008      	str	r0, [sp, #32]
    2846:	3307      	adds	r3, #7
    2848:	f023 0307 	bic.w	r3, r3, #7
    284c:	f103 0208 	add.w	r2, r3, #8
    2850:	f894 9018 	ldrb.w	r9, [r4, #24]
    2854:	f8c8 2000 	str.w	r2, [r8]
    2858:	e9d3 2300 	ldrd	r2, r3, [r3]
    285c:	e9c4 2312 	strd	r2, r3, [r4, #72]	; 0x48
    2860:	e9d4 0112 	ldrd	r0, r1, [r4, #72]	; 0x48
    2864:	f000 fbc4 	bl	2ff0 <__fpclassifyd>
    2868:	2801      	cmp	r0, #1
    286a:	d119      	bne.n	28a0 <_printf_float+0x84>
    286c:	e9d4 0112 	ldrd	r0, r1, [r4, #72]	; 0x48
    2870:	2200      	movs	r2, #0
    2872:	2300      	movs	r3, #0
    2874:	f002 f8e8 	bl	4a48 <__aeabi_dcmplt>
    2878:	b110      	cbz	r0, 2880 <_printf_float+0x64>
    287a:	232d      	movs	r3, #45	; 0x2d
    287c:	f884 3043 	strb.w	r3, [r4, #67]	; 0x43
    2880:	4b9a      	ldr	r3, [pc, #616]	; (2aec <_printf_float+0x2d0>)
    2882:	4a9b      	ldr	r2, [pc, #620]	; (2af0 <_printf_float+0x2d4>)
    2884:	f1b9 0f47 	cmp.w	r9, #71	; 0x47
    2888:	bf8c      	ite	hi
    288a:	4690      	movhi	r8, r2
    288c:	4698      	movls	r8, r3
    288e:	2303      	movs	r3, #3
    2890:	6123      	str	r3, [r4, #16]
    2892:	6823      	ldr	r3, [r4, #0]
    2894:	f023 0304 	bic.w	r3, r3, #4
    2898:	6023      	str	r3, [r4, #0]
    289a:	f04f 0a00 	mov.w	r10, #0
    289e:	e093      	b.n	29c8 <_printf_float+0x1ac>
    28a0:	e9d4 0112 	ldrd	r0, r1, [r4, #72]	; 0x48
    28a4:	f000 fba4 	bl	2ff0 <__fpclassifyd>
    28a8:	6823      	ldr	r3, [r4, #0]
    28aa:	b948      	cbnz	r0, 28c0 <_printf_float+0xa4>
    28ac:	4a91      	ldr	r2, [pc, #580]	; (2af4 <_printf_float+0x2d8>)
    28ae:	4992      	ldr	r1, [pc, #584]	; (2af8 <_printf_float+0x2dc>)
    28b0:	f1b9 0f47 	cmp.w	r9, #71	; 0x47
    28b4:	bf8c      	ite	hi
    28b6:	4688      	movhi	r8, r1
    28b8:	4690      	movls	r8, r2
    28ba:	2203      	movs	r2, #3
    28bc:	6122      	str	r2, [r4, #16]
    28be:	e7e9      	b.n	2894 <_printf_float+0x78>
    28c0:	f8d4 e004 	ldr.w	lr, [r4, #4]
    28c4:	e9d4 0112 	ldrd	r0, r1, [r4, #72]	; 0x48
    28c8:	f1be 3fff 	cmp.w	lr, #4294967295
    28cc:	d101      	bne.n	28d2 <_printf_float+0xb6>
    28ce:	2206      	movs	r2, #6
    28d0:	e00a      	b.n	28e8 <_printf_float+0xcc>
    28d2:	f1b9 0f67 	cmp.w	r9, #103	; 0x67
    28d6:	d002      	beq.n	28de <_printf_float+0xc2>
    28d8:	f1b9 0f47 	cmp.w	r9, #71	; 0x47
    28dc:	d105      	bne.n	28ea <_printf_float+0xce>
    28de:	f1be 0f00 	cmp.w	lr, #0
    28e2:	f040 81b6 	bne.w	2c52 <_printf_float+0x436>
    28e6:	2201      	movs	r2, #1
    28e8:	6062      	str	r2, [r4, #4]
    28ea:	2200      	movs	r2, #0
    28ec:	f443 6380 	orr.w	r3, r3, #1024	; 0x400
    28f0:	9206      	str	r2, [sp, #24]
    28f2:	aa0c      	add	r2, sp, #48	; 0x30
    28f4:	6023      	str	r3, [r4, #0]
    28f6:	9205      	str	r2, [sp, #20]
    28f8:	9301      	str	r3, [sp, #4]
    28fa:	aa0b      	add	r2, sp, #44	; 0x2c
    28fc:	6863      	ldr	r3, [r4, #4]
    28fe:	9203      	str	r2, [sp, #12]
    2900:	f10d 022b 	add.w	r2, sp, #43	; 0x2b
    2904:	9202      	str	r2, [sp, #8]
    2906:	9300      	str	r3, [sp, #0]
    2908:	4602      	mov	r2, r0
    290a:	460b      	mov	r3, r1
    290c:	f8cd 9010 	str.w	r9, [sp, #16]
    2910:	4628      	mov	r0, r5
    2912:	f7ff fef1 	bl	26f8 <__cvt>
    2916:	f009 03df 	and.w	r3, r9, #223	; 0xdf
    291a:	2b47      	cmp	r3, #71	; 0x47
    291c:	4680      	mov	r8, r0
    291e:	d109      	bne.n	2934 <_printf_float+0x118>
    2920:	9b0b      	ldr	r3, [sp, #44]	; 0x2c
    2922:	1cd8      	adds	r0, r3, #3
    2924:	db02      	blt.n	292c <_printf_float+0x110>
    2926:	6862      	ldr	r2, [r4, #4]
    2928:	4293      	cmp	r3, r2
    292a:	dd30      	ble.n	298e <_printf_float+0x172>
    292c:	f1a9 0902 	sub.w	r9, r9, #2
    2930:	fa5f f989 	uxtb.w	r9, r9
    2934:	f1b9 0f65 	cmp.w	r9, #101	; 0x65
    2938:	990b      	ldr	r1, [sp, #44]	; 0x2c
    293a:	d812      	bhi.n	2962 <_printf_float+0x146>
    293c:	3901      	subs	r1, #1
    293e:	464a      	mov	r2, r9
    2940:	f104 0050 	add.w	r0, r4, #80	; 0x50
    2944:	910b      	str	r1, [sp, #44]	; 0x2c
    2946:	f7ff ff37 	bl	27b8 <__exponent>
    294a:	9a0c      	ldr	r2, [sp, #48]	; 0x30
    294c:	4682      	mov	r10, r0
    294e:	1883      	adds	r3, r0, r2
    2950:	2a01      	cmp	r2, #1
    2952:	6123      	str	r3, [r4, #16]
    2954:	dc02      	bgt.n	295c <_printf_float+0x140>
    2956:	6822      	ldr	r2, [r4, #0]
    2958:	07d1      	lsls	r1, r2, #31
    295a:	d52f      	bpl.n	29bc <_printf_float+0x1a0>
    295c:	3301      	adds	r3, #1
    295e:	6123      	str	r3, [r4, #16]
    2960:	e02c      	b.n	29bc <_printf_float+0x1a0>
    2962:	f1b9 0f66 	cmp.w	r9, #102	; 0x66
    2966:	d114      	bne.n	2992 <_printf_float+0x176>
    2968:	2900      	cmp	r1, #0
    296a:	6863      	ldr	r3, [r4, #4]
    296c:	dd07      	ble.n	297e <_printf_float+0x162>
    296e:	6121      	str	r1, [r4, #16]
    2970:	b913      	cbnz	r3, 2978 <_printf_float+0x15c>
    2972:	6822      	ldr	r2, [r4, #0]
    2974:	07d2      	lsls	r2, r2, #31
    2976:	d51d      	bpl.n	29b4 <_printf_float+0x198>
    2978:	3301      	adds	r3, #1
    297a:	440b      	add	r3, r1
    297c:	e019      	b.n	29b2 <_printf_float+0x196>
    297e:	b913      	cbnz	r3, 2986 <_printf_float+0x16a>
    2980:	6822      	ldr	r2, [r4, #0]
    2982:	07d0      	lsls	r0, r2, #31
    2984:	d501      	bpl.n	298a <_printf_float+0x16e>
    2986:	3302      	adds	r3, #2
    2988:	e013      	b.n	29b2 <_printf_float+0x196>
    298a:	2301      	movs	r3, #1
    298c:	e011      	b.n	29b2 <_printf_float+0x196>
    298e:	f04f 0967 	mov.w	r9, #103	; 0x67
    2992:	9b0b      	ldr	r3, [sp, #44]	; 0x2c
    2994:	9a0c      	ldr	r2, [sp, #48]	; 0x30
    2996:	4293      	cmp	r3, r2
    2998:	db05      	blt.n	29a6 <_printf_float+0x18a>
    299a:	6822      	ldr	r2, [r4, #0]
    299c:	6123      	str	r3, [r4, #16]
    299e:	07d1      	lsls	r1, r2, #31
    29a0:	d508      	bpl.n	29b4 <_printf_float+0x198>
    29a2:	3301      	adds	r3, #1
    29a4:	e005      	b.n	29b2 <_printf_float+0x196>
    29a6:	2b00      	cmp	r3, #0
    29a8:	bfd4      	ite	le
    29aa:	f1c3 0302 	rsble	r3, r3, #2
    29ae:	2301      	movgt	r3, #1
    29b0:	4413      	add	r3, r2
    29b2:	6123      	str	r3, [r4, #16]
    29b4:	9b0b      	ldr	r3, [sp, #44]	; 0x2c
    29b6:	f04f 0a00 	mov.w	r10, #0
    29ba:	65a3      	str	r3, [r4, #88]	; 0x58
    29bc:	f89d 302b 	ldrb.w	r3, [sp, #43]	; 0x2b
    29c0:	b113      	cbz	r3, 29c8 <_printf_float+0x1ac>
    29c2:	232d      	movs	r3, #45	; 0x2d
    29c4:	f884 3043 	strb.w	r3, [r4, #67]	; 0x43
    29c8:	9700      	str	r7, [sp, #0]
    29ca:	4633      	mov	r3, r6
    29cc:	aa0d      	add	r2, sp, #52	; 0x34
    29ce:	4621      	mov	r1, r4
    29d0:	4628      	mov	r0, r5
    29d2:	f000 f959 	bl	2c88 <_printf_common>
    29d6:	3001      	adds	r0, #1
    29d8:	d102      	bne.n	29e0 <_printf_float+0x1c4>
    29da:	f04f 30ff 	mov.w	r0, #4294967295
    29de:	e150      	b.n	2c82 <_printf_float+0x466>
    29e0:	6823      	ldr	r3, [r4, #0]
    29e2:	055a      	lsls	r2, r3, #21
    29e4:	d401      	bmi.n	29ea <_printf_float+0x1ce>
    29e6:	6923      	ldr	r3, [r4, #16]
    29e8:	e065      	b.n	2ab6 <_printf_float+0x29a>
    29ea:	f1b9 0f65 	cmp.w	r9, #101	; 0x65
    29ee:	f240 80d5 	bls.w	2b9c <_printf_float+0x380>
    29f2:	e9d4 0112 	ldrd	r0, r1, [r4, #72]	; 0x48
    29f6:	2200      	movs	r2, #0
    29f8:	2300      	movs	r3, #0
    29fa:	f002 f81b 	bl	4a34 <__aeabi_dcmpeq>
    29fe:	b378      	cbz	r0, 2a60 <_printf_float+0x244>
    2a00:	2301      	movs	r3, #1
    2a02:	4a3e      	ldr	r2, [pc, #248]	; (2afc <_printf_float+0x2e0>)
    2a04:	4631      	mov	r1, r6
    2a06:	4628      	mov	r0, r5
    2a08:	47b8      	blx	r7
    2a0a:	3001      	adds	r0, #1
    2a0c:	d0e5      	beq.n	29da <_printf_float+0x1be>
    2a0e:	9b0c      	ldr	r3, [sp, #48]	; 0x30
    2a10:	9a0b      	ldr	r2, [sp, #44]	; 0x2c
    2a12:	429a      	cmp	r2, r3
    2a14:	db0b      	blt.n	2a2e <_printf_float+0x212>
    2a16:	6823      	ldr	r3, [r4, #0]
    2a18:	07d8      	lsls	r0, r3, #31
    2a1a:	d408      	bmi.n	2a2e <_printf_float+0x212>
    2a1c:	6823      	ldr	r3, [r4, #0]
    2a1e:	079b      	lsls	r3, r3, #30
    2a20:	f140 8111 	bpl.w	2c46 <_printf_float+0x42a>
    2a24:	f04f 0800 	mov.w	r8, #0
    2a28:	f104 0919 	add.w	r9, r4, #25
    2a2c:	e106      	b.n	2c3c <_printf_float+0x420>
    2a2e:	9b08      	ldr	r3, [sp, #32]
    2a30:	465a      	mov	r2, r11
    2a32:	4631      	mov	r1, r6
    2a34:	4628      	mov	r0, r5
    2a36:	47b8      	blx	r7
    2a38:	3001      	adds	r0, #1
    2a3a:	d0ce      	beq.n	29da <_printf_float+0x1be>
    2a3c:	f04f 0800 	mov.w	r8, #0
    2a40:	f104 091a 	add.w	r9, r4, #26
    2a44:	9b0c      	ldr	r3, [sp, #48]	; 0x30
    2a46:	3b01      	subs	r3, #1
    2a48:	4598      	cmp	r8, r3
    2a4a:	dae7      	bge.n	2a1c <_printf_float+0x200>
    2a4c:	2301      	movs	r3, #1
    2a4e:	464a      	mov	r2, r9
    2a50:	4631      	mov	r1, r6
    2a52:	4628      	mov	r0, r5
    2a54:	47b8      	blx	r7
    2a56:	3001      	adds	r0, #1
    2a58:	d0bf      	beq.n	29da <_printf_float+0x1be>
    2a5a:	f108 0801 	add.w	r8, r8, #1
    2a5e:	e7f1      	b.n	2a44 <_printf_float+0x228>
    2a60:	9b0b      	ldr	r3, [sp, #44]	; 0x2c
    2a62:	2b00      	cmp	r3, #0
    2a64:	dc29      	bgt.n	2aba <_printf_float+0x29e>
    2a66:	2301      	movs	r3, #1
    2a68:	4a24      	ldr	r2, [pc, #144]	; (2afc <_printf_float+0x2e0>)
    2a6a:	4631      	mov	r1, r6
    2a6c:	4628      	mov	r0, r5
    2a6e:	47b8      	blx	r7
    2a70:	3001      	adds	r0, #1
    2a72:	d0b2      	beq.n	29da <_printf_float+0x1be>
    2a74:	9b0b      	ldr	r3, [sp, #44]	; 0x2c
    2a76:	b923      	cbnz	r3, 2a82 <_printf_float+0x266>
    2a78:	9b0c      	ldr	r3, [sp, #48]	; 0x30
    2a7a:	b913      	cbnz	r3, 2a82 <_printf_float+0x266>
    2a7c:	6823      	ldr	r3, [r4, #0]
    2a7e:	07d9      	lsls	r1, r3, #31
    2a80:	d5cc      	bpl.n	2a1c <_printf_float+0x200>
    2a82:	9b08      	ldr	r3, [sp, #32]
    2a84:	465a      	mov	r2, r11
    2a86:	4631      	mov	r1, r6
    2a88:	4628      	mov	r0, r5
    2a8a:	47b8      	blx	r7
    2a8c:	3001      	adds	r0, #1
    2a8e:	d0a4      	beq.n	29da <_printf_float+0x1be>
    2a90:	f04f 0900 	mov.w	r9, #0
    2a94:	f104 0a1a 	add.w	r10, r4, #26
    2a98:	9b0b      	ldr	r3, [sp, #44]	; 0x2c
    2a9a:	425b      	negs	r3, r3
    2a9c:	4599      	cmp	r9, r3
    2a9e:	da09      	bge.n	2ab4 <_printf_float+0x298>
    2aa0:	2301      	movs	r3, #1
    2aa2:	4652      	mov	r2, r10
    2aa4:	4631      	mov	r1, r6
    2aa6:	4628      	mov	r0, r5
    2aa8:	47b8      	blx	r7
    2aaa:	3001      	adds	r0, #1
    2aac:	d095      	beq.n	29da <_printf_float+0x1be>
    2aae:	f109 0901 	add.w	r9, r9, #1
    2ab2:	e7f1      	b.n	2a98 <_printf_float+0x27c>
    2ab4:	9b0c      	ldr	r3, [sp, #48]	; 0x30
    2ab6:	4642      	mov	r2, r8
    2ab8:	e0a7      	b.n	2c0a <_printf_float+0x3ee>
    2aba:	9a0c      	ldr	r2, [sp, #48]	; 0x30
    2abc:	6da3      	ldr	r3, [r4, #88]	; 0x58
    2abe:	429a      	cmp	r2, r3
    2ac0:	bfa8      	it	ge
    2ac2:	461a      	movge	r2, r3
    2ac4:	2a00      	cmp	r2, #0
    2ac6:	4691      	mov	r9, r2
    2ac8:	dc07      	bgt.n	2ada <_printf_float+0x2be>
    2aca:	f104 031a 	add.w	r3, r4, #26
    2ace:	f04f 0a00 	mov.w	r10, #0
    2ad2:	ea29 79e9 	bic.w	r9, r9, r9, asr #31
    2ad6:	9309      	str	r3, [sp, #36]	; 0x24
    2ad8:	e01c      	b.n	2b14 <_printf_float+0x2f8>
    2ada:	4613      	mov	r3, r2
    2adc:	4631      	mov	r1, r6
    2ade:	4642      	mov	r2, r8
    2ae0:	4628      	mov	r0, r5
    2ae2:	47b8      	blx	r7
    2ae4:	3001      	adds	r0, #1
    2ae6:	d1f0      	bne.n	2aca <_printf_float+0x2ae>
    2ae8:	e777      	b.n	29da <_printf_float+0x1be>
    2aea:	bf00      	nop
    2aec:	00004e09 	.word	0x00004e09
    2af0:	00004e0d 	.word	0x00004e0d
    2af4:	00004e11 	.word	0x00004e11
    2af8:	00004e15 	.word	0x00004e15
    2afc:	00004e19 	.word	0x00004e19
    2b00:	2301      	movs	r3, #1
    2b02:	9a09      	ldr	r2, [sp, #36]	; 0x24
    2b04:	4631      	mov	r1, r6
    2b06:	4628      	mov	r0, r5
    2b08:	47b8      	blx	r7
    2b0a:	3001      	adds	r0, #1
    2b0c:	f43f af65 	beq.w	29da <_printf_float+0x1be>
    2b10:	f10a 0a01 	add.w	r10, r10, #1
    2b14:	6da3      	ldr	r3, [r4, #88]	; 0x58
    2b16:	ebc9 0203 	rsb	r2, r9, r3
    2b1a:	4592      	cmp	r10, r2
    2b1c:	dbf0      	blt.n	2b00 <_printf_float+0x2e4>
    2b1e:	eb08 0903 	add.w	r9, r8, r3
    2b22:	9a0b      	ldr	r2, [sp, #44]	; 0x2c
    2b24:	9b0c      	ldr	r3, [sp, #48]	; 0x30
    2b26:	429a      	cmp	r2, r3
    2b28:	db0f      	blt.n	2b4a <_printf_float+0x32e>
    2b2a:	6823      	ldr	r3, [r4, #0]
    2b2c:	07da      	lsls	r2, r3, #31
    2b2e:	d40c      	bmi.n	2b4a <_printf_float+0x32e>
    2b30:	9b0c      	ldr	r3, [sp, #48]	; 0x30
    2b32:	9a0b      	ldr	r2, [sp, #44]	; 0x2c
    2b34:	4498      	add	r8, r3
    2b36:	ebc9 0808 	rsb	r8, r9, r8
    2b3a:	1a9b      	subs	r3, r3, r2
    2b3c:	4598      	cmp	r8, r3
    2b3e:	bfa8      	it	ge
    2b40:	4698      	movge	r8, r3
    2b42:	f1b8 0f00 	cmp.w	r8, #0
    2b46:	dc08      	bgt.n	2b5a <_printf_float+0x33e>
    2b48:	e00f      	b.n	2b6a <_printf_float+0x34e>
    2b4a:	9b08      	ldr	r3, [sp, #32]
    2b4c:	465a      	mov	r2, r11
    2b4e:	4631      	mov	r1, r6
    2b50:	4628      	mov	r0, r5
    2b52:	47b8      	blx	r7
    2b54:	3001      	adds	r0, #1
    2b56:	d1eb      	bne.n	2b30 <_printf_float+0x314>
    2b58:	e73f      	b.n	29da <_printf_float+0x1be>
    2b5a:	4643      	mov	r3, r8
    2b5c:	464a      	mov	r2, r9
    2b5e:	4631      	mov	r1, r6
    2b60:	4628      	mov	r0, r5
    2b62:	47b8      	blx	r7
    2b64:	3001      	adds	r0, #1
    2b66:	f43f af38 	beq.w	29da <_printf_float+0x1be>
    2b6a:	f04f 0900 	mov.w	r9, #0
    2b6e:	ea28 78e8 	bic.w	r8, r8, r8, asr #31
    2b72:	f104 0a1a 	add.w	r10, r4, #26
    2b76:	e009      	b.n	2b8c <_printf_float+0x370>
    2b78:	2301      	movs	r3, #1
    2b7a:	4652      	mov	r2, r10
    2b7c:	4631      	mov	r1, r6
    2b7e:	4628      	mov	r0, r5
    2b80:	47b8      	blx	r7
    2b82:	3001      	adds	r0, #1
    2b84:	f43f af29 	beq.w	29da <_printf_float+0x1be>
    2b88:	f109 0901 	add.w	r9, r9, #1
    2b8c:	9a0b      	ldr	r2, [sp, #44]	; 0x2c
    2b8e:	9b0c      	ldr	r3, [sp, #48]	; 0x30
    2b90:	1a9b      	subs	r3, r3, r2
    2b92:	ebc8 0303 	rsb	r3, r8, r3
    2b96:	4599      	cmp	r9, r3
    2b98:	dbee      	blt.n	2b78 <_printf_float+0x35c>
    2b9a:	e73f      	b.n	2a1c <_printf_float+0x200>
    2b9c:	9a0c      	ldr	r2, [sp, #48]	; 0x30
    2b9e:	2a01      	cmp	r2, #1
    2ba0:	dc01      	bgt.n	2ba6 <_printf_float+0x38a>
    2ba2:	07db      	lsls	r3, r3, #31
    2ba4:	d538      	bpl.n	2c18 <_printf_float+0x3fc>
    2ba6:	2301      	movs	r3, #1
    2ba8:	4642      	mov	r2, r8
    2baa:	4631      	mov	r1, r6
    2bac:	4628      	mov	r0, r5
    2bae:	47b8      	blx	r7
    2bb0:	3001      	adds	r0, #1
    2bb2:	f43f af12 	beq.w	29da <_printf_float+0x1be>
    2bb6:	9b08      	ldr	r3, [sp, #32]
    2bb8:	465a      	mov	r2, r11
    2bba:	4631      	mov	r1, r6
    2bbc:	4628      	mov	r0, r5
    2bbe:	47b8      	blx	r7
    2bc0:	3001      	adds	r0, #1
    2bc2:	f43f af0a 	beq.w	29da <_printf_float+0x1be>
    2bc6:	e9d4 0112 	ldrd	r0, r1, [r4, #72]	; 0x48
    2bca:	2200      	movs	r2, #0
    2bcc:	2300      	movs	r3, #0
    2bce:	f001 ff31 	bl	4a34 <__aeabi_dcmpeq>
    2bd2:	b120      	cbz	r0, 2bde <_printf_float+0x3c2>
    2bd4:	f04f 0800 	mov.w	r8, #0
    2bd8:	f104 091a 	add.w	r9, r4, #26
    2bdc:	e00e      	b.n	2bfc <_printf_float+0x3e0>
    2bde:	9b0c      	ldr	r3, [sp, #48]	; 0x30
    2be0:	f108 0201 	add.w	r2, r8, #1
    2be4:	3b01      	subs	r3, #1
    2be6:	e019      	b.n	2c1c <_printf_float+0x400>
    2be8:	2301      	movs	r3, #1
    2bea:	464a      	mov	r2, r9
    2bec:	4631      	mov	r1, r6
    2bee:	4628      	mov	r0, r5
    2bf0:	47b8      	blx	r7
    2bf2:	3001      	adds	r0, #1
    2bf4:	f43f aef1 	beq.w	29da <_printf_float+0x1be>
    2bf8:	f108 0801 	add.w	r8, r8, #1
    2bfc:	9b0c      	ldr	r3, [sp, #48]	; 0x30
    2bfe:	3b01      	subs	r3, #1
    2c00:	4598      	cmp	r8, r3
    2c02:	dbf1      	blt.n	2be8 <_printf_float+0x3cc>
    2c04:	4653      	mov	r3, r10
    2c06:	f104 0250 	add.w	r2, r4, #80	; 0x50
    2c0a:	4631      	mov	r1, r6
    2c0c:	4628      	mov	r0, r5
    2c0e:	47b8      	blx	r7
    2c10:	3001      	adds	r0, #1
    2c12:	f47f af03 	bne.w	2a1c <_printf_float+0x200>
    2c16:	e6e0      	b.n	29da <_printf_float+0x1be>
    2c18:	4642      	mov	r2, r8
    2c1a:	2301      	movs	r3, #1
    2c1c:	4631      	mov	r1, r6
    2c1e:	4628      	mov	r0, r5
    2c20:	47b8      	blx	r7
    2c22:	3001      	adds	r0, #1
    2c24:	d1ee      	bne.n	2c04 <_printf_float+0x3e8>
    2c26:	e6d8      	b.n	29da <_printf_float+0x1be>
    2c28:	2301      	movs	r3, #1
    2c2a:	464a      	mov	r2, r9
    2c2c:	4631      	mov	r1, r6
    2c2e:	4628      	mov	r0, r5
    2c30:	47b8      	blx	r7
    2c32:	3001      	adds	r0, #1
    2c34:	f43f aed1 	beq.w	29da <_printf_float+0x1be>
    2c38:	f108 0801 	add.w	r8, r8, #1
    2c3c:	68e3      	ldr	r3, [r4, #12]
    2c3e:	9a0d      	ldr	r2, [sp, #52]	; 0x34
    2c40:	1a9b      	subs	r3, r3, r2
    2c42:	4598      	cmp	r8, r3
    2c44:	dbf0      	blt.n	2c28 <_printf_float+0x40c>
    2c46:	68e0      	ldr	r0, [r4, #12]
    2c48:	9b0d      	ldr	r3, [sp, #52]	; 0x34
    2c4a:	4298      	cmp	r0, r3
    2c4c:	bfb8      	it	lt
    2c4e:	4618      	movlt	r0, r3
    2c50:	e017      	b.n	2c82 <_printf_float+0x466>
    2c52:	2200      	movs	r2, #0
    2c54:	9206      	str	r2, [sp, #24]
    2c56:	aa0c      	add	r2, sp, #48	; 0x30
    2c58:	9205      	str	r2, [sp, #20]
    2c5a:	aa0b      	add	r2, sp, #44	; 0x2c
    2c5c:	f443 6380 	orr.w	r3, r3, #1024	; 0x400
    2c60:	9203      	str	r2, [sp, #12]
    2c62:	f10d 022b 	add.w	r2, sp, #43	; 0x2b
    2c66:	6023      	str	r3, [r4, #0]
    2c68:	9202      	str	r2, [sp, #8]
    2c6a:	9301      	str	r3, [sp, #4]
    2c6c:	4602      	mov	r2, r0
    2c6e:	f8cd 9010 	str.w	r9, [sp, #16]
    2c72:	f8cd e000 	str.w	lr, [sp]
    2c76:	460b      	mov	r3, r1
    2c78:	4628      	mov	r0, r5
    2c7a:	f7ff fd3d 	bl	26f8 <__cvt>
    2c7e:	4680      	mov	r8, r0
    2c80:	e64e      	b.n	2920 <_printf_float+0x104>
    2c82:	b00f      	add	sp, #60	; 0x3c
    2c84:	e8bd 8ff0 	ldmia.w	sp!, {r4, r5, r6, r7, r8, r9, r10, r11, pc}

00002c88 <_printf_common>:
    2c88:	e92d 47f0 	stmdb	sp!, {r4, r5, r6, r7, r8, r9, r10, lr}
    2c8c:	4691      	mov	r9, r2
    2c8e:	461f      	mov	r7, r3
    2c90:	690a      	ldr	r2, [r1, #16]
    2c92:	688b      	ldr	r3, [r1, #8]
    2c94:	4606      	mov	r6, r0
    2c96:	4293      	cmp	r3, r2
    2c98:	bfb8      	it	lt
    2c9a:	4613      	movlt	r3, r2
    2c9c:	f8c9 3000 	str.w	r3, [r9]
    2ca0:	f891 2043 	ldrb.w	r2, [r1, #67]	; 0x43
    2ca4:	460c      	mov	r4, r1
    2ca6:	f8dd 8020 	ldr.w	r8, [sp, #32]
    2caa:	b112      	cbz	r2, 2cb2 <_printf_common+0x2a>
    2cac:	3301      	adds	r3, #1
    2cae:	f8c9 3000 	str.w	r3, [r9]
    2cb2:	6823      	ldr	r3, [r4, #0]
    2cb4:	0699      	lsls	r1, r3, #26
    2cb6:	bf42      	ittt	mi
    2cb8:	f8d9 3000 	ldrmi.w	r3, [r9]
    2cbc:	3302      	addmi	r3, #2
    2cbe:	f8c9 3000 	strmi.w	r3, [r9]
    2cc2:	6825      	ldr	r5, [r4, #0]
    2cc4:	f015 0506 	ands.w	r5, r5, #6
    2cc8:	d110      	bne.n	2cec <_printf_common+0x64>
    2cca:	f104 0a19 	add.w	r10, r4, #25
    2cce:	e007      	b.n	2ce0 <_printf_common+0x58>
    2cd0:	2301      	movs	r3, #1
    2cd2:	4652      	mov	r2, r10
    2cd4:	4639      	mov	r1, r7
    2cd6:	4630      	mov	r0, r6
    2cd8:	47c0      	blx	r8
    2cda:	3001      	adds	r0, #1
    2cdc:	d01a      	beq.n	2d14 <_printf_common+0x8c>
    2cde:	3501      	adds	r5, #1
    2ce0:	68e3      	ldr	r3, [r4, #12]
    2ce2:	f8d9 2000 	ldr.w	r2, [r9]
    2ce6:	1a9b      	subs	r3, r3, r2
    2ce8:	429d      	cmp	r5, r3
    2cea:	dbf1      	blt.n	2cd0 <_printf_common+0x48>
    2cec:	f894 3043 	ldrb.w	r3, [r4, #67]	; 0x43
    2cf0:	6822      	ldr	r2, [r4, #0]
    2cf2:	3300      	adds	r3, #0
    2cf4:	bf18      	it	ne
    2cf6:	2301      	movne	r3, #1
    2cf8:	0692      	lsls	r2, r2, #26
    2cfa:	d50f      	bpl.n	2d1c <_printf_common+0x94>
    2cfc:	18e1      	adds	r1, r4, r3
    2cfe:	2030      	movs	r0, #48	; 0x30
    2d00:	f881 0043 	strb.w	r0, [r1, #67]	; 0x43
    2d04:	1c5a      	adds	r2, r3, #1
    2d06:	f894 1045 	ldrb.w	r1, [r4, #69]	; 0x45
    2d0a:	4422      	add	r2, r4
    2d0c:	3302      	adds	r3, #2
    2d0e:	f882 1043 	strb.w	r1, [r2, #67]	; 0x43
    2d12:	e003      	b.n	2d1c <_printf_common+0x94>
    2d14:	f04f 30ff 	mov.w	r0, #4294967295
    2d18:	e8bd 87f0 	ldmia.w	sp!, {r4, r5, r6, r7, r8, r9, r10, pc}
    2d1c:	f104 0243 	add.w	r2, r4, #67	; 0x43
    2d20:	4639      	mov	r1, r7
    2d22:	4630      	mov	r0, r6
    2d24:	47c0      	blx	r8
    2d26:	3001      	adds	r0, #1
    2d28:	d0f4      	beq.n	2d14 <_printf_common+0x8c>
    2d2a:	6822      	ldr	r2, [r4, #0]
    2d2c:	f8d9 5000 	ldr.w	r5, [r9]
    2d30:	68e3      	ldr	r3, [r4, #12]
    2d32:	f002 0206 	and.w	r2, r2, #6
    2d36:	2a04      	cmp	r2, #4
    2d38:	bf08      	it	eq
    2d3a:	1b5d      	subeq	r5, r3, r5
    2d3c:	6922      	ldr	r2, [r4, #16]
    2d3e:	68a3      	ldr	r3, [r4, #8]
    2d40:	bf0c      	ite	eq
    2d42:	ea25 75e5 	biceq.w	r5, r5, r5, asr #31
    2d46:	2500      	movne	r5, #0
    2d48:	4293      	cmp	r3, r2
    2d4a:	bfc4      	itt	gt
    2d4c:	1a9b      	subgt	r3, r3, r2
    2d4e:	18ed      	addgt	r5, r5, r3
    2d50:	f04f 0900 	mov.w	r9, #0
    2d54:	341a      	adds	r4, #26
    2d56:	454d      	cmp	r5, r9
    2d58:	d009      	beq.n	2d6e <_printf_common+0xe6>
    2d5a:	2301      	movs	r3, #1
    2d5c:	4622      	mov	r2, r4
    2d5e:	4639      	mov	r1, r7
    2d60:	4630      	mov	r0, r6
    2d62:	47c0      	blx	r8
    2d64:	3001      	adds	r0, #1
    2d66:	d0d5      	beq.n	2d14 <_printf_common+0x8c>
    2d68:	f109 0901 	add.w	r9, r9, #1
    2d6c:	e7f3      	b.n	2d56 <_printf_common+0xce>
    2d6e:	2000      	movs	r0, #0
    2d70:	e8bd 87f0 	ldmia.w	sp!, {r4, r5, r6, r7, r8, r9, r10, pc}

00002d74 <_printf_i>:
    2d74:	e92d 43f0 	stmdb	sp!, {r4, r5, r6, r7, r8, r9, lr}
    2d78:	4617      	mov	r7, r2
    2d7a:	7e0a      	ldrb	r2, [r1, #24]
    2d7c:	b085      	sub	sp, #20
    2d7e:	2a6e      	cmp	r2, #110	; 0x6e
    2d80:	4698      	mov	r8, r3
    2d82:	4606      	mov	r6, r0
    2d84:	460c      	mov	r4, r1
    2d86:	9b0c      	ldr	r3, [sp, #48]	; 0x30
    2d88:	f101 0e43 	add.w	lr, r1, #67	; 0x43
    2d8c:	f000 80ae 	beq.w	2eec <_printf_i+0x178>
    2d90:	d811      	bhi.n	2db6 <_printf_i+0x42>
    2d92:	2a63      	cmp	r2, #99	; 0x63
    2d94:	d022      	beq.n	2ddc <_printf_i+0x68>
    2d96:	d809      	bhi.n	2dac <_printf_i+0x38>
    2d98:	2a00      	cmp	r2, #0
    2d9a:	f000 80bb 	beq.w	2f14 <_printf_i+0x1a0>
    2d9e:	2a58      	cmp	r2, #88	; 0x58
    2da0:	f040 80ca 	bne.w	2f38 <_printf_i+0x1c4>
    2da4:	f881 2045 	strb.w	r2, [r1, #69]	; 0x45
    2da8:	4983      	ldr	r1, [pc, #524]	; (2fb8 <_printf_i+0x244>)
    2daa:	e055      	b.n	2e58 <_printf_i+0xe4>
    2dac:	2a64      	cmp	r2, #100	; 0x64
    2dae:	d01e      	beq.n	2dee <_printf_i+0x7a>
    2db0:	2a69      	cmp	r2, #105	; 0x69
    2db2:	d01c      	beq.n	2dee <_printf_i+0x7a>
    2db4:	e0c0      	b.n	2f38 <_printf_i+0x1c4>
    2db6:	2a73      	cmp	r2, #115	; 0x73
    2db8:	f000 80b0 	beq.w	2f1c <_printf_i+0x1a8>
    2dbc:	d809      	bhi.n	2dd2 <_printf_i+0x5e>
    2dbe:	2a6f      	cmp	r2, #111	; 0x6f
    2dc0:	d02e      	beq.n	2e20 <_printf_i+0xac>
    2dc2:	2a70      	cmp	r2, #112	; 0x70
    2dc4:	f040 80b8 	bne.w	2f38 <_printf_i+0x1c4>
    2dc8:	680a      	ldr	r2, [r1, #0]
    2dca:	f042 0220 	orr.w	r2, r2, #32
    2dce:	600a      	str	r2, [r1, #0]
    2dd0:	e03e      	b.n	2e50 <_printf_i+0xdc>
    2dd2:	2a75      	cmp	r2, #117	; 0x75
    2dd4:	d024      	beq.n	2e20 <_printf_i+0xac>
    2dd6:	2a78      	cmp	r2, #120	; 0x78
    2dd8:	d03a      	beq.n	2e50 <_printf_i+0xdc>
    2dda:	e0ad      	b.n	2f38 <_printf_i+0x1c4>
    2ddc:	681a      	ldr	r2, [r3, #0]
    2dde:	f101 0542 	add.w	r5, r1, #66	; 0x42
    2de2:	1d11      	adds	r1, r2, #4
    2de4:	6019      	str	r1, [r3, #0]
    2de6:	6813      	ldr	r3, [r2, #0]
    2de8:	f884 3042 	strb.w	r3, [r4, #66]	; 0x42
    2dec:	e0a8      	b.n	2f40 <_printf_i+0x1cc>
    2dee:	6821      	ldr	r1, [r4, #0]
    2df0:	681a      	ldr	r2, [r3, #0]
    2df2:	f011 0f80 	tst.w	r1, #128	; 0x80
    2df6:	d002      	beq.n	2dfe <_printf_i+0x8a>
    2df8:	1d11      	adds	r1, r2, #4
    2dfa:	6019      	str	r1, [r3, #0]
    2dfc:	e008      	b.n	2e10 <_printf_i+0x9c>
    2dfe:	f011 0f40 	tst.w	r1, #64	; 0x40
    2e02:	f102 0104 	add.w	r1, r2, #4
    2e06:	6019      	str	r1, [r3, #0]
    2e08:	d002      	beq.n	2e10 <_printf_i+0x9c>
    2e0a:	f9b2 3000 	ldrsh.w	r3, [r2]
    2e0e:	e000      	b.n	2e12 <_printf_i+0x9e>
    2e10:	6813      	ldr	r3, [r2, #0]
    2e12:	2b00      	cmp	r3, #0
    2e14:	da3c      	bge.n	2e90 <_printf_i+0x11c>
    2e16:	222d      	movs	r2, #45	; 0x2d
    2e18:	425b      	negs	r3, r3
    2e1a:	f884 2043 	strb.w	r2, [r4, #67]	; 0x43
    2e1e:	e037      	b.n	2e90 <_printf_i+0x11c>
    2e20:	6821      	ldr	r1, [r4, #0]
    2e22:	681a      	ldr	r2, [r3, #0]
    2e24:	f011 0f80 	tst.w	r1, #128	; 0x80
    2e28:	d002      	beq.n	2e30 <_printf_i+0xbc>
    2e2a:	1d11      	adds	r1, r2, #4
    2e2c:	6019      	str	r1, [r3, #0]
    2e2e:	e007      	b.n	2e40 <_printf_i+0xcc>
    2e30:	f011 0f40 	tst.w	r1, #64	; 0x40
    2e34:	f102 0104 	add.w	r1, r2, #4
    2e38:	6019      	str	r1, [r3, #0]
    2e3a:	d001      	beq.n	2e40 <_printf_i+0xcc>
    2e3c:	8813      	ldrh	r3, [r2, #0]
    2e3e:	e000      	b.n	2e42 <_printf_i+0xce>
    2e40:	6813      	ldr	r3, [r2, #0]
    2e42:	7e22      	ldrb	r2, [r4, #24]
    2e44:	495c      	ldr	r1, [pc, #368]	; (2fb8 <_printf_i+0x244>)
    2e46:	2a6f      	cmp	r2, #111	; 0x6f
    2e48:	bf14      	ite	ne
    2e4a:	220a      	movne	r2, #10
    2e4c:	2208      	moveq	r2, #8
    2e4e:	e01b      	b.n	2e88 <_printf_i+0x114>
    2e50:	2278      	movs	r2, #120	; 0x78
    2e52:	495a      	ldr	r1, [pc, #360]	; (2fbc <_printf_i+0x248>)
    2e54:	f884 2045 	strb.w	r2, [r4, #69]	; 0x45
    2e58:	6822      	ldr	r2, [r4, #0]
    2e5a:	6818      	ldr	r0, [r3, #0]
    2e5c:	f012 0f80 	tst.w	r2, #128	; 0x80
    2e60:	f100 0504 	add.w	r5, r0, #4
    2e64:	601d      	str	r5, [r3, #0]
    2e66:	d103      	bne.n	2e70 <_printf_i+0xfc>
    2e68:	0655      	lsls	r5, r2, #25
    2e6a:	d501      	bpl.n	2e70 <_printf_i+0xfc>
    2e6c:	8803      	ldrh	r3, [r0, #0]
    2e6e:	e000      	b.n	2e72 <_printf_i+0xfe>
    2e70:	6803      	ldr	r3, [r0, #0]
    2e72:	07d0      	lsls	r0, r2, #31
    2e74:	bf44      	itt	mi
    2e76:	f042 0220 	orrmi.w	r2, r2, #32
    2e7a:	6022      	strmi	r2, [r4, #0]
    2e7c:	b91b      	cbnz	r3, 2e86 <_printf_i+0x112>
    2e7e:	6822      	ldr	r2, [r4, #0]
    2e80:	f022 0220 	bic.w	r2, r2, #32
    2e84:	6022      	str	r2, [r4, #0]
    2e86:	2210      	movs	r2, #16
    2e88:	2000      	movs	r0, #0
    2e8a:	f884 0043 	strb.w	r0, [r4, #67]	; 0x43
    2e8e:	e001      	b.n	2e94 <_printf_i+0x120>
    2e90:	4949      	ldr	r1, [pc, #292]	; (2fb8 <_printf_i+0x244>)
    2e92:	220a      	movs	r2, #10
    2e94:	6865      	ldr	r5, [r4, #4]
    2e96:	2d00      	cmp	r5, #0
    2e98:	60a5      	str	r5, [r4, #8]
    2e9a:	db08      	blt.n	2eae <_printf_i+0x13a>
    2e9c:	6820      	ldr	r0, [r4, #0]
    2e9e:	f020 0004 	bic.w	r0, r0, #4
    2ea2:	6020      	str	r0, [r4, #0]
    2ea4:	b92b      	cbnz	r3, 2eb2 <_printf_i+0x13e>
    2ea6:	2d00      	cmp	r5, #0
    2ea8:	d17d      	bne.n	2fa6 <_printf_i+0x232>
    2eaa:	4675      	mov	r5, lr
    2eac:	e00c      	b.n	2ec8 <_printf_i+0x154>
    2eae:	2b00      	cmp	r3, #0
    2eb0:	d079      	beq.n	2fa6 <_printf_i+0x232>
    2eb2:	4675      	mov	r5, lr
    2eb4:	fbb3 f0f2 	udiv	r0, r3, r2
    2eb8:	fb02 3310 	mls	r3, r2, r0, r3
    2ebc:	5ccb      	ldrb	r3, [r1, r3]
    2ebe:	f805 3d01 	strb.w	r3, [r5, #-1]!
    2ec2:	4603      	mov	r3, r0
    2ec4:	2800      	cmp	r0, #0
    2ec6:	d1f5      	bne.n	2eb4 <_printf_i+0x140>
    2ec8:	2a08      	cmp	r2, #8
    2eca:	d10b      	bne.n	2ee4 <_printf_i+0x170>
    2ecc:	6823      	ldr	r3, [r4, #0]
    2ece:	07da      	lsls	r2, r3, #31
    2ed0:	d508      	bpl.n	2ee4 <_printf_i+0x170>
    2ed2:	6923      	ldr	r3, [r4, #16]
    2ed4:	6862      	ldr	r2, [r4, #4]
    2ed6:	429a      	cmp	r2, r3
    2ed8:	bfde      	ittt	le
    2eda:	2330      	movle	r3, #48	; 0x30
    2edc:	f805 3c01 	strble.w	r3, [r5, #-1]
    2ee0:	f105 35ff 	addle.w	r5, r5, #4294967295
    2ee4:	ebc5 030e 	rsb	r3, r5, lr
    2ee8:	6123      	str	r3, [r4, #16]
    2eea:	e02e      	b.n	2f4a <_printf_i+0x1d6>
    2eec:	6808      	ldr	r0, [r1, #0]
    2eee:	681a      	ldr	r2, [r3, #0]
    2ef0:	f010 0f80 	tst.w	r0, #128	; 0x80
    2ef4:	6949      	ldr	r1, [r1, #20]
    2ef6:	d003      	beq.n	2f00 <_printf_i+0x18c>
    2ef8:	1d10      	adds	r0, r2, #4
    2efa:	6018      	str	r0, [r3, #0]
    2efc:	6813      	ldr	r3, [r2, #0]
    2efe:	e008      	b.n	2f12 <_printf_i+0x19e>
    2f00:	f010 0f40 	tst.w	r0, #64	; 0x40
    2f04:	f102 0004 	add.w	r0, r2, #4
    2f08:	6018      	str	r0, [r3, #0]
    2f0a:	6813      	ldr	r3, [r2, #0]
    2f0c:	d001      	beq.n	2f12 <_printf_i+0x19e>
    2f0e:	8019      	strh	r1, [r3, #0]
    2f10:	e000      	b.n	2f14 <_printf_i+0x1a0>
    2f12:	6019      	str	r1, [r3, #0]
    2f14:	2300      	movs	r3, #0
    2f16:	6123      	str	r3, [r4, #16]
    2f18:	4675      	mov	r5, lr
    2f1a:	e016      	b.n	2f4a <_printf_i+0x1d6>
    2f1c:	681a      	ldr	r2, [r3, #0]
    2f1e:	1d11      	adds	r1, r2, #4
    2f20:	6019      	str	r1, [r3, #0]
    2f22:	6815      	ldr	r5, [r2, #0]
    2f24:	2100      	movs	r1, #0
    2f26:	6862      	ldr	r2, [r4, #4]
    2f28:	4628      	mov	r0, r5
    2f2a:	f7ff f9dd 	bl	22e8 <memchr>
    2f2e:	b108      	cbz	r0, 2f34 <_printf_i+0x1c0>
    2f30:	1b40      	subs	r0, r0, r5
    2f32:	6060      	str	r0, [r4, #4]
    2f34:	6863      	ldr	r3, [r4, #4]
    2f36:	e004      	b.n	2f42 <_printf_i+0x1ce>
    2f38:	f104 0542 	add.w	r5, r4, #66	; 0x42
    2f3c:	f884 2042 	strb.w	r2, [r4, #66]	; 0x42
    2f40:	2301      	movs	r3, #1
    2f42:	6123      	str	r3, [r4, #16]
    2f44:	2300      	movs	r3, #0
    2f46:	f884 3043 	strb.w	r3, [r4, #67]	; 0x43
    2f4a:	f8cd 8000 	str.w	r8, [sp]
    2f4e:	463b      	mov	r3, r7
    2f50:	aa03      	add	r2, sp, #12
    2f52:	4621      	mov	r1, r4
    2f54:	4630      	mov	r0, r6
    2f56:	f7ff fe97 	bl	2c88 <_printf_common>
    2f5a:	3001      	adds	r0, #1
    2f5c:	d102      	bne.n	2f64 <_printf_i+0x1f0>
    2f5e:	f04f 30ff 	mov.w	r0, #4294967295
    2f62:	e026      	b.n	2fb2 <_printf_i+0x23e>
    2f64:	6923      	ldr	r3, [r4, #16]
    2f66:	462a      	mov	r2, r5
    2f68:	4639      	mov	r1, r7
    2f6a:	4630      	mov	r0, r6
    2f6c:	47c0      	blx	r8
    2f6e:	3001      	adds	r0, #1
    2f70:	d0f5      	beq.n	2f5e <_printf_i+0x1ea>
    2f72:	6823      	ldr	r3, [r4, #0]
    2f74:	079b      	lsls	r3, r3, #30
    2f76:	d510      	bpl.n	2f9a <_printf_i+0x226>
    2f78:	2500      	movs	r5, #0
    2f7a:	f104 0919 	add.w	r9, r4, #25
    2f7e:	e007      	b.n	2f90 <_printf_i+0x21c>
    2f80:	2301      	movs	r3, #1
    2f82:	464a      	mov	r2, r9
    2f84:	4639      	mov	r1, r7
    2f86:	4630      	mov	r0, r6
    2f88:	47c0      	blx	r8
    2f8a:	3001      	adds	r0, #1
    2f8c:	d0e7      	beq.n	2f5e <_printf_i+0x1ea>
    2f8e:	3501      	adds	r5, #1
    2f90:	68e3      	ldr	r3, [r4, #12]
    2f92:	9a03      	ldr	r2, [sp, #12]
    2f94:	1a9b      	subs	r3, r3, r2
    2f96:	429d      	cmp	r5, r3
    2f98:	dbf2      	blt.n	2f80 <_printf_i+0x20c>
    2f9a:	68e0      	ldr	r0, [r4, #12]
    2f9c:	9b03      	ldr	r3, [sp, #12]
    2f9e:	4298      	cmp	r0, r3
    2fa0:	bfb8      	it	lt
    2fa2:	4618      	movlt	r0, r3
    2fa4:	e005      	b.n	2fb2 <_printf_i+0x23e>
    2fa6:	780b      	ldrb	r3, [r1, #0]
    2fa8:	f104 0542 	add.w	r5, r4, #66	; 0x42
    2fac:	f884 3042 	strb.w	r3, [r4, #66]	; 0x42
    2fb0:	e78a      	b.n	2ec8 <_printf_i+0x154>
    2fb2:	b005      	add	sp, #20
    2fb4:	e8bd 83f0 	ldmia.w	sp!, {r4, r5, r6, r7, r8, r9, pc}
    2fb8:	00004e1b 	.word	0x00004e1b
    2fbc:	00004e2c 	.word	0x00004e2c

00002fc0 <iprintf>:
    2fc0:	b40f      	push	{r0, r1, r2, r3}
    2fc2:	4b0a      	ldr	r3, [pc, #40]	; (2fec <iprintf+0x2c>)
    2fc4:	b513      	push	{r0, r1, r4, lr}
    2fc6:	681c      	ldr	r4, [r3, #0]
    2fc8:	b124      	cbz	r4, 2fd4 <iprintf+0x14>
    2fca:	69a3      	ldr	r3, [r4, #24]
    2fcc:	b913      	cbnz	r3, 2fd4 <iprintf+0x14>
    2fce:	4620      	mov	r0, r4
    2fd0:	f7ff f886 	bl	20e0 <__sinit>
    2fd4:	ab05      	add	r3, sp, #20
    2fd6:	9a04      	ldr	r2, [sp, #16]
    2fd8:	68a1      	ldr	r1, [r4, #8]
    2fda:	4620      	mov	r0, r4
    2fdc:	9301      	str	r3, [sp, #4]
    2fde:	f7ff fa65 	bl	24ac <_vfiprintf_r>
    2fe2:	b002      	add	sp, #8
    2fe4:	e8bd 4010 	ldmia.w	sp!, {r4, lr}
    2fe8:	b004      	add	sp, #16
    2fea:	4770      	bx	lr
    2fec:	1000014c 	.word	0x1000014c

00002ff0 <__fpclassifyd>:
    2ff0:	f031 4300 	bics.w	r3, r1, #2147483648	; 0x80000000
    2ff4:	b510      	push	{r4, lr}
    2ff6:	d01b      	beq.n	3030 <__fpclassifyd+0x40>
    2ff8:	4a0f      	ldr	r2, [pc, #60]	; (3038 <__fpclassifyd+0x48>)
    2ffa:	f5a1 1480 	sub.w	r4, r1, #1048576	; 0x100000
    2ffe:	4294      	cmp	r4, r2
    3000:	d910      	bls.n	3024 <__fpclassifyd+0x34>
    3002:	f101 41ff 	add.w	r1, r1, #2139095040	; 0x7f800000
    3006:	4a0c      	ldr	r2, [pc, #48]	; (3038 <__fpclassifyd+0x48>)
    3008:	f501 01e0 	add.w	r1, r1, #7340032	; 0x700000
    300c:	4291      	cmp	r1, r2
    300e:	d909      	bls.n	3024 <__fpclassifyd+0x34>
    3010:	f5b3 1f80 	cmp.w	r3, #1048576	; 0x100000
    3014:	d308      	bcc.n	3028 <__fpclassifyd+0x38>
    3016:	4a09      	ldr	r2, [pc, #36]	; (303c <__fpclassifyd+0x4c>)
    3018:	4293      	cmp	r3, r2
    301a:	d107      	bne.n	302c <__fpclassifyd+0x3c>
    301c:	fab0 f080 	clz	r0, r0
    3020:	0940      	lsrs	r0, r0, #5
    3022:	bd10      	pop	{r4, pc}
    3024:	2004      	movs	r0, #4
    3026:	bd10      	pop	{r4, pc}
    3028:	2003      	movs	r0, #3
    302a:	bd10      	pop	{r4, pc}
    302c:	2000      	movs	r0, #0
    302e:	bd10      	pop	{r4, pc}
    3030:	2800      	cmp	r0, #0
    3032:	d1e6      	bne.n	3002 <__fpclassifyd+0x12>
    3034:	2002      	movs	r0, #2
    3036:	bd10      	pop	{r4, pc}
    3038:	7fdfffff 	.word	0x7fdfffff
    303c:	7ff00000 	.word	0x7ff00000

00003040 <_sbrk_r>:
    3040:	b538      	push	{r3, r4, r5, lr}
    3042:	4c06      	ldr	r4, [pc, #24]	; (305c <_sbrk_r+0x1c>)
    3044:	2300      	movs	r3, #0
    3046:	4605      	mov	r5, r0
    3048:	4608      	mov	r0, r1
    304a:	6023      	str	r3, [r4, #0]
    304c:	f7fe f9e2 	bl	1414 <_sbrk>
    3050:	1c43      	adds	r3, r0, #1
    3052:	d102      	bne.n	305a <_sbrk_r+0x1a>
    3054:	6823      	ldr	r3, [r4, #0]
    3056:	b103      	cbz	r3, 305a <_sbrk_r+0x1a>
    3058:	602b      	str	r3, [r5, #0]
    305a:	bd38      	pop	{r3, r4, r5, pc}
    305c:	100051e8 	.word	0x100051e8

00003060 <__sread>:
    3060:	b510      	push	{r4, lr}
    3062:	460c      	mov	r4, r1
    3064:	f9b1 100e 	ldrsh.w	r1, [r1, #14]
    3068:	f001 fa6a 	bl	4540 <_read_r>
    306c:	2800      	cmp	r0, #0
    306e:	bfab      	itete	ge
    3070:	6d63      	ldrge	r3, [r4, #84]	; 0x54
    3072:	89a3      	ldrhlt	r3, [r4, #12]
    3074:	181b      	addge	r3, r3, r0
    3076:	f423 5380 	biclt.w	r3, r3, #4096	; 0x1000
    307a:	bfac      	ite	ge
    307c:	6563      	strge	r3, [r4, #84]	; 0x54
    307e:	81a3      	strhlt	r3, [r4, #12]
    3080:	bd10      	pop	{r4, pc}

00003082 <__swrite>:
    3082:	e92d 41f0 	stmdb	sp!, {r4, r5, r6, r7, r8, lr}
    3086:	461f      	mov	r7, r3
    3088:	898b      	ldrh	r3, [r1, #12]
    308a:	4605      	mov	r5, r0
    308c:	05db      	lsls	r3, r3, #23
    308e:	460c      	mov	r4, r1
    3090:	4616      	mov	r6, r2
    3092:	d505      	bpl.n	30a0 <__swrite+0x1e>
    3094:	2302      	movs	r3, #2
    3096:	2200      	movs	r2, #0
    3098:	f9b1 100e 	ldrsh.w	r1, [r1, #14]
    309c:	f000 ff5a 	bl	3f54 <_lseek_r>
    30a0:	89a3      	ldrh	r3, [r4, #12]
    30a2:	4632      	mov	r2, r6
    30a4:	f423 5380 	bic.w	r3, r3, #4096	; 0x1000
    30a8:	81a3      	strh	r3, [r4, #12]
    30aa:	f9b4 100e 	ldrsh.w	r1, [r4, #14]
    30ae:	463b      	mov	r3, r7
    30b0:	4628      	mov	r0, r5
    30b2:	e8bd 41f0 	ldmia.w	sp!, {r4, r5, r6, r7, r8, lr}
    30b6:	f000 b873 	b.w	31a0 <_write_r>

000030ba <__sseek>:
    30ba:	b510      	push	{r4, lr}
    30bc:	460c      	mov	r4, r1
    30be:	f9b1 100e 	ldrsh.w	r1, [r1, #14]
    30c2:	f000 ff47 	bl	3f54 <_lseek_r>
    30c6:	1c43      	adds	r3, r0, #1
    30c8:	89a3      	ldrh	r3, [r4, #12]
    30ca:	bf15      	itete	ne
    30cc:	6560      	strne	r0, [r4, #84]	; 0x54
    30ce:	f423 5380 	biceq.w	r3, r3, #4096	; 0x1000
    30d2:	f443 5380 	orrne.w	r3, r3, #4096	; 0x1000
    30d6:	81a3      	strheq	r3, [r4, #12]
    30d8:	bf18      	it	ne
    30da:	81a3      	strhne	r3, [r4, #12]
    30dc:	bd10      	pop	{r4, pc}

000030de <__sclose>:
    30de:	f9b1 100e 	ldrsh.w	r1, [r1, #14]
    30e2:	f000 b8db 	b.w	329c <_close_r>

000030e6 <strlen>:
    30e6:	4603      	mov	r3, r0
    30e8:	f813 2b01 	ldrb.w	r2, [r3], #1
    30ec:	2a00      	cmp	r2, #0
    30ee:	d1fb      	bne.n	30e8 <strlen+0x2>
    30f0:	1a18      	subs	r0, r3, r0
    30f2:	3801      	subs	r0, #1
    30f4:	4770      	bx	lr
	...

000030f8 <__swbuf_r>:
    30f8:	b5f8      	push	{r3, r4, r5, r6, r7, lr}
    30fa:	460f      	mov	r7, r1
    30fc:	4614      	mov	r4, r2
    30fe:	4606      	mov	r6, r0
    3100:	b118      	cbz	r0, 310a <__swbuf_r+0x12>
    3102:	6983      	ldr	r3, [r0, #24]
    3104:	b90b      	cbnz	r3, 310a <__swbuf_r+0x12>
    3106:	f7fe ffeb 	bl	20e0 <__sinit>
    310a:	4b22      	ldr	r3, [pc, #136]	; (3194 <__swbuf_r+0x9c>)
    310c:	429c      	cmp	r4, r3
    310e:	d101      	bne.n	3114 <__swbuf_r+0x1c>
    3110:	6874      	ldr	r4, [r6, #4]
    3112:	e008      	b.n	3126 <__swbuf_r+0x2e>
    3114:	4b20      	ldr	r3, [pc, #128]	; (3198 <__swbuf_r+0xa0>)
    3116:	429c      	cmp	r4, r3
    3118:	d101      	bne.n	311e <__swbuf_r+0x26>
    311a:	68b4      	ldr	r4, [r6, #8]
    311c:	e003      	b.n	3126 <__swbuf_r+0x2e>
    311e:	4b1f      	ldr	r3, [pc, #124]	; (319c <__swbuf_r+0xa4>)
    3120:	429c      	cmp	r4, r3
    3122:	bf08      	it	eq
    3124:	68f4      	ldreq	r4, [r6, #12]
    3126:	69a3      	ldr	r3, [r4, #24]
    3128:	60a3      	str	r3, [r4, #8]
    312a:	89a3      	ldrh	r3, [r4, #12]
    312c:	071a      	lsls	r2, r3, #28
    312e:	d509      	bpl.n	3144 <__swbuf_r+0x4c>
    3130:	6923      	ldr	r3, [r4, #16]
    3132:	b13b      	cbz	r3, 3144 <__swbuf_r+0x4c>
    3134:	6823      	ldr	r3, [r4, #0]
    3136:	6920      	ldr	r0, [r4, #16]
    3138:	b2fd      	uxtb	r5, r7
    313a:	1a18      	subs	r0, r3, r0
    313c:	6963      	ldr	r3, [r4, #20]
    313e:	4298      	cmp	r0, r3
    3140:	db0f      	blt.n	3162 <__swbuf_r+0x6a>
    3142:	e008      	b.n	3156 <__swbuf_r+0x5e>
    3144:	4621      	mov	r1, r4
    3146:	4630      	mov	r0, r6
    3148:	f000 f83c 	bl	31c4 <__swsetup_r>
    314c:	2800      	cmp	r0, #0
    314e:	d0f1      	beq.n	3134 <__swbuf_r+0x3c>
    3150:	f04f 30ff 	mov.w	r0, #4294967295
    3154:	bdf8      	pop	{r3, r4, r5, r6, r7, pc}
    3156:	4621      	mov	r1, r4
    3158:	4630      	mov	r0, r6
    315a:	f7fe ff45 	bl	1fe8 <_fflush_r>
    315e:	2800      	cmp	r0, #0
    3160:	d1f6      	bne.n	3150 <__swbuf_r+0x58>
    3162:	68a3      	ldr	r3, [r4, #8]
    3164:	3b01      	subs	r3, #1
    3166:	60a3      	str	r3, [r4, #8]
    3168:	6823      	ldr	r3, [r4, #0]
    316a:	1c5a      	adds	r2, r3, #1
    316c:	6022      	str	r2, [r4, #0]
    316e:	701f      	strb	r7, [r3, #0]
    3170:	6962      	ldr	r2, [r4, #20]
    3172:	1c43      	adds	r3, r0, #1
    3174:	4293      	cmp	r3, r2
    3176:	d004      	beq.n	3182 <__swbuf_r+0x8a>
    3178:	89a3      	ldrh	r3, [r4, #12]
    317a:	07db      	lsls	r3, r3, #31
    317c:	d507      	bpl.n	318e <__swbuf_r+0x96>
    317e:	2d0a      	cmp	r5, #10
    3180:	d105      	bne.n	318e <__swbuf_r+0x96>
    3182:	4621      	mov	r1, r4
    3184:	4630      	mov	r0, r6
    3186:	f7fe ff2f 	bl	1fe8 <_fflush_r>
    318a:	2800      	cmp	r0, #0
    318c:	d1e0      	bne.n	3150 <__swbuf_r+0x58>
    318e:	4628      	mov	r0, r5
    3190:	bdf8      	pop	{r3, r4, r5, r6, r7, pc}
    3192:	bf00      	nop
    3194:	00004d90 	.word	0x00004d90
    3198:	00004db0 	.word	0x00004db0
    319c:	00004dd0 	.word	0x00004dd0

000031a0 <_write_r>:
    31a0:	b538      	push	{r3, r4, r5, lr}
    31a2:	4c07      	ldr	r4, [pc, #28]	; (31c0 <_write_r+0x20>)
    31a4:	4605      	mov	r5, r0
    31a6:	4608      	mov	r0, r1
    31a8:	4611      	mov	r1, r2
    31aa:	2200      	movs	r2, #0
    31ac:	6022      	str	r2, [r4, #0]
    31ae:	461a      	mov	r2, r3
    31b0:	f7fe f8a6 	bl	1300 <_write>
    31b4:	1c43      	adds	r3, r0, #1
    31b6:	d102      	bne.n	31be <_write_r+0x1e>
    31b8:	6823      	ldr	r3, [r4, #0]
    31ba:	b103      	cbz	r3, 31be <_write_r+0x1e>
    31bc:	602b      	str	r3, [r5, #0]
    31be:	bd38      	pop	{r3, r4, r5, pc}
    31c0:	100051e8 	.word	0x100051e8

000031c4 <__swsetup_r>:
    31c4:	4b31      	ldr	r3, [pc, #196]	; (328c <__swsetup_r+0xc8>)
    31c6:	b570      	push	{r4, r5, r6, lr}
    31c8:	681d      	ldr	r5, [r3, #0]
    31ca:	4606      	mov	r6, r0
    31cc:	460c      	mov	r4, r1
    31ce:	b125      	cbz	r5, 31da <__swsetup_r+0x16>
    31d0:	69ab      	ldr	r3, [r5, #24]
    31d2:	b913      	cbnz	r3, 31da <__swsetup_r+0x16>
    31d4:	4628      	mov	r0, r5
    31d6:	f7fe ff83 	bl	20e0 <__sinit>
    31da:	4b2d      	ldr	r3, [pc, #180]	; (3290 <__swsetup_r+0xcc>)
    31dc:	429c      	cmp	r4, r3
    31de:	d101      	bne.n	31e4 <__swsetup_r+0x20>
    31e0:	686c      	ldr	r4, [r5, #4]
    31e2:	e008      	b.n	31f6 <__swsetup_r+0x32>
    31e4:	4b2b      	ldr	r3, [pc, #172]	; (3294 <__swsetup_r+0xd0>)
    31e6:	429c      	cmp	r4, r3
    31e8:	d101      	bne.n	31ee <__swsetup_r+0x2a>
    31ea:	68ac      	ldr	r4, [r5, #8]
    31ec:	e003      	b.n	31f6 <__swsetup_r+0x32>
    31ee:	4b2a      	ldr	r3, [pc, #168]	; (3298 <__swsetup_r+0xd4>)
    31f0:	429c      	cmp	r4, r3
    31f2:	bf08      	it	eq
    31f4:	68ec      	ldreq	r4, [r5, #12]
    31f6:	89a3      	ldrh	r3, [r4, #12]
    31f8:	b29a      	uxth	r2, r3
    31fa:	0711      	lsls	r1, r2, #28
    31fc:	d41d      	bmi.n	323a <__swsetup_r+0x76>
    31fe:	06d5      	lsls	r5, r2, #27
    3200:	d402      	bmi.n	3208 <__swsetup_r+0x44>
    3202:	2209      	movs	r2, #9
    3204:	6032      	str	r2, [r6, #0]
    3206:	e038      	b.n	327a <__swsetup_r+0xb6>
    3208:	0750      	lsls	r0, r2, #29
    320a:	d512      	bpl.n	3232 <__swsetup_r+0x6e>
    320c:	6b61      	ldr	r1, [r4, #52]	; 0x34
    320e:	b141      	cbz	r1, 3222 <__swsetup_r+0x5e>
    3210:	f104 0344 	add.w	r3, r4, #68	; 0x44
    3214:	4299      	cmp	r1, r3
    3216:	d002      	beq.n	321e <__swsetup_r+0x5a>
    3218:	4630      	mov	r0, r6
    321a:	f7ff f887 	bl	232c <_free_r>
    321e:	2300      	movs	r3, #0
    3220:	6363      	str	r3, [r4, #52]	; 0x34
    3222:	89a3      	ldrh	r3, [r4, #12]
    3224:	f023 0324 	bic.w	r3, r3, #36	; 0x24
    3228:	81a3      	strh	r3, [r4, #12]
    322a:	2300      	movs	r3, #0
    322c:	6063      	str	r3, [r4, #4]
    322e:	6923      	ldr	r3, [r4, #16]
    3230:	6023      	str	r3, [r4, #0]
    3232:	89a3      	ldrh	r3, [r4, #12]
    3234:	f043 0308 	orr.w	r3, r3, #8
    3238:	81a3      	strh	r3, [r4, #12]
    323a:	6923      	ldr	r3, [r4, #16]
    323c:	b94b      	cbnz	r3, 3252 <__swsetup_r+0x8e>
    323e:	89a3      	ldrh	r3, [r4, #12]
    3240:	f403 7320 	and.w	r3, r3, #640	; 0x280
    3244:	f5b3 7f00 	cmp.w	r3, #512	; 0x200
    3248:	d003      	beq.n	3252 <__swsetup_r+0x8e>
    324a:	4621      	mov	r1, r4
    324c:	4630      	mov	r0, r6
    324e:	f7fe fff7 	bl	2240 <__smakebuf_r>
    3252:	89a3      	ldrh	r3, [r4, #12]
    3254:	f013 0201 	ands.w	r2, r3, #1
    3258:	d005      	beq.n	3266 <__swsetup_r+0xa2>
    325a:	2200      	movs	r2, #0
    325c:	60a2      	str	r2, [r4, #8]
    325e:	6962      	ldr	r2, [r4, #20]
    3260:	4252      	negs	r2, r2
    3262:	61a2      	str	r2, [r4, #24]
    3264:	e003      	b.n	326e <__swsetup_r+0xaa>
    3266:	0799      	lsls	r1, r3, #30
    3268:	bf58      	it	pl
    326a:	6962      	ldrpl	r2, [r4, #20]
    326c:	60a2      	str	r2, [r4, #8]
    326e:	6922      	ldr	r2, [r4, #16]
    3270:	b94a      	cbnz	r2, 3286 <__swsetup_r+0xc2>
    3272:	f003 0080 	and.w	r0, r3, #128	; 0x80
    3276:	b280      	uxth	r0, r0
    3278:	b130      	cbz	r0, 3288 <__swsetup_r+0xc4>
    327a:	f043 0340 	orr.w	r3, r3, #64	; 0x40
    327e:	81a3      	strh	r3, [r4, #12]
    3280:	f04f 30ff 	mov.w	r0, #4294967295
    3284:	bd70      	pop	{r4, r5, r6, pc}
    3286:	2000      	movs	r0, #0
    3288:	bd70      	pop	{r4, r5, r6, pc}
    328a:	bf00      	nop
    328c:	1000014c 	.word	0x1000014c
    3290:	00004d90 	.word	0x00004d90
    3294:	00004db0 	.word	0x00004db0
    3298:	00004dd0 	.word	0x00004dd0

0000329c <_close_r>:
    329c:	b538      	push	{r3, r4, r5, lr}
    329e:	4c06      	ldr	r4, [pc, #24]	; (32b8 <_close_r+0x1c>)
    32a0:	2300      	movs	r3, #0
    32a2:	4605      	mov	r5, r0
    32a4:	4608      	mov	r0, r1
    32a6:	6023      	str	r3, [r4, #0]
    32a8:	f7fe f816 	bl	12d8 <_close>
    32ac:	1c43      	adds	r3, r0, #1
    32ae:	d102      	bne.n	32b6 <_close_r+0x1a>
    32b0:	6823      	ldr	r3, [r4, #0]
    32b2:	b103      	cbz	r3, 32b6 <_close_r+0x1a>
    32b4:	602b      	str	r3, [r5, #0]
    32b6:	bd38      	pop	{r3, r4, r5, pc}
    32b8:	100051e8 	.word	0x100051e8

000032bc <quorem>:
    32bc:	e92d 4ff7 	stmdb	sp!, {r0, r1, r2, r4, r5, r6, r7, r8, r9, r10, r11, lr}
    32c0:	6903      	ldr	r3, [r0, #16]
    32c2:	690c      	ldr	r4, [r1, #16]
    32c4:	4680      	mov	r8, r0
    32c6:	429c      	cmp	r4, r3
    32c8:	dc7f      	bgt.n	33ca <quorem+0x10e>
    32ca:	3c01      	subs	r4, #1
    32cc:	f101 0714 	add.w	r7, r1, #20
    32d0:	ea4f 0e84 	mov.w	lr, r4, lsl #2
    32d4:	f100 0614 	add.w	r6, r0, #20
    32d8:	eb06 030e 	add.w	r3, r6, lr
    32dc:	f857 5024 	ldr.w	r5, [r7, r4, lsl #2]
    32e0:	9301      	str	r3, [sp, #4]
    32e2:	f856 3024 	ldr.w	r3, [r6, r4, lsl #2]
    32e6:	3501      	adds	r5, #1
    32e8:	fbb3 f5f5 	udiv	r5, r3, r5
    32ec:	eb07 090e 	add.w	r9, r7, lr
    32f0:	b3c5      	cbz	r5, 3364 <quorem+0xa8>
    32f2:	f04f 0a00 	mov.w	r10, #0
    32f6:	4638      	mov	r0, r7
    32f8:	46b4      	mov	r12, r6
    32fa:	46d3      	mov	r11, r10
    32fc:	f850 3b04 	ldr.w	r3, [r0], #4
    3300:	b29a      	uxth	r2, r3
    3302:	fb05 a202 	mla	r2, r5, r2, r10
    3306:	0c1b      	lsrs	r3, r3, #16
    3308:	ea4f 4a12 	mov.w	r10, r2, lsr #16
    330c:	fb05 a303 	mla	r3, r5, r3, r10
    3310:	b292      	uxth	r2, r2
    3312:	ebc2 0b0b 	rsb	r11, r2, r11
    3316:	f8bc 2000 	ldrh.w	r2, [r12]
    331a:	ea4f 4a13 	mov.w	r10, r3, lsr #16
    331e:	445a      	add	r2, r11
    3320:	fa1f fb83 	uxth.w	r11, r3
    3324:	f8dc 3000 	ldr.w	r3, [r12]
    3328:	4581      	cmp	r9, r0
    332a:	ebcb 4313 	rsb	r3, r11, r3, lsr #16
    332e:	eb03 4322 	add.w	r3, r3, r2, asr #16
    3332:	b292      	uxth	r2, r2
    3334:	ea42 4203 	orr.w	r2, r2, r3, lsl #16
    3338:	ea4f 4b23 	mov.w	r11, r3, asr #16
    333c:	f84c 2b04 	str.w	r2, [r12], #4
    3340:	d2dc      	bcs.n	32fc <quorem+0x40>
    3342:	f856 300e 	ldr.w	r3, [r6, lr]
    3346:	b96b      	cbnz	r3, 3364 <quorem+0xa8>
    3348:	9b01      	ldr	r3, [sp, #4]
    334a:	3b04      	subs	r3, #4
    334c:	429e      	cmp	r6, r3
    334e:	461a      	mov	r2, r3
    3350:	d302      	bcc.n	3358 <quorem+0x9c>
    3352:	f8c8 4010 	str.w	r4, [r8, #16]
    3356:	e005      	b.n	3364 <quorem+0xa8>
    3358:	6812      	ldr	r2, [r2, #0]
    335a:	3b04      	subs	r3, #4
    335c:	2a00      	cmp	r2, #0
    335e:	d1f8      	bne.n	3352 <quorem+0x96>
    3360:	3c01      	subs	r4, #1
    3362:	e7f3      	b.n	334c <quorem+0x90>
    3364:	4640      	mov	r0, r8
    3366:	f001 f814 	bl	4392 <__mcmp>
    336a:	2800      	cmp	r0, #0
    336c:	db2b      	blt.n	33c6 <quorem+0x10a>
    336e:	4630      	mov	r0, r6
    3370:	3501      	adds	r5, #1
    3372:	f04f 0e00 	mov.w	lr, #0
    3376:	f857 2b04 	ldr.w	r2, [r7], #4
    337a:	6803      	ldr	r3, [r0, #0]
    337c:	b291      	uxth	r1, r2
    337e:	ebc1 0e0e 	rsb	lr, r1, lr
    3382:	0c12      	lsrs	r2, r2, #16
    3384:	b299      	uxth	r1, r3
    3386:	4471      	add	r1, lr
    3388:	ebc2 4313 	rsb	r3, r2, r3, lsr #16
    338c:	eb03 4321 	add.w	r3, r3, r1, asr #16
    3390:	b289      	uxth	r1, r1
    3392:	ea4f 4e23 	mov.w	lr, r3, asr #16
    3396:	45b9      	cmp	r9, r7
    3398:	ea41 4303 	orr.w	r3, r1, r3, lsl #16
    339c:	f840 3b04 	str.w	r3, [r0], #4
    33a0:	d2e9      	bcs.n	3376 <quorem+0xba>
    33a2:	f856 2024 	ldr.w	r2, [r6, r4, lsl #2]
    33a6:	eb06 0384 	add.w	r3, r6, r4, lsl #2
    33aa:	b962      	cbnz	r2, 33c6 <quorem+0x10a>
    33ac:	3b04      	subs	r3, #4
    33ae:	429e      	cmp	r6, r3
    33b0:	461a      	mov	r2, r3
    33b2:	d302      	bcc.n	33ba <quorem+0xfe>
    33b4:	f8c8 4010 	str.w	r4, [r8, #16]
    33b8:	e005      	b.n	33c6 <quorem+0x10a>
    33ba:	6812      	ldr	r2, [r2, #0]
    33bc:	3b04      	subs	r3, #4
    33be:	2a00      	cmp	r2, #0
    33c0:	d1f8      	bne.n	33b4 <quorem+0xf8>
    33c2:	3c01      	subs	r4, #1
    33c4:	e7f3      	b.n	33ae <quorem+0xf2>
    33c6:	4628      	mov	r0, r5
    33c8:	e000      	b.n	33cc <quorem+0x110>
    33ca:	2000      	movs	r0, #0
    33cc:	b003      	add	sp, #12
    33ce:	e8bd 8ff0 	ldmia.w	sp!, {r4, r5, r6, r7, r8, r9, r10, r11, pc}
    33d2:	0000      	movs	r0, r0
    33d4:	0000      	movs	r0, r0
	...

000033d8 <_dtoa_r>:
    33d8:	e92d 4ff0 	stmdb	sp!, {r4, r5, r6, r7, r8, r9, r10, r11, lr}
    33dc:	6a45      	ldr	r5, [r0, #36]	; 0x24
    33de:	b095      	sub	sp, #84	; 0x54
    33e0:	4682      	mov	r10, r0
    33e2:	9c21      	ldr	r4, [sp, #132]	; 0x84
    33e4:	e9cd 2302 	strd	r2, r3, [sp, #8]
    33e8:	b945      	cbnz	r5, 33fc <_dtoa_r+0x24>
    33ea:	2010      	movs	r0, #16
    33ec:	f7fc ff3c 	bl	268 <__wrap_malloc>
    33f0:	f8ca 0024 	str.w	r0, [r10, #36]	; 0x24
    33f4:	6045      	str	r5, [r0, #4]
    33f6:	6085      	str	r5, [r0, #8]
    33f8:	6005      	str	r5, [r0, #0]
    33fa:	60c5      	str	r5, [r0, #12]
    33fc:	f8da 3024 	ldr.w	r3, [r10, #36]	; 0x24
    3400:	6819      	ldr	r1, [r3, #0]
    3402:	b159      	cbz	r1, 341c <_dtoa_r+0x44>
    3404:	685a      	ldr	r2, [r3, #4]
    3406:	2301      	movs	r3, #1
    3408:	4093      	lsls	r3, r2
    340a:	604a      	str	r2, [r1, #4]
    340c:	608b      	str	r3, [r1, #8]
    340e:	4650      	mov	r0, r10
    3410:	f000 fde7 	bl	3fe2 <_Bfree>
    3414:	f8da 3024 	ldr.w	r3, [r10, #36]	; 0x24
    3418:	2200      	movs	r2, #0
    341a:	601a      	str	r2, [r3, #0]
    341c:	9b03      	ldr	r3, [sp, #12]
    341e:	4aa0      	ldr	r2, [pc, #640]	; (36a0 <_dtoa_r+0x2c8>)
    3420:	2b00      	cmp	r3, #0
    3422:	bfbd      	ittte	lt
    3424:	2301      	movlt	r3, #1
    3426:	6023      	strlt	r3, [r4, #0]
    3428:	9b03      	ldrlt	r3, [sp, #12]
    342a:	2300      	movge	r3, #0
    342c:	bfbc      	itt	lt
    342e:	f023 4300 	biclt.w	r3, r3, #2147483648	; 0x80000000
    3432:	9303      	strlt	r3, [sp, #12]
    3434:	f8dd 800c 	ldr.w	r8, [sp, #12]
    3438:	bfa8      	it	ge
    343a:	6023      	strge	r3, [r4, #0]
    343c:	f028 4300 	bic.w	r3, r8, #2147483648	; 0x80000000
    3440:	0d1b      	lsrs	r3, r3, #20
    3442:	051b      	lsls	r3, r3, #20
    3444:	4293      	cmp	r3, r2
    3446:	d11d      	bne.n	3484 <_dtoa_r+0xac>
    3448:	f242 730f 	movw	r3, #9999	; 0x270f
    344c:	9a20      	ldr	r2, [sp, #128]	; 0x80
    344e:	6013      	str	r3, [r2, #0]
    3450:	9b02      	ldr	r3, [sp, #8]
    3452:	b943      	cbnz	r3, 3466 <_dtoa_r+0x8e>
    3454:	4a93      	ldr	r2, [pc, #588]	; (36a4 <_dtoa_r+0x2cc>)
    3456:	4b94      	ldr	r3, [pc, #592]	; (36a8 <_dtoa_r+0x2d0>)
    3458:	f3c8 0013 	ubfx	r0, r8, #0, #20
    345c:	2800      	cmp	r0, #0
    345e:	bf14      	ite	ne
    3460:	4618      	movne	r0, r3
    3462:	4610      	moveq	r0, r2
    3464:	e000      	b.n	3468 <_dtoa_r+0x90>
    3466:	4890      	ldr	r0, [pc, #576]	; (36a8 <_dtoa_r+0x2d0>)
    3468:	9b22      	ldr	r3, [sp, #136]	; 0x88
    346a:	2b00      	cmp	r3, #0
    346c:	f000 8546 	beq.w	3efc <_dtoa_r+0xb24>
    3470:	78c3      	ldrb	r3, [r0, #3]
    3472:	b113      	cbz	r3, 347a <_dtoa_r+0xa2>
    3474:	f100 0308 	add.w	r3, r0, #8
    3478:	e000      	b.n	347c <_dtoa_r+0xa4>
    347a:	1cc3      	adds	r3, r0, #3
    347c:	9a22      	ldr	r2, [sp, #136]	; 0x88
    347e:	6013      	str	r3, [r2, #0]
    3480:	f000 bd3c 	b.w	3efc <_dtoa_r+0xb24>
    3484:	e9dd 4502 	ldrd	r4, r5, [sp, #8]
    3488:	2200      	movs	r2, #0
    348a:	2300      	movs	r3, #0
    348c:	4620      	mov	r0, r4
    348e:	4629      	mov	r1, r5
    3490:	f001 fad0 	bl	4a34 <__aeabi_dcmpeq>
    3494:	4607      	mov	r7, r0
    3496:	b158      	cbz	r0, 34b0 <_dtoa_r+0xd8>
    3498:	9a20      	ldr	r2, [sp, #128]	; 0x80
    349a:	2301      	movs	r3, #1
    349c:	6013      	str	r3, [r2, #0]
    349e:	9b22      	ldr	r3, [sp, #136]	; 0x88
    34a0:	2b00      	cmp	r3, #0
    34a2:	f000 851e 	beq.w	3ee2 <_dtoa_r+0xb0a>
    34a6:	4881      	ldr	r0, [pc, #516]	; (36ac <_dtoa_r+0x2d4>)
    34a8:	6018      	str	r0, [r3, #0]
    34aa:	3801      	subs	r0, #1
    34ac:	f000 bd26 	b.w	3efc <_dtoa_r+0xb24>
    34b0:	ab12      	add	r3, sp, #72	; 0x48
    34b2:	9301      	str	r3, [sp, #4]
    34b4:	ab13      	add	r3, sp, #76	; 0x4c
    34b6:	9300      	str	r3, [sp, #0]
    34b8:	4622      	mov	r2, r4
    34ba:	462b      	mov	r3, r5
    34bc:	4650      	mov	r0, r10
    34be:	f000 ffe3 	bl	4488 <__d2b>
    34c2:	f3c8 560a 	ubfx	r6, r8, #20, #11
    34c6:	9004      	str	r0, [sp, #16]
    34c8:	b156      	cbz	r6, 34e0 <_dtoa_r+0x108>
    34ca:	f3c5 0313 	ubfx	r3, r5, #0, #20
    34ce:	f043 517f 	orr.w	r1, r3, #1069547520	; 0x3fc00000
    34d2:	4620      	mov	r0, r4
    34d4:	f441 1140 	orr.w	r1, r1, #3145728	; 0x300000
    34d8:	f2a6 36ff 	subw	r6, r6, #1023	; 0x3ff
    34dc:	9711      	str	r7, [sp, #68]	; 0x44
    34de:	e01d      	b.n	351c <_dtoa_r+0x144>
    34e0:	9b13      	ldr	r3, [sp, #76]	; 0x4c
    34e2:	9e12      	ldr	r6, [sp, #72]	; 0x48
    34e4:	441e      	add	r6, r3
    34e6:	f206 4332 	addw	r3, r6, #1074	; 0x432
    34ea:	2b20      	cmp	r3, #32
    34ec:	dd0a      	ble.n	3504 <_dtoa_r+0x12c>
    34ee:	9a02      	ldr	r2, [sp, #8]
    34f0:	f206 4012 	addw	r0, r6, #1042	; 0x412
    34f4:	f1c3 0340 	rsb	r3, r3, #64	; 0x40
    34f8:	fa22 f000 	lsr.w	r0, r2, r0
    34fc:	fa08 f303 	lsl.w	r3, r8, r3
    3500:	4318      	orrs	r0, r3
    3502:	e004      	b.n	350e <_dtoa_r+0x136>
    3504:	f1c3 0020 	rsb	r0, r3, #32
    3508:	9b02      	ldr	r3, [sp, #8]
    350a:	fa03 f000 	lsl.w	r0, r3, r0
    350e:	f7fe f913 	bl	1738 <__aeabi_ui2d>
    3512:	2301      	movs	r3, #1
    3514:	f1a1 71f8 	sub.w	r1, r1, #32505856	; 0x1f00000
    3518:	3e01      	subs	r6, #1
    351a:	9311      	str	r3, [sp, #68]	; 0x44
    351c:	2200      	movs	r2, #0
    351e:	4b64      	ldr	r3, [pc, #400]	; (36b0 <_dtoa_r+0x2d8>)
    3520:	f7fd ffcc 	bl	14bc <__aeabi_dsub>
    3524:	a358      	add	r3, pc, #352	; (adr r3, 3688 <_dtoa_r+0x2b0>)
    3526:	e9d3 2300 	ldrd	r2, r3, [r3]
    352a:	f001 f81b 	bl	4564 <__aeabi_dmul>
    352e:	a358      	add	r3, pc, #352	; (adr r3, 3690 <_dtoa_r+0x2b8>)
    3530:	e9d3 2300 	ldrd	r2, r3, [r3]
    3534:	f7fd ffc4 	bl	14c0 <__adddf3>
    3538:	4604      	mov	r4, r0
    353a:	4630      	mov	r0, r6
    353c:	460d      	mov	r5, r1
    353e:	f7fe f90b 	bl	1758 <__aeabi_i2d>
    3542:	a355      	add	r3, pc, #340	; (adr r3, 3698 <_dtoa_r+0x2c0>)
    3544:	e9d3 2300 	ldrd	r2, r3, [r3]
    3548:	f001 f80c 	bl	4564 <__aeabi_dmul>
    354c:	4602      	mov	r2, r0
    354e:	460b      	mov	r3, r1
    3550:	4620      	mov	r0, r4
    3552:	4629      	mov	r1, r5
    3554:	f7fd ffb4 	bl	14c0 <__adddf3>
    3558:	4604      	mov	r4, r0
    355a:	460d      	mov	r5, r1
    355c:	f7fe f962 	bl	1824 <__aeabi_d2iz>
    3560:	2200      	movs	r2, #0
    3562:	4683      	mov	r11, r0
    3564:	2300      	movs	r3, #0
    3566:	4620      	mov	r0, r4
    3568:	4629      	mov	r1, r5
    356a:	f001 fa6d 	bl	4a48 <__aeabi_dcmplt>
    356e:	b158      	cbz	r0, 3588 <_dtoa_r+0x1b0>
    3570:	4658      	mov	r0, r11
    3572:	f7fe f8f1 	bl	1758 <__aeabi_i2d>
    3576:	4602      	mov	r2, r0
    3578:	460b      	mov	r3, r1
    357a:	4620      	mov	r0, r4
    357c:	4629      	mov	r1, r5
    357e:	f001 fa59 	bl	4a34 <__aeabi_dcmpeq>
    3582:	b908      	cbnz	r0, 3588 <_dtoa_r+0x1b0>
    3584:	f10b 3bff 	add.w	r11, r11, #4294967295
    3588:	f1bb 0f16 	cmp.w	r11, #22
    358c:	d80d      	bhi.n	35aa <_dtoa_r+0x1d2>
    358e:	e9dd 2302 	ldrd	r2, r3, [sp, #8]
    3592:	4948      	ldr	r1, [pc, #288]	; (36b4 <_dtoa_r+0x2dc>)
    3594:	eb01 01cb 	add.w	r1, r1, r11, lsl #3
    3598:	e9d1 0100 	ldrd	r0, r1, [r1]
    359c:	f001 fa72 	bl	4a84 <__aeabi_dcmpgt>
    35a0:	b130      	cbz	r0, 35b0 <_dtoa_r+0x1d8>
    35a2:	f10b 3bff 	add.w	r11, r11, #4294967295
    35a6:	2300      	movs	r3, #0
    35a8:	e000      	b.n	35ac <_dtoa_r+0x1d4>
    35aa:	2301      	movs	r3, #1
    35ac:	9310      	str	r3, [sp, #64]	; 0x40
    35ae:	e000      	b.n	35b2 <_dtoa_r+0x1da>
    35b0:	9010      	str	r0, [sp, #64]	; 0x40
    35b2:	9b12      	ldr	r3, [sp, #72]	; 0x48
    35b4:	1b9e      	subs	r6, r3, r6
    35b6:	1e73      	subs	r3, r6, #1
    35b8:	9307      	str	r3, [sp, #28]
    35ba:	bf43      	ittte	mi
    35bc:	f1c3 0800 	rsbmi	r8, r3, #0
    35c0:	2300      	movmi	r3, #0
    35c2:	9307      	strmi	r3, [sp, #28]
    35c4:	f04f 0800 	movpl.w	r8, #0
    35c8:	f1bb 0f00 	cmp.w	r11, #0
    35cc:	db06      	blt.n	35dc <_dtoa_r+0x204>
    35ce:	9b07      	ldr	r3, [sp, #28]
    35d0:	f8cd b02c 	str.w	r11, [sp, #44]	; 0x2c
    35d4:	445b      	add	r3, r11
    35d6:	9307      	str	r3, [sp, #28]
    35d8:	2700      	movs	r7, #0
    35da:	e005      	b.n	35e8 <_dtoa_r+0x210>
    35dc:	2300      	movs	r3, #0
    35de:	ebcb 0808 	rsb	r8, r11, r8
    35e2:	f1cb 0700 	rsb	r7, r11, #0
    35e6:	930b      	str	r3, [sp, #44]	; 0x2c
    35e8:	9b1e      	ldr	r3, [sp, #120]	; 0x78
    35ea:	2b09      	cmp	r3, #9
    35ec:	d828      	bhi.n	3640 <_dtoa_r+0x268>
    35ee:	2b05      	cmp	r3, #5
    35f0:	bfc4      	itt	gt
    35f2:	3b04      	subgt	r3, #4
    35f4:	931e      	strgt	r3, [sp, #120]	; 0x78
    35f6:	9b1e      	ldr	r3, [sp, #120]	; 0x78
    35f8:	bfc8      	it	gt
    35fa:	2500      	movgt	r5, #0
    35fc:	f1a3 0302 	sub.w	r3, r3, #2
    3600:	bfd8      	it	le
    3602:	2501      	movle	r5, #1
    3604:	2b03      	cmp	r3, #3
    3606:	d820      	bhi.n	364a <_dtoa_r+0x272>
    3608:	e8df f003 	tbb	[pc, r3]
    360c:	04020e06 	.word	0x04020e06
    3610:	2301      	movs	r3, #1
    3612:	e002      	b.n	361a <_dtoa_r+0x242>
    3614:	2301      	movs	r3, #1
    3616:	e008      	b.n	362a <_dtoa_r+0x252>
    3618:	2300      	movs	r3, #0
    361a:	930a      	str	r3, [sp, #40]	; 0x28
    361c:	9b1f      	ldr	r3, [sp, #124]	; 0x7c
    361e:	2b00      	cmp	r3, #0
    3620:	dd1d      	ble.n	365e <_dtoa_r+0x286>
    3622:	4699      	mov	r9, r3
    3624:	9305      	str	r3, [sp, #20]
    3626:	e021      	b.n	366c <_dtoa_r+0x294>
    3628:	2300      	movs	r3, #0
    362a:	930a      	str	r3, [sp, #40]	; 0x28
    362c:	9b1f      	ldr	r3, [sp, #124]	; 0x7c
    362e:	eb0b 0903 	add.w	r9, r11, r3
    3632:	f109 0301 	add.w	r3, r9, #1
    3636:	2b01      	cmp	r3, #1
    3638:	9305      	str	r3, [sp, #20]
    363a:	bfb8      	it	lt
    363c:	2301      	movlt	r3, #1
    363e:	e015      	b.n	366c <_dtoa_r+0x294>
    3640:	2501      	movs	r5, #1
    3642:	2300      	movs	r3, #0
    3644:	931e      	str	r3, [sp, #120]	; 0x78
    3646:	950a      	str	r5, [sp, #40]	; 0x28
    3648:	e001      	b.n	364e <_dtoa_r+0x276>
    364a:	2301      	movs	r3, #1
    364c:	930a      	str	r3, [sp, #40]	; 0x28
    364e:	f04f 39ff 	mov.w	r9, #4294967295
    3652:	2200      	movs	r2, #0
    3654:	f8cd 9014 	str.w	r9, [sp, #20]
    3658:	2312      	movs	r3, #18
    365a:	921f      	str	r2, [sp, #124]	; 0x7c
    365c:	e006      	b.n	366c <_dtoa_r+0x294>
    365e:	f04f 0901 	mov.w	r9, #1
    3662:	464b      	mov	r3, r9
    3664:	f8cd 9014 	str.w	r9, [sp, #20]
    3668:	f8cd 907c 	str.w	r9, [sp, #124]	; 0x7c
    366c:	f8da 4024 	ldr.w	r4, [r10, #36]	; 0x24
    3670:	2200      	movs	r2, #0
    3672:	6062      	str	r2, [r4, #4]
    3674:	2104      	movs	r1, #4
    3676:	f101 0214 	add.w	r2, r1, #20
    367a:	429a      	cmp	r2, r3
    367c:	d81c      	bhi.n	36b8 <_dtoa_r+0x2e0>
    367e:	6862      	ldr	r2, [r4, #4]
    3680:	0049      	lsls	r1, r1, #1
    3682:	3201      	adds	r2, #1
    3684:	6062      	str	r2, [r4, #4]
    3686:	e7f6      	b.n	3676 <_dtoa_r+0x29e>
    3688:	636f4361 	.word	0x636f4361
    368c:	3fd287a7 	.word	0x3fd287a7
    3690:	8b60c8b3 	.word	0x8b60c8b3
    3694:	3fc68a28 	.word	0x3fc68a28
    3698:	509f79fb 	.word	0x509f79fb
    369c:	3fd34413 	.word	0x3fd34413
    36a0:	7ff00000 	.word	0x7ff00000
    36a4:	00004e3d 	.word	0x00004e3d
    36a8:	00004e46 	.word	0x00004e46
    36ac:	00004e1a 	.word	0x00004e1a
    36b0:	3ff80000 	.word	0x3ff80000
    36b4:	00004e58 	.word	0x00004e58
    36b8:	6861      	ldr	r1, [r4, #4]
    36ba:	4650      	mov	r0, r10
    36bc:	f000 fc5c 	bl	3f78 <_Balloc>
    36c0:	f8da 3024 	ldr.w	r3, [r10, #36]	; 0x24
    36c4:	6020      	str	r0, [r4, #0]
    36c6:	681b      	ldr	r3, [r3, #0]
    36c8:	9306      	str	r3, [sp, #24]
    36ca:	9b05      	ldr	r3, [sp, #20]
    36cc:	2b0e      	cmp	r3, #14
    36ce:	f200 815b 	bhi.w	3988 <_dtoa_r+0x5b0>
    36d2:	2d00      	cmp	r5, #0
    36d4:	f000 8158 	beq.w	3988 <_dtoa_r+0x5b0>
    36d8:	e9dd 3402 	ldrd	r3, r4, [sp, #8]
    36dc:	f1bb 0f00 	cmp.w	r11, #0
    36e0:	e9cd 340e 	strd	r3, r4, [sp, #56]	; 0x38
    36e4:	dd30      	ble.n	3748 <_dtoa_r+0x370>
    36e6:	4a9f      	ldr	r2, [pc, #636]	; (3964 <_dtoa_r+0x58c>)
    36e8:	f00b 030f 	and.w	r3, r11, #15
    36ec:	ea4f 152b 	mov.w	r5, r11, asr #4
    36f0:	eb02 03c3 	add.w	r3, r2, r3, lsl #3
    36f4:	06e8      	lsls	r0, r5, #27
    36f6:	cb18      	ldmia	r3, {r3, r4}
    36f8:	e9cd 3408 	strd	r3, r4, [sp, #32]
    36fc:	d50c      	bpl.n	3718 <_dtoa_r+0x340>
    36fe:	e9dd 010e 	ldrd	r0, r1, [sp, #56]	; 0x38
    3702:	4b99      	ldr	r3, [pc, #612]	; (3968 <_dtoa_r+0x590>)
    3704:	f005 050f 	and.w	r5, r5, #15
    3708:	e9d3 2308 	ldrd	r2, r3, [r3, #32]
    370c:	f001 f854 	bl	47b8 <__aeabi_ddiv>
    3710:	2403      	movs	r4, #3
    3712:	e9cd 0102 	strd	r0, r1, [sp, #8]
    3716:	e000      	b.n	371a <_dtoa_r+0x342>
    3718:	2402      	movs	r4, #2
    371a:	4e93      	ldr	r6, [pc, #588]	; (3968 <_dtoa_r+0x590>)
    371c:	b16d      	cbz	r5, 373a <_dtoa_r+0x362>
    371e:	07e9      	lsls	r1, r5, #31
    3720:	d508      	bpl.n	3734 <_dtoa_r+0x35c>
    3722:	e9dd 0108 	ldrd	r0, r1, [sp, #32]
    3726:	e9d6 2300 	ldrd	r2, r3, [r6]
    372a:	f000 ff1b 	bl	4564 <__aeabi_dmul>
    372e:	e9cd 0108 	strd	r0, r1, [sp, #32]
    3732:	3401      	adds	r4, #1
    3734:	106d      	asrs	r5, r5, #1
    3736:	3608      	adds	r6, #8
    3738:	e7f0      	b.n	371c <_dtoa_r+0x344>
    373a:	e9dd 2308 	ldrd	r2, r3, [sp, #32]
    373e:	e9dd 0102 	ldrd	r0, r1, [sp, #8]
    3742:	f001 f839 	bl	47b8 <__aeabi_ddiv>
    3746:	e020      	b.n	378a <_dtoa_r+0x3b2>
    3748:	f1cb 0500 	rsb	r5, r11, #0
    374c:	b305      	cbz	r5, 3790 <_dtoa_r+0x3b8>
    374e:	e9dd 010e 	ldrd	r0, r1, [sp, #56]	; 0x38
    3752:	4b84      	ldr	r3, [pc, #528]	; (3964 <_dtoa_r+0x58c>)
    3754:	f005 020f 	and.w	r2, r5, #15
    3758:	eb03 03c2 	add.w	r3, r3, r2, lsl #3
    375c:	e9d3 2300 	ldrd	r2, r3, [r3]
    3760:	f000 ff00 	bl	4564 <__aeabi_dmul>
    3764:	e9cd 0102 	strd	r0, r1, [sp, #8]
    3768:	4e7f      	ldr	r6, [pc, #508]	; (3968 <_dtoa_r+0x590>)
    376a:	112d      	asrs	r5, r5, #4
    376c:	2300      	movs	r3, #0
    376e:	2402      	movs	r4, #2
    3770:	b155      	cbz	r5, 3788 <_dtoa_r+0x3b0>
    3772:	07ea      	lsls	r2, r5, #31
    3774:	d505      	bpl.n	3782 <_dtoa_r+0x3aa>
    3776:	e9d6 2300 	ldrd	r2, r3, [r6]
    377a:	f000 fef3 	bl	4564 <__aeabi_dmul>
    377e:	3401      	adds	r4, #1
    3780:	2301      	movs	r3, #1
    3782:	106d      	asrs	r5, r5, #1
    3784:	3608      	adds	r6, #8
    3786:	e7f3      	b.n	3770 <_dtoa_r+0x398>
    3788:	b11b      	cbz	r3, 3792 <_dtoa_r+0x3ba>
    378a:	e9cd 0102 	strd	r0, r1, [sp, #8]
    378e:	e000      	b.n	3792 <_dtoa_r+0x3ba>
    3790:	2402      	movs	r4, #2
    3792:	9b10      	ldr	r3, [sp, #64]	; 0x40
    3794:	b1e3      	cbz	r3, 37d0 <_dtoa_r+0x3f8>
    3796:	e9dd 5602 	ldrd	r5, r6, [sp, #8]
    379a:	2200      	movs	r2, #0
    379c:	4b73      	ldr	r3, [pc, #460]	; (396c <_dtoa_r+0x594>)
    379e:	4628      	mov	r0, r5
    37a0:	4631      	mov	r1, r6
    37a2:	f001 f951 	bl	4a48 <__aeabi_dcmplt>
    37a6:	b198      	cbz	r0, 37d0 <_dtoa_r+0x3f8>
    37a8:	9b05      	ldr	r3, [sp, #20]
    37aa:	b18b      	cbz	r3, 37d0 <_dtoa_r+0x3f8>
    37ac:	f1b9 0f00 	cmp.w	r9, #0
    37b0:	f340 80e6 	ble.w	3980 <_dtoa_r+0x5a8>
    37b4:	f10b 33ff 	add.w	r3, r11, #4294967295
    37b8:	9308      	str	r3, [sp, #32]
    37ba:	4631      	mov	r1, r6
    37bc:	2200      	movs	r2, #0
    37be:	4b6c      	ldr	r3, [pc, #432]	; (3970 <_dtoa_r+0x598>)
    37c0:	4628      	mov	r0, r5
    37c2:	f000 fecf 	bl	4564 <__aeabi_dmul>
    37c6:	3401      	adds	r4, #1
    37c8:	e9cd 0102 	strd	r0, r1, [sp, #8]
    37cc:	464e      	mov	r6, r9
    37ce:	e002      	b.n	37d6 <_dtoa_r+0x3fe>
    37d0:	9e05      	ldr	r6, [sp, #20]
    37d2:	f8cd b020 	str.w	r11, [sp, #32]
    37d6:	4620      	mov	r0, r4
    37d8:	f7fd ffbe 	bl	1758 <__aeabi_i2d>
    37dc:	e9dd 2302 	ldrd	r2, r3, [sp, #8]
    37e0:	f000 fec0 	bl	4564 <__aeabi_dmul>
    37e4:	4b63      	ldr	r3, [pc, #396]	; (3974 <_dtoa_r+0x59c>)
    37e6:	2200      	movs	r2, #0
    37e8:	f7fd fe6a 	bl	14c0 <__adddf3>
    37ec:	f1a1 7350 	sub.w	r3, r1, #54525952	; 0x3400000
    37f0:	4604      	mov	r4, r0
    37f2:	930c      	str	r3, [sp, #48]	; 0x30
    37f4:	461d      	mov	r5, r3
    37f6:	b9d6      	cbnz	r6, 382e <_dtoa_r+0x456>
    37f8:	e9dd 0102 	ldrd	r0, r1, [sp, #8]
    37fc:	2200      	movs	r2, #0
    37fe:	4b5e      	ldr	r3, [pc, #376]	; (3978 <_dtoa_r+0x5a0>)
    3800:	f7fd fe5c 	bl	14bc <__aeabi_dsub>
    3804:	4622      	mov	r2, r4
    3806:	9b0c      	ldr	r3, [sp, #48]	; 0x30
    3808:	e9cd 0102 	strd	r0, r1, [sp, #8]
    380c:	f001 f93a 	bl	4a84 <__aeabi_dcmpgt>
    3810:	2800      	cmp	r0, #0
    3812:	f040 823f 	bne.w	3c94 <_dtoa_r+0x8bc>
    3816:	990c      	ldr	r1, [sp, #48]	; 0x30
    3818:	4622      	mov	r2, r4
    381a:	f101 4300 	add.w	r3, r1, #2147483648	; 0x80000000
    381e:	e9dd 0102 	ldrd	r0, r1, [sp, #8]
    3822:	f001 f911 	bl	4a48 <__aeabi_dcmplt>
    3826:	2800      	cmp	r0, #0
    3828:	f040 822b 	bne.w	3c82 <_dtoa_r+0x8aa>
    382c:	e0a8      	b.n	3980 <_dtoa_r+0x5a8>
    382e:	9a0a      	ldr	r2, [sp, #40]	; 0x28
    3830:	4b4c      	ldr	r3, [pc, #304]	; (3964 <_dtoa_r+0x58c>)
    3832:	1e71      	subs	r1, r6, #1
    3834:	2a00      	cmp	r2, #0
    3836:	d049      	beq.n	38cc <_dtoa_r+0x4f4>
    3838:	eb03 03c1 	add.w	r3, r3, r1, lsl #3
    383c:	e9d3 2300 	ldrd	r2, r3, [r3]
    3840:	2000      	movs	r0, #0
    3842:	494e      	ldr	r1, [pc, #312]	; (397c <_dtoa_r+0x5a4>)
    3844:	f000 ffb8 	bl	47b8 <__aeabi_ddiv>
    3848:	4622      	mov	r2, r4
    384a:	462b      	mov	r3, r5
    384c:	f7fd fe36 	bl	14bc <__aeabi_dsub>
    3850:	e9cd 010c 	strd	r0, r1, [sp, #48]	; 0x30
    3854:	9c06      	ldr	r4, [sp, #24]
    3856:	e9dd 0102 	ldrd	r0, r1, [sp, #8]
    385a:	f7fd ffe3 	bl	1824 <__aeabi_d2iz>
    385e:	4605      	mov	r5, r0
    3860:	f7fd ff7a 	bl	1758 <__aeabi_i2d>
    3864:	4602      	mov	r2, r0
    3866:	460b      	mov	r3, r1
    3868:	e9dd 0102 	ldrd	r0, r1, [sp, #8]
    386c:	f7fd fe26 	bl	14bc <__aeabi_dsub>
    3870:	e9dd 230c 	ldrd	r2, r3, [sp, #48]	; 0x30
    3874:	3530      	adds	r5, #48	; 0x30
    3876:	f804 5b01 	strb.w	r5, [r4], #1
    387a:	e9cd 0102 	strd	r0, r1, [sp, #8]
    387e:	f001 f8e3 	bl	4a48 <__aeabi_dcmplt>
    3882:	2800      	cmp	r0, #0
    3884:	f040 831d 	bne.w	3ec2 <_dtoa_r+0xaea>
    3888:	e9dd 2302 	ldrd	r2, r3, [sp, #8]
    388c:	2000      	movs	r0, #0
    388e:	4937      	ldr	r1, [pc, #220]	; (396c <_dtoa_r+0x594>)
    3890:	f7fd fe14 	bl	14bc <__aeabi_dsub>
    3894:	e9dd 230c 	ldrd	r2, r3, [sp, #48]	; 0x30
    3898:	f001 f8d6 	bl	4a48 <__aeabi_dcmplt>
    389c:	2800      	cmp	r0, #0
    389e:	f040 80d1 	bne.w	3a44 <_dtoa_r+0x66c>
    38a2:	9b06      	ldr	r3, [sp, #24]
    38a4:	1ae3      	subs	r3, r4, r3
    38a6:	42b3      	cmp	r3, r6
    38a8:	da6a      	bge.n	3980 <_dtoa_r+0x5a8>
    38aa:	e9dd 010c 	ldrd	r0, r1, [sp, #48]	; 0x30
    38ae:	2200      	movs	r2, #0
    38b0:	4b2f      	ldr	r3, [pc, #188]	; (3970 <_dtoa_r+0x598>)
    38b2:	f000 fe57 	bl	4564 <__aeabi_dmul>
    38b6:	2200      	movs	r2, #0
    38b8:	e9cd 010c 	strd	r0, r1, [sp, #48]	; 0x30
    38bc:	e9dd 0102 	ldrd	r0, r1, [sp, #8]
    38c0:	4b2b      	ldr	r3, [pc, #172]	; (3970 <_dtoa_r+0x598>)
    38c2:	f000 fe4f 	bl	4564 <__aeabi_dmul>
    38c6:	e9cd 0102 	strd	r0, r1, [sp, #8]
    38ca:	e7c4      	b.n	3856 <_dtoa_r+0x47e>
    38cc:	eb03 01c1 	add.w	r1, r3, r1, lsl #3
    38d0:	4622      	mov	r2, r4
    38d2:	e9d1 0100 	ldrd	r0, r1, [r1]
    38d6:	462b      	mov	r3, r5
    38d8:	f000 fe44 	bl	4564 <__aeabi_dmul>
    38dc:	9b06      	ldr	r3, [sp, #24]
    38de:	e9cd 010c 	strd	r0, r1, [sp, #48]	; 0x30
    38e2:	461d      	mov	r5, r3
    38e4:	199c      	adds	r4, r3, r6
    38e6:	e9dd 0102 	ldrd	r0, r1, [sp, #8]
    38ea:	f7fd ff9b 	bl	1824 <__aeabi_d2iz>
    38ee:	4606      	mov	r6, r0
    38f0:	f7fd ff32 	bl	1758 <__aeabi_i2d>
    38f4:	4602      	mov	r2, r0
    38f6:	460b      	mov	r3, r1
    38f8:	e9dd 0102 	ldrd	r0, r1, [sp, #8]
    38fc:	f7fd fdde 	bl	14bc <__aeabi_dsub>
    3900:	3630      	adds	r6, #48	; 0x30
    3902:	f805 6b01 	strb.w	r6, [r5], #1
    3906:	42ac      	cmp	r4, r5
    3908:	e9cd 0102 	strd	r0, r1, [sp, #8]
    390c:	f04f 0200 	mov.w	r2, #0
    3910:	d122      	bne.n	3958 <_dtoa_r+0x580>
    3912:	4b1a      	ldr	r3, [pc, #104]	; (397c <_dtoa_r+0x5a4>)
    3914:	e9dd 010c 	ldrd	r0, r1, [sp, #48]	; 0x30
    3918:	f7fd fdd2 	bl	14c0 <__adddf3>
    391c:	4602      	mov	r2, r0
    391e:	460b      	mov	r3, r1
    3920:	e9dd 0102 	ldrd	r0, r1, [sp, #8]
    3924:	f001 f8ae 	bl	4a84 <__aeabi_dcmpgt>
    3928:	2800      	cmp	r0, #0
    392a:	f040 808b 	bne.w	3a44 <_dtoa_r+0x66c>
    392e:	e9dd 230c 	ldrd	r2, r3, [sp, #48]	; 0x30
    3932:	2000      	movs	r0, #0
    3934:	4911      	ldr	r1, [pc, #68]	; (397c <_dtoa_r+0x5a4>)
    3936:	f7fd fdc1 	bl	14bc <__aeabi_dsub>
    393a:	4602      	mov	r2, r0
    393c:	460b      	mov	r3, r1
    393e:	e9dd 0102 	ldrd	r0, r1, [sp, #8]
    3942:	f001 f881 	bl	4a48 <__aeabi_dcmplt>
    3946:	b1d8      	cbz	r0, 3980 <_dtoa_r+0x5a8>
    3948:	f814 3c01 	ldrb.w	r3, [r4, #-1]
    394c:	1e62      	subs	r2, r4, #1
    394e:	2b30      	cmp	r3, #48	; 0x30
    3950:	f040 82b7 	bne.w	3ec2 <_dtoa_r+0xaea>
    3954:	4614      	mov	r4, r2
    3956:	e7f7      	b.n	3948 <_dtoa_r+0x570>
    3958:	4b05      	ldr	r3, [pc, #20]	; (3970 <_dtoa_r+0x598>)
    395a:	f000 fe03 	bl	4564 <__aeabi_dmul>
    395e:	e9cd 0102 	strd	r0, r1, [sp, #8]
    3962:	e7c0      	b.n	38e6 <_dtoa_r+0x50e>
    3964:	00004e58 	.word	0x00004e58
    3968:	00004f30 	.word	0x00004f30
    396c:	3ff00000 	.word	0x3ff00000
    3970:	40240000 	.word	0x40240000
    3974:	401c0000 	.word	0x401c0000
    3978:	40140000 	.word	0x40140000
    397c:	3fe00000 	.word	0x3fe00000
    3980:	e9dd 340e 	ldrd	r3, r4, [sp, #56]	; 0x38
    3984:	e9cd 3402 	strd	r3, r4, [sp, #8]
    3988:	9b13      	ldr	r3, [sp, #76]	; 0x4c
    398a:	2b00      	cmp	r3, #0
    398c:	db7c      	blt.n	3a88 <_dtoa_r+0x6b0>
    398e:	f1bb 0f0e 	cmp.w	r11, #14
    3992:	dc79      	bgt.n	3a88 <_dtoa_r+0x6b0>
    3994:	4bab      	ldr	r3, [pc, #684]	; (3c44 <_dtoa_r+0x86c>)
    3996:	eb03 03cb 	add.w	r3, r3, r11, lsl #3
    399a:	e9d3 6700 	ldrd	r6, r7, [r3]
    399e:	9b1f      	ldr	r3, [sp, #124]	; 0x7c
    39a0:	2b00      	cmp	r3, #0
    39a2:	da14      	bge.n	39ce <_dtoa_r+0x5f6>
    39a4:	9b05      	ldr	r3, [sp, #20]
    39a6:	2b00      	cmp	r3, #0
    39a8:	dc11      	bgt.n	39ce <_dtoa_r+0x5f6>
    39aa:	f040 816c 	bne.w	3c86 <_dtoa_r+0x8ae>
    39ae:	2200      	movs	r2, #0
    39b0:	4ba5      	ldr	r3, [pc, #660]	; (3c48 <_dtoa_r+0x870>)
    39b2:	4630      	mov	r0, r6
    39b4:	4639      	mov	r1, r7
    39b6:	f000 fdd5 	bl	4564 <__aeabi_dmul>
    39ba:	e9dd 2302 	ldrd	r2, r3, [sp, #8]
    39be:	f001 f857 	bl	4a70 <__aeabi_dcmpge>
    39c2:	9d05      	ldr	r5, [sp, #20]
    39c4:	462e      	mov	r6, r5
    39c6:	2800      	cmp	r0, #0
    39c8:	f040 815f 	bne.w	3c8a <_dtoa_r+0x8b2>
    39cc:	e165      	b.n	3c9a <_dtoa_r+0x8c2>
    39ce:	9c06      	ldr	r4, [sp, #24]
    39d0:	e9dd 8902 	ldrd	r8, r9, [sp, #8]
    39d4:	4632      	mov	r2, r6
    39d6:	463b      	mov	r3, r7
    39d8:	4640      	mov	r0, r8
    39da:	4649      	mov	r1, r9
    39dc:	f000 feec 	bl	47b8 <__aeabi_ddiv>
    39e0:	f7fd ff20 	bl	1824 <__aeabi_d2iz>
    39e4:	4605      	mov	r5, r0
    39e6:	f7fd feb7 	bl	1758 <__aeabi_i2d>
    39ea:	4632      	mov	r2, r6
    39ec:	463b      	mov	r3, r7
    39ee:	f000 fdb9 	bl	4564 <__aeabi_dmul>
    39f2:	460b      	mov	r3, r1
    39f4:	4602      	mov	r2, r0
    39f6:	4649      	mov	r1, r9
    39f8:	4640      	mov	r0, r8
    39fa:	f7fd fd5f 	bl	14bc <__aeabi_dsub>
    39fe:	f105 0e30 	add.w	lr, r5, #48	; 0x30
    3a02:	9b06      	ldr	r3, [sp, #24]
    3a04:	f804 eb01 	strb.w	lr, [r4], #1
    3a08:	ebc3 0e04 	rsb	lr, r3, r4
    3a0c:	9b05      	ldr	r3, [sp, #20]
    3a0e:	4573      	cmp	r3, lr
    3a10:	d12d      	bne.n	3a6e <_dtoa_r+0x696>
    3a12:	4602      	mov	r2, r0
    3a14:	460b      	mov	r3, r1
    3a16:	f7fd fd53 	bl	14c0 <__adddf3>
    3a1a:	4680      	mov	r8, r0
    3a1c:	4689      	mov	r9, r1
    3a1e:	4602      	mov	r2, r0
    3a20:	460b      	mov	r3, r1
    3a22:	4630      	mov	r0, r6
    3a24:	4639      	mov	r1, r7
    3a26:	f001 f80f 	bl	4a48 <__aeabi_dcmplt>
    3a2a:	b978      	cbnz	r0, 3a4c <_dtoa_r+0x674>
    3a2c:	4642      	mov	r2, r8
    3a2e:	464b      	mov	r3, r9
    3a30:	4630      	mov	r0, r6
    3a32:	4639      	mov	r1, r7
    3a34:	f000 fffe 	bl	4a34 <__aeabi_dcmpeq>
    3a38:	2800      	cmp	r0, #0
    3a3a:	f000 8244 	beq.w	3ec6 <_dtoa_r+0xaee>
    3a3e:	07eb      	lsls	r3, r5, #31
    3a40:	d404      	bmi.n	3a4c <_dtoa_r+0x674>
    3a42:	e240      	b.n	3ec6 <_dtoa_r+0xaee>
    3a44:	f8dd b020 	ldr.w	r11, [sp, #32]
    3a48:	e000      	b.n	3a4c <_dtoa_r+0x674>
    3a4a:	461c      	mov	r4, r3
    3a4c:	f814 2c01 	ldrb.w	r2, [r4, #-1]
    3a50:	1e63      	subs	r3, r4, #1
    3a52:	2a39      	cmp	r2, #57	; 0x39
    3a54:	d107      	bne.n	3a66 <_dtoa_r+0x68e>
    3a56:	9a06      	ldr	r2, [sp, #24]
    3a58:	429a      	cmp	r2, r3
    3a5a:	d1f6      	bne.n	3a4a <_dtoa_r+0x672>
    3a5c:	9906      	ldr	r1, [sp, #24]
    3a5e:	2230      	movs	r2, #48	; 0x30
    3a60:	f10b 0b01 	add.w	r11, r11, #1
    3a64:	700a      	strb	r2, [r1, #0]
    3a66:	781a      	ldrb	r2, [r3, #0]
    3a68:	3201      	adds	r2, #1
    3a6a:	701a      	strb	r2, [r3, #0]
    3a6c:	e22b      	b.n	3ec6 <_dtoa_r+0xaee>
    3a6e:	2200      	movs	r2, #0
    3a70:	4b76      	ldr	r3, [pc, #472]	; (3c4c <_dtoa_r+0x874>)
    3a72:	f000 fd77 	bl	4564 <__aeabi_dmul>
    3a76:	2200      	movs	r2, #0
    3a78:	2300      	movs	r3, #0
    3a7a:	4680      	mov	r8, r0
    3a7c:	4689      	mov	r9, r1
    3a7e:	f000 ffd9 	bl	4a34 <__aeabi_dcmpeq>
    3a82:	2800      	cmp	r0, #0
    3a84:	d0a6      	beq.n	39d4 <_dtoa_r+0x5fc>
    3a86:	e21e      	b.n	3ec6 <_dtoa_r+0xaee>
    3a88:	9a0a      	ldr	r2, [sp, #40]	; 0x28
    3a8a:	2a00      	cmp	r2, #0
    3a8c:	d02b      	beq.n	3ae6 <_dtoa_r+0x70e>
    3a8e:	9a1e      	ldr	r2, [sp, #120]	; 0x78
    3a90:	2a01      	cmp	r2, #1
    3a92:	dc0a      	bgt.n	3aaa <_dtoa_r+0x6d2>
    3a94:	9a11      	ldr	r2, [sp, #68]	; 0x44
    3a96:	b112      	cbz	r2, 3a9e <_dtoa_r+0x6c6>
    3a98:	f203 4333 	addw	r3, r3, #1075	; 0x433
    3a9c:	e002      	b.n	3aa4 <_dtoa_r+0x6cc>
    3a9e:	9b12      	ldr	r3, [sp, #72]	; 0x48
    3aa0:	f1c3 0336 	rsb	r3, r3, #54	; 0x36
    3aa4:	463d      	mov	r5, r7
    3aa6:	4644      	mov	r4, r8
    3aa8:	e013      	b.n	3ad2 <_dtoa_r+0x6fa>
    3aaa:	9b05      	ldr	r3, [sp, #20]
    3aac:	1e5d      	subs	r5, r3, #1
    3aae:	42af      	cmp	r7, r5
    3ab0:	bfbf      	itttt	lt
    3ab2:	9b0b      	ldrlt	r3, [sp, #44]	; 0x2c
    3ab4:	1bea      	sublt	r2, r5, r7
    3ab6:	189b      	addlt	r3, r3, r2
    3ab8:	930b      	strlt	r3, [sp, #44]	; 0x2c
    3aba:	9b05      	ldr	r3, [sp, #20]
    3abc:	bfb6      	itet	lt
    3abe:	462f      	movlt	r7, r5
    3ac0:	1b7d      	subge	r5, r7, r5
    3ac2:	2500      	movlt	r5, #0
    3ac4:	2b00      	cmp	r3, #0
    3ac6:	bfa7      	ittee	ge
    3ac8:	4644      	movge	r4, r8
    3aca:	9b05      	ldrge	r3, [sp, #20]
    3acc:	ebc3 0408 	rsblt	r4, r3, r8
    3ad0:	2300      	movlt	r3, #0
    3ad2:	9a07      	ldr	r2, [sp, #28]
    3ad4:	2101      	movs	r1, #1
    3ad6:	441a      	add	r2, r3
    3ad8:	4650      	mov	r0, r10
    3ada:	4498      	add	r8, r3
    3adc:	9207      	str	r2, [sp, #28]
    3ade:	f000 fb1f 	bl	4120 <__i2b>
    3ae2:	4606      	mov	r6, r0
    3ae4:	e002      	b.n	3aec <_dtoa_r+0x714>
    3ae6:	463d      	mov	r5, r7
    3ae8:	4644      	mov	r4, r8
    3aea:	9e0a      	ldr	r6, [sp, #40]	; 0x28
    3aec:	b15c      	cbz	r4, 3b06 <_dtoa_r+0x72e>
    3aee:	9b07      	ldr	r3, [sp, #28]
    3af0:	2b00      	cmp	r3, #0
    3af2:	dd08      	ble.n	3b06 <_dtoa_r+0x72e>
    3af4:	42a3      	cmp	r3, r4
    3af6:	bfa8      	it	ge
    3af8:	4623      	movge	r3, r4
    3afa:	9a07      	ldr	r2, [sp, #28]
    3afc:	ebc3 0808 	rsb	r8, r3, r8
    3b00:	1ae4      	subs	r4, r4, r3
    3b02:	1ad3      	subs	r3, r2, r3
    3b04:	9307      	str	r3, [sp, #28]
    3b06:	2f00      	cmp	r7, #0
    3b08:	dd1d      	ble.n	3b46 <_dtoa_r+0x76e>
    3b0a:	9b0a      	ldr	r3, [sp, #40]	; 0x28
    3b0c:	b1ab      	cbz	r3, 3b3a <_dtoa_r+0x762>
    3b0e:	b18d      	cbz	r5, 3b34 <_dtoa_r+0x75c>
    3b10:	4631      	mov	r1, r6
    3b12:	462a      	mov	r2, r5
    3b14:	4650      	mov	r0, r10
    3b16:	f000 fb9d 	bl	4254 <__pow5mult>
    3b1a:	9a04      	ldr	r2, [sp, #16]
    3b1c:	4601      	mov	r1, r0
    3b1e:	4606      	mov	r6, r0
    3b20:	4650      	mov	r0, r10
    3b22:	f000 fb06 	bl	4132 <__multiply>
    3b26:	9904      	ldr	r1, [sp, #16]
    3b28:	9008      	str	r0, [sp, #32]
    3b2a:	4650      	mov	r0, r10
    3b2c:	f000 fa59 	bl	3fe2 <_Bfree>
    3b30:	9b08      	ldr	r3, [sp, #32]
    3b32:	9304      	str	r3, [sp, #16]
    3b34:	1b7a      	subs	r2, r7, r5
    3b36:	d006      	beq.n	3b46 <_dtoa_r+0x76e>
    3b38:	e000      	b.n	3b3c <_dtoa_r+0x764>
    3b3a:	463a      	mov	r2, r7
    3b3c:	9904      	ldr	r1, [sp, #16]
    3b3e:	4650      	mov	r0, r10
    3b40:	f000 fb88 	bl	4254 <__pow5mult>
    3b44:	9004      	str	r0, [sp, #16]
    3b46:	2101      	movs	r1, #1
    3b48:	4650      	mov	r0, r10
    3b4a:	f000 fae9 	bl	4120 <__i2b>
    3b4e:	9b0b      	ldr	r3, [sp, #44]	; 0x2c
    3b50:	4605      	mov	r5, r0
    3b52:	b35b      	cbz	r3, 3bac <_dtoa_r+0x7d4>
    3b54:	461a      	mov	r2, r3
    3b56:	4601      	mov	r1, r0
    3b58:	4650      	mov	r0, r10
    3b5a:	f000 fb7b 	bl	4254 <__pow5mult>
    3b5e:	9b1e      	ldr	r3, [sp, #120]	; 0x78
    3b60:	4605      	mov	r5, r0
    3b62:	2b01      	cmp	r3, #1
    3b64:	dc18      	bgt.n	3b98 <_dtoa_r+0x7c0>
    3b66:	9b02      	ldr	r3, [sp, #8]
    3b68:	b983      	cbnz	r3, 3b8c <_dtoa_r+0x7b4>
    3b6a:	9b03      	ldr	r3, [sp, #12]
    3b6c:	f3c3 0313 	ubfx	r3, r3, #0, #20
    3b70:	b973      	cbnz	r3, 3b90 <_dtoa_r+0x7b8>
    3b72:	9b03      	ldr	r3, [sp, #12]
    3b74:	f023 4700 	bic.w	r7, r3, #2147483648	; 0x80000000
    3b78:	0d3f      	lsrs	r7, r7, #20
    3b7a:	053f      	lsls	r7, r7, #20
    3b7c:	b14f      	cbz	r7, 3b92 <_dtoa_r+0x7ba>
    3b7e:	9b07      	ldr	r3, [sp, #28]
    3b80:	f108 0801 	add.w	r8, r8, #1
    3b84:	3301      	adds	r3, #1
    3b86:	9307      	str	r3, [sp, #28]
    3b88:	2701      	movs	r7, #1
    3b8a:	e002      	b.n	3b92 <_dtoa_r+0x7ba>
    3b8c:	2700      	movs	r7, #0
    3b8e:	e000      	b.n	3b92 <_dtoa_r+0x7ba>
    3b90:	9f02      	ldr	r7, [sp, #8]
    3b92:	9b0b      	ldr	r3, [sp, #44]	; 0x2c
    3b94:	b173      	cbz	r3, 3bb4 <_dtoa_r+0x7dc>
    3b96:	e000      	b.n	3b9a <_dtoa_r+0x7c2>
    3b98:	2700      	movs	r7, #0
    3b9a:	692b      	ldr	r3, [r5, #16]
    3b9c:	eb05 0383 	add.w	r3, r5, r3, lsl #2
    3ba0:	6918      	ldr	r0, [r3, #16]
    3ba2:	f000 fa70 	bl	4086 <__hi0bits>
    3ba6:	f1c0 0020 	rsb	r0, r0, #32
    3baa:	e004      	b.n	3bb6 <_dtoa_r+0x7de>
    3bac:	9b1e      	ldr	r3, [sp, #120]	; 0x78
    3bae:	2b01      	cmp	r3, #1
    3bb0:	ddd9      	ble.n	3b66 <_dtoa_r+0x78e>
    3bb2:	9f0b      	ldr	r7, [sp, #44]	; 0x2c
    3bb4:	2001      	movs	r0, #1
    3bb6:	9b07      	ldr	r3, [sp, #28]
    3bb8:	4418      	add	r0, r3
    3bba:	f010 001f 	ands.w	r0, r0, #31
    3bbe:	d008      	beq.n	3bd2 <_dtoa_r+0x7fa>
    3bc0:	f1c0 0320 	rsb	r3, r0, #32
    3bc4:	2b04      	cmp	r3, #4
    3bc6:	dd02      	ble.n	3bce <_dtoa_r+0x7f6>
    3bc8:	f1c0 001c 	rsb	r0, r0, #28
    3bcc:	e002      	b.n	3bd4 <_dtoa_r+0x7fc>
    3bce:	d006      	beq.n	3bde <_dtoa_r+0x806>
    3bd0:	4618      	mov	r0, r3
    3bd2:	301c      	adds	r0, #28
    3bd4:	9b07      	ldr	r3, [sp, #28]
    3bd6:	4480      	add	r8, r0
    3bd8:	4403      	add	r3, r0
    3bda:	4404      	add	r4, r0
    3bdc:	9307      	str	r3, [sp, #28]
    3bde:	f1b8 0f00 	cmp.w	r8, #0
    3be2:	dd05      	ble.n	3bf0 <_dtoa_r+0x818>
    3be4:	4642      	mov	r2, r8
    3be6:	9904      	ldr	r1, [sp, #16]
    3be8:	4650      	mov	r0, r10
    3bea:	f000 fb81 	bl	42f0 <__lshift>
    3bee:	9004      	str	r0, [sp, #16]
    3bf0:	9b07      	ldr	r3, [sp, #28]
    3bf2:	2b00      	cmp	r3, #0
    3bf4:	dd05      	ble.n	3c02 <_dtoa_r+0x82a>
    3bf6:	4629      	mov	r1, r5
    3bf8:	461a      	mov	r2, r3
    3bfa:	4650      	mov	r0, r10
    3bfc:	f000 fb78 	bl	42f0 <__lshift>
    3c00:	4605      	mov	r5, r0
    3c02:	9b10      	ldr	r3, [sp, #64]	; 0x40
    3c04:	b323      	cbz	r3, 3c50 <_dtoa_r+0x878>
    3c06:	4629      	mov	r1, r5
    3c08:	9804      	ldr	r0, [sp, #16]
    3c0a:	f000 fbc2 	bl	4392 <__mcmp>
    3c0e:	2800      	cmp	r0, #0
    3c10:	da1e      	bge.n	3c50 <_dtoa_r+0x878>
    3c12:	2300      	movs	r3, #0
    3c14:	220a      	movs	r2, #10
    3c16:	9904      	ldr	r1, [sp, #16]
    3c18:	4650      	mov	r0, r10
    3c1a:	f000 f9f9 	bl	4010 <__multadd>
    3c1e:	9b0a      	ldr	r3, [sp, #40]	; 0x28
    3c20:	f10b 3bff 	add.w	r11, r11, #4294967295
    3c24:	9004      	str	r0, [sp, #16]
    3c26:	2b00      	cmp	r3, #0
    3c28:	f000 815f 	beq.w	3eea <_dtoa_r+0xb12>
    3c2c:	4631      	mov	r1, r6
    3c2e:	2300      	movs	r3, #0
    3c30:	220a      	movs	r2, #10
    3c32:	4650      	mov	r0, r10
    3c34:	f000 f9ec 	bl	4010 <__multadd>
    3c38:	f1b9 0f00 	cmp.w	r9, #0
    3c3c:	4606      	mov	r6, r0
    3c3e:	dc3f      	bgt.n	3cc0 <_dtoa_r+0x8e8>
    3c40:	e03b      	b.n	3cba <_dtoa_r+0x8e2>
    3c42:	bf00      	nop
    3c44:	00004e58 	.word	0x00004e58
    3c48:	40140000 	.word	0x40140000
    3c4c:	40240000 	.word	0x40240000
    3c50:	9b05      	ldr	r3, [sp, #20]
    3c52:	2b00      	cmp	r3, #0
    3c54:	dc2b      	bgt.n	3cae <_dtoa_r+0x8d6>
    3c56:	9b1e      	ldr	r3, [sp, #120]	; 0x78
    3c58:	2b02      	cmp	r3, #2
    3c5a:	dd28      	ble.n	3cae <_dtoa_r+0x8d6>
    3c5c:	f8dd 9014 	ldr.w	r9, [sp, #20]
    3c60:	f1b9 0f00 	cmp.w	r9, #0
    3c64:	d111      	bne.n	3c8a <_dtoa_r+0x8b2>
    3c66:	4629      	mov	r1, r5
    3c68:	464b      	mov	r3, r9
    3c6a:	2205      	movs	r2, #5
    3c6c:	4650      	mov	r0, r10
    3c6e:	f000 f9cf 	bl	4010 <__multadd>
    3c72:	4601      	mov	r1, r0
    3c74:	4605      	mov	r5, r0
    3c76:	9804      	ldr	r0, [sp, #16]
    3c78:	f000 fb8b 	bl	4392 <__mcmp>
    3c7c:	2800      	cmp	r0, #0
    3c7e:	dc0c      	bgt.n	3c9a <_dtoa_r+0x8c2>
    3c80:	e003      	b.n	3c8a <_dtoa_r+0x8b2>
    3c82:	4635      	mov	r5, r6
    3c84:	e000      	b.n	3c88 <_dtoa_r+0x8b0>
    3c86:	2500      	movs	r5, #0
    3c88:	462e      	mov	r6, r5
    3c8a:	9b1f      	ldr	r3, [sp, #124]	; 0x7c
    3c8c:	9c06      	ldr	r4, [sp, #24]
    3c8e:	ea6f 0b03 	mvn.w	r11, r3
    3c92:	e009      	b.n	3ca8 <_dtoa_r+0x8d0>
    3c94:	4635      	mov	r5, r6
    3c96:	f8dd b020 	ldr.w	r11, [sp, #32]
    3c9a:	9b06      	ldr	r3, [sp, #24]
    3c9c:	9a06      	ldr	r2, [sp, #24]
    3c9e:	1c5c      	adds	r4, r3, #1
    3ca0:	2331      	movs	r3, #49	; 0x31
    3ca2:	7013      	strb	r3, [r2, #0]
    3ca4:	f10b 0b01 	add.w	r11, r11, #1
    3ca8:	9605      	str	r6, [sp, #20]
    3caa:	2600      	movs	r6, #0
    3cac:	e0f7      	b.n	3e9e <_dtoa_r+0xac6>
    3cae:	9b0a      	ldr	r3, [sp, #40]	; 0x28
    3cb0:	f8dd 9014 	ldr.w	r9, [sp, #20]
    3cb4:	b923      	cbnz	r3, 3cc0 <_dtoa_r+0x8e8>
    3cb6:	9c06      	ldr	r4, [sp, #24]
    3cb8:	e0b2      	b.n	3e20 <_dtoa_r+0xa48>
    3cba:	9b1e      	ldr	r3, [sp, #120]	; 0x78
    3cbc:	2b02      	cmp	r3, #2
    3cbe:	dccf      	bgt.n	3c60 <_dtoa_r+0x888>
    3cc0:	2c00      	cmp	r4, #0
    3cc2:	dd05      	ble.n	3cd0 <_dtoa_r+0x8f8>
    3cc4:	4631      	mov	r1, r6
    3cc6:	4622      	mov	r2, r4
    3cc8:	4650      	mov	r0, r10
    3cca:	f000 fb11 	bl	42f0 <__lshift>
    3cce:	4606      	mov	r6, r0
    3cd0:	b19f      	cbz	r7, 3cfa <_dtoa_r+0x922>
    3cd2:	6871      	ldr	r1, [r6, #4]
    3cd4:	4650      	mov	r0, r10
    3cd6:	f000 f94f 	bl	3f78 <_Balloc>
    3cda:	4604      	mov	r4, r0
