
LPC1768/MidTerm_2.elf:     file format elf32-littlearm
architecture: arm, flags 0x00000112:
EXEC_P, HAS_SYMS, D_PAGED
start address 0x00002385


Disassembly of section .text:

00000000 <__isr_vector>:
       0:	10008000 	.word	0x10008000
       4:	00002385 	.word	0x00002385
       8:	000023b5 	.word	0x000023b5
       c:	000023b7 	.word	0x000023b7
      10:	000023b9 	.word	0x000023b9
      14:	000023bb 	.word	0x000023bb
      18:	000023bd 	.word	0x000023bd
	...
      2c:	000023bf 	.word	0x000023bf
      30:	000023c1 	.word	0x000023c1
      34:	00000000 	.word	0x00000000
      38:	000023c3 	.word	0x000023c3
      3c:	000023c5 	.word	0x000023c5
      40:	000023c7 	.word	0x000023c7
      44:	000023c7 	.word	0x000023c7
      48:	000023c7 	.word	0x000023c7
      4c:	000023c7 	.word	0x000023c7
      50:	000023c7 	.word	0x000023c7
      54:	000023c7 	.word	0x000023c7
      58:	000023c7 	.word	0x000023c7
      5c:	000023c7 	.word	0x000023c7
      60:	000023c7 	.word	0x000023c7
      64:	000023c7 	.word	0x000023c7
      68:	000023c7 	.word	0x000023c7
      6c:	000023c7 	.word	0x000023c7
      70:	000023c7 	.word	0x000023c7
      74:	000023c7 	.word	0x000023c7
      78:	000023c7 	.word	0x000023c7
      7c:	000023c7 	.word	0x000023c7
      80:	000023c7 	.word	0x000023c7
      84:	000023c7 	.word	0x000023c7
      88:	000023c7 	.word	0x000023c7
      8c:	000023c7 	.word	0x000023c7
      90:	000023c7 	.word	0x000023c7
      94:	000023c7 	.word	0x000023c7
      98:	000023c7 	.word	0x000023c7
      9c:	000023c7 	.word	0x000023c7
      a0:	000023c7 	.word	0x000023c7
      a4:	000023c7 	.word	0x000023c7
      a8:	000023c7 	.word	0x000023c7
      ac:	000023c7 	.word	0x000023c7
      b0:	000023c7 	.word	0x000023c7
      b4:	000023c7 	.word	0x000023c7
      b8:	000023c7 	.word	0x000023c7
      bc:	000023c7 	.word	0x000023c7
      c0:	000023c7 	.word	0x000023c7
      c4:	000023c7 	.word	0x000023c7
      c8:	000023c7 	.word	0x000023c7

000000cc <deregister_tm_clones>:
      cc:	4b04      	ldr	r3, [pc, #16]	; (e0 <deregister_tm_clones+0x14>)
      ce:	4805      	ldr	r0, [pc, #20]	; (e4 <deregister_tm_clones+0x18>)
      d0:	1a1b      	subs	r3, r3, r0
      d2:	2b06      	cmp	r3, #6
      d4:	d902      	bls.n	dc <deregister_tm_clones+0x10>
      d6:	4b04      	ldr	r3, [pc, #16]	; (e8 <deregister_tm_clones+0x1c>)
      d8:	b103      	cbz	r3, dc <deregister_tm_clones+0x10>
      da:	4718      	bx	r3
      dc:	4770      	bx	lr
      de:	bf00      	nop
      e0:	10000183 	.word	0x10000183
      e4:	10000180 	.word	0x10000180
      e8:	00000000 	.word	0x00000000

000000ec <register_tm_clones>:
      ec:	4905      	ldr	r1, [pc, #20]	; (104 <register_tm_clones+0x18>)
      ee:	4806      	ldr	r0, [pc, #24]	; (108 <register_tm_clones+0x1c>)
      f0:	1a09      	subs	r1, r1, r0
      f2:	1089      	asrs	r1, r1, #2
      f4:	eb01 71d1 	add.w	r1, r1, r1, lsr #31
      f8:	1049      	asrs	r1, r1, #1
      fa:	d002      	beq.n	102 <register_tm_clones+0x16>
      fc:	4b03      	ldr	r3, [pc, #12]	; (10c <register_tm_clones+0x20>)
      fe:	b103      	cbz	r3, 102 <register_tm_clones+0x16>
     100:	4718      	bx	r3
     102:	4770      	bx	lr
     104:	10000180 	.word	0x10000180
     108:	10000180 	.word	0x10000180
     10c:	00000000 	.word	0x00000000

00000110 <__do_global_dtors_aux>:
     110:	b510      	push	{r4, lr}
     112:	4c06      	ldr	r4, [pc, #24]	; (12c <__do_global_dtors_aux+0x1c>)
     114:	7823      	ldrb	r3, [r4, #0]
     116:	b943      	cbnz	r3, 12a <__do_global_dtors_aux+0x1a>
     118:	f7ff ffd8 	bl	cc <deregister_tm_clones>
     11c:	4b04      	ldr	r3, [pc, #16]	; (130 <__do_global_dtors_aux+0x20>)
     11e:	b113      	cbz	r3, 126 <__do_global_dtors_aux+0x16>
     120:	4804      	ldr	r0, [pc, #16]	; (134 <__do_global_dtors_aux+0x24>)
     122:	f3af 8000 	nop.w
     126:	2301      	movs	r3, #1
     128:	7023      	strb	r3, [r4, #0]
     12a:	bd10      	pop	{r4, pc}
     12c:	10000180 	.word	0x10000180
     130:	00000000 	.word	0x00000000
     134:	00007168 	.word	0x00007168

00000138 <frame_dummy>:
     138:	b508      	push	{r3, lr}
     13a:	4b08      	ldr	r3, [pc, #32]	; (15c <frame_dummy+0x24>)
     13c:	b11b      	cbz	r3, 146 <frame_dummy+0xe>
     13e:	4908      	ldr	r1, [pc, #32]	; (160 <frame_dummy+0x28>)
     140:	4808      	ldr	r0, [pc, #32]	; (164 <frame_dummy+0x2c>)
     142:	f3af 8000 	nop.w
     146:	4808      	ldr	r0, [pc, #32]	; (168 <frame_dummy+0x30>)
     148:	6803      	ldr	r3, [r0, #0]
     14a:	b913      	cbnz	r3, 152 <frame_dummy+0x1a>
     14c:	e8bd 4008 	ldmia.w	sp!, {r3, lr}
     150:	e7cc      	b.n	ec <register_tm_clones>
     152:	4b06      	ldr	r3, [pc, #24]	; (16c <frame_dummy+0x34>)
     154:	2b00      	cmp	r3, #0
     156:	d0f9      	beq.n	14c <frame_dummy+0x14>
     158:	4798      	blx	r3
     15a:	e7f7      	b.n	14c <frame_dummy+0x14>
     15c:	00000000 	.word	0x00000000
     160:	10000184 	.word	0x10000184
     164:	00007168 	.word	0x00007168
     168:	10000180 	.word	0x10000180
     16c:	00000000 	.word	0x00000000

00000170 <TextLCD::columns()>:
     170:	2010      	movs	r0, #16
     172:	4770      	bx	lr

00000174 <TextLCD::rows()>:
     174:	2002      	movs	r0, #2
     176:	4770      	bx	lr

00000178 <TextLCD::writeByte(int)>:
     178:	b5f8      	push	{r3, r4, r5, r6, r7, lr}
     17a:	4604      	mov	r4, r0
     17c:	460e      	mov	r6, r1
     17e:	4d12      	ldr	r5, [pc, #72]	; (1c8 <TextLCD::writeByte(int)+0x50>)
     180:	f100 076c 	add.w	r7, r0, #108	; 0x6c
     184:	1109      	asrs	r1, r1, #4
     186:	4638      	mov	r0, r7
     188:	f002 f876 	bl	2278 <mbed::BusOut::operator=(int)>
     18c:	4628      	mov	r0, r5
     18e:	f000 fca9 	bl	ae4 <wait>
     192:	6e63      	ldr	r3, [r4, #100]	; 0x64
     194:	6da2      	ldr	r2, [r4, #88]	; 0x58
     196:	4628      	mov	r0, r5
     198:	601a      	str	r2, [r3, #0]
     19a:	f000 fca3 	bl	ae4 <wait>
     19e:	6e23      	ldr	r3, [r4, #96]	; 0x60
     1a0:	6da2      	ldr	r2, [r4, #88]	; 0x58
     1a2:	4631      	mov	r1, r6
     1a4:	601a      	str	r2, [r3, #0]
     1a6:	4638      	mov	r0, r7
     1a8:	f002 f866 	bl	2278 <mbed::BusOut::operator=(int)>
     1ac:	4628      	mov	r0, r5
     1ae:	f000 fc99 	bl	ae4 <wait>
     1b2:	6e63      	ldr	r3, [r4, #100]	; 0x64
     1b4:	6da2      	ldr	r2, [r4, #88]	; 0x58
     1b6:	4628      	mov	r0, r5
     1b8:	601a      	str	r2, [r3, #0]
     1ba:	f000 fc93 	bl	ae4 <wait>
     1be:	6e23      	ldr	r3, [r4, #96]	; 0x60
     1c0:	6da2      	ldr	r2, [r4, #88]	; 0x58
     1c2:	601a      	str	r2, [r3, #0]
     1c4:	bdf8      	pop	{r3, r4, r5, r6, r7, pc}
     1c6:	bf00      	nop
     1c8:	3827c5ac 	.word	0x3827c5ac

000001cc <TextLCD::TextLCD(PinName, PinName, PinName, PinName, PinName, PinName, PinName, char const*)>:
     1cc:	e92d 43f0 	stmdb	sp!, {r4, r5, r6, r7, r8, r9, lr}
     1d0:	4604      	mov	r4, r0
     1d2:	4691      	mov	r9, r2
     1d4:	4688      	mov	r8, r1
     1d6:	461f      	mov	r7, r3
     1d8:	b08f      	sub	sp, #60	; 0x3c
     1da:	4d39      	ldr	r5, [pc, #228]	; (2c0 <TextLCD::TextLCD(PinName, PinName, PinName, PinName, PinName, PinName, PinName, char const*)+0xf4>)
     1dc:	991a      	ldr	r1, [sp, #104]	; 0x68
     1de:	9e19      	ldr	r6, [sp, #100]	; 0x64
     1e0:	f000 fc20 	bl	a24 <TextDisplay::TextDisplay(char const*)>
     1e4:	f104 0024 	add.w	r0, r4, #36	; 0x24
     1e8:	6025      	str	r5, [r4, #0]
     1ea:	f105 0350 	add.w	r3, r5, #80	; 0x50
     1ee:	2500      	movs	r5, #0
     1f0:	6063      	str	r3, [r4, #4]
     1f2:	6265      	str	r5, [r4, #36]	; 0x24
     1f4:	4649      	mov	r1, r9
     1f6:	6045      	str	r5, [r0, #4]
     1f8:	6085      	str	r5, [r0, #8]
     1fa:	60c5      	str	r5, [r0, #12]
     1fc:	6105      	str	r5, [r0, #16]
     1fe:	6145      	str	r5, [r0, #20]
     200:	f000 fcae 	bl	b60 <gpio_init_out>
     204:	f104 003c 	add.w	r0, r4, #60	; 0x3c
     208:	63e5      	str	r5, [r4, #60]	; 0x3c
     20a:	4641      	mov	r1, r8
     20c:	6045      	str	r5, [r0, #4]
     20e:	6085      	str	r5, [r0, #8]
     210:	60c5      	str	r5, [r0, #12]
     212:	6105      	str	r5, [r0, #16]
     214:	6145      	str	r5, [r0, #20]
     216:	f000 fca3 	bl	b60 <gpio_init_out>
     21a:	f104 0054 	add.w	r0, r4, #84	; 0x54
     21e:	6565      	str	r5, [r4, #84]	; 0x54
     220:	4639      	mov	r1, r7
     222:	6045      	str	r5, [r0, #4]
     224:	6085      	str	r5, [r0, #8]
     226:	60c5      	str	r5, [r0, #12]
     228:	6105      	str	r5, [r0, #16]
     22a:	6145      	str	r5, [r0, #20]
     22c:	f000 fc98 	bl	b60 <gpio_init_out>
     230:	f04f 35ff 	mov.w	r5, #4294967295
     234:	9600      	str	r6, [sp, #0]
     236:	a916      	add	r1, sp, #88	; 0x58
     238:	c90e      	ldmia	r1, {r1, r2, r3}
     23a:	f104 006c 	add.w	r0, r4, #108	; 0x6c
     23e:	950c      	str	r5, [sp, #48]	; 0x30
     240:	950b      	str	r5, [sp, #44]	; 0x2c
     242:	950a      	str	r5, [sp, #40]	; 0x28
     244:	9509      	str	r5, [sp, #36]	; 0x24
     246:	9508      	str	r5, [sp, #32]
     248:	9507      	str	r5, [sp, #28]
     24a:	9506      	str	r5, [sp, #24]
     24c:	9505      	str	r5, [sp, #20]
     24e:	9504      	str	r5, [sp, #16]
     250:	9503      	str	r5, [sp, #12]
     252:	9502      	str	r5, [sp, #8]
     254:	9501      	str	r5, [sp, #4]
     256:	f001 ffb1 	bl	21bc <mbed::BusOut::BusOut(PinName, PinName, PinName, PinName, PinName, PinName, PinName, PinName, PinName, PinName, PinName, PinName, PinName, PinName, PinName, PinName)>
     25a:	6b63      	ldr	r3, [r4, #52]	; 0x34
     25c:	6aa1      	ldr	r1, [r4, #40]	; 0x28
     25e:	6e22      	ldr	r2, [r4, #96]	; 0x60
     260:	6019      	str	r1, [r3, #0]
     262:	6da1      	ldr	r1, [r4, #88]	; 0x58
     264:	6ce3      	ldr	r3, [r4, #76]	; 0x4c
     266:	6011      	str	r1, [r2, #0]
     268:	6c22      	ldr	r2, [r4, #64]	; 0x40
     26a:	2503      	movs	r5, #3
     26c:	601a      	str	r2, [r3, #0]
     26e:	2103      	movs	r1, #3
     270:	4620      	mov	r0, r4
     272:	f7ff ff81 	bl	178 <TextLCD::writeByte(int)>
     276:	4813      	ldr	r0, [pc, #76]	; (2c4 <TextLCD::TextLCD(PinName, PinName, PinName, PinName, PinName, PinName, PinName, char const*)+0xf8>)
     278:	f000 fc34 	bl	ae4 <wait>
     27c:	3d01      	subs	r5, #1
     27e:	d1f6      	bne.n	26e <TextLCD::TextLCD(PinName, PinName, PinName, PinName, PinName, PinName, PinName, char const*)+0xa2>
     280:	4620      	mov	r0, r4
     282:	2102      	movs	r1, #2
     284:	f7ff ff78 	bl	178 <TextLCD::writeByte(int)>
     288:	6ce3      	ldr	r3, [r4, #76]	; 0x4c
     28a:	6c22      	ldr	r2, [r4, #64]	; 0x40
     28c:	4620      	mov	r0, r4
     28e:	601a      	str	r2, [r3, #0]
     290:	2128      	movs	r1, #40	; 0x28
     292:	f7ff ff71 	bl	178 <TextLCD::writeByte(int)>
     296:	6ce3      	ldr	r3, [r4, #76]	; 0x4c
     298:	6c22      	ldr	r2, [r4, #64]	; 0x40
     29a:	4620      	mov	r0, r4
     29c:	601a      	str	r2, [r3, #0]
     29e:	210c      	movs	r1, #12
     2a0:	f7ff ff6a 	bl	178 <TextLCD::writeByte(int)>
     2a4:	6ce3      	ldr	r3, [r4, #76]	; 0x4c
     2a6:	6c22      	ldr	r2, [r4, #64]	; 0x40
     2a8:	2106      	movs	r1, #6
     2aa:	601a      	str	r2, [r3, #0]
     2ac:	4620      	mov	r0, r4
     2ae:	f7ff ff63 	bl	178 <TextLCD::writeByte(int)>
     2b2:	4620      	mov	r0, r4
     2b4:	f000 fb8e 	bl	9d4 <TextDisplay::cls()>
     2b8:	4620      	mov	r0, r4
     2ba:	b00f      	add	sp, #60	; 0x3c
     2bc:	e8bd 83f0 	ldmia.w	sp!, {r4, r5, r6, r7, r8, r9, pc}
     2c0:	00006934 	.word	0x00006934
     2c4:	3ad6f545 	.word	0x3ad6f545

000002c8 <TextLCD::character(int, int, int)>:
     2c8:	b570      	push	{r4, r5, r6, lr}
     2ca:	4604      	mov	r4, r0
     2cc:	461d      	mov	r5, r3
     2ce:	6c06      	ldr	r6, [r0, #64]	; 0x40
     2d0:	eb02 0282 	add.w	r2, r2, r2, lsl #2
     2d4:	6cc3      	ldr	r3, [r0, #76]	; 0x4c
     2d6:	eb01 01c2 	add.w	r1, r1, r2, lsl #3
     2da:	3180      	adds	r1, #128	; 0x80
     2dc:	601e      	str	r6, [r3, #0]
     2de:	f7ff ff4b 	bl	178 <TextLCD::writeByte(int)>
     2e2:	6c20      	ldr	r0, [r4, #64]	; 0x40
     2e4:	6ca2      	ldr	r2, [r4, #72]	; 0x48
     2e6:	4629      	mov	r1, r5
     2e8:	6010      	str	r0, [r2, #0]
     2ea:	4620      	mov	r0, r4
     2ec:	e8bd 4070 	ldmia.w	sp!, {r4, r5, r6, lr}
     2f0:	f7ff bf42 	b.w	178 <TextLCD::writeByte(int)>

000002f4 <TextLCD::~TextLCD()>:
     2f4:	b510      	push	{r4, lr}
     2f6:	4604      	mov	r4, r0
     2f8:	4b09      	ldr	r3, [pc, #36]	; (320 <TextLCD::~TextLCD()+0x2c>)
     2fa:	306c      	adds	r0, #108	; 0x6c
     2fc:	f103 0208 	add.w	r2, r3, #8
     300:	3358      	adds	r3, #88	; 0x58
     302:	e884 000c 	stmia.w	r4, {r2, r3}
     306:	f001 ff31 	bl	216c <mbed::BusOut::~BusOut()>
     30a:	4b06      	ldr	r3, [pc, #24]	; (324 <TextLCD::~TextLCD()+0x30>)
     30c:	4620      	mov	r0, r4
     30e:	f103 0250 	add.w	r2, r3, #80	; 0x50
     312:	6023      	str	r3, [r4, #0]
     314:	6062      	str	r2, [r4, #4]
     316:	f001 fef5 	bl	2104 <mbed::Stream::~Stream()>
     31a:	4620      	mov	r0, r4
     31c:	bd10      	pop	{r4, pc}
     31e:	bf00      	nop
     320:	0000692c 	.word	0x0000692c
     324:	00006aa0 	.word	0x00006aa0

00000328 <non-virtual thunk to TextLCD::~TextLCD()>:
     328:	f1a0 0004 	sub.w	r0, r0, #4
     32c:	e7e2      	b.n	2f4 <TextLCD::~TextLCD()>
     32e:	bf00      	nop

00000330 <TextLCD::~TextLCD()>:
     330:	b510      	push	{r4, lr}
     332:	4604      	mov	r4, r0
     334:	4b0a      	ldr	r3, [pc, #40]	; (360 <TextLCD::~TextLCD()+0x30>)
     336:	306c      	adds	r0, #108	; 0x6c
     338:	f103 0208 	add.w	r2, r3, #8
     33c:	3358      	adds	r3, #88	; 0x58
     33e:	e884 000c 	stmia.w	r4, {r2, r3}
     342:	f001 ff13 	bl	216c <mbed::BusOut::~BusOut()>
     346:	4b07      	ldr	r3, [pc, #28]	; (364 <TextLCD::~TextLCD()+0x34>)
     348:	4620      	mov	r0, r4
     34a:	f103 0250 	add.w	r2, r3, #80	; 0x50
     34e:	6023      	str	r3, [r4, #0]
     350:	6062      	str	r2, [r4, #4]
     352:	f001 fed7 	bl	2104 <mbed::Stream::~Stream()>
     356:	4620      	mov	r0, r4
     358:	f002 f83b 	bl	23d2 <operator delete(void*)>
     35c:	4620      	mov	r0, r4
     35e:	bd10      	pop	{r4, pc}
     360:	0000692c 	.word	0x0000692c
     364:	00006aa0 	.word	0x00006aa0

00000368 <non-virtual thunk to TextLCD::~TextLCD()>:
     368:	f1a0 0004 	sub.w	r0, r0, #4
     36c:	e7e0      	b.n	330 <TextLCD::~TextLCD()>
     36e:	bf00      	nop

00000370 <mbed::SerialBase::~SerialBase()>:
     370:	4770      	bx	lr
     372:	bf00      	nop

00000374 <mbed::SerialBase::~SerialBase()>:
     374:	b510      	push	{r4, lr}
     376:	4604      	mov	r4, r0
     378:	f002 f82b 	bl	23d2 <operator delete(void*)>
     37c:	4620      	mov	r0, r4
     37e:	bd10      	pop	{r4, pc}

00000380 <mbed::Serial::~Serial()>:
     380:	b510      	push	{r4, lr}
     382:	4604      	mov	r4, r0
     384:	4b06      	ldr	r3, [pc, #24]	; (3a0 <mbed::Serial::~Serial()+0x20>)
     386:	3040      	adds	r0, #64	; 0x40
     388:	f103 0118 	add.w	r1, r3, #24
     38c:	f103 024c 	add.w	r2, r3, #76	; 0x4c
     390:	6023      	str	r3, [r4, #0]
     392:	6421      	str	r1, [r4, #64]	; 0x40
     394:	6462      	str	r2, [r4, #68]	; 0x44
     396:	f001 feb5 	bl	2104 <mbed::Stream::~Stream()>
     39a:	4620      	mov	r0, r4
     39c:	bd10      	pop	{r4, pc}
     39e:	bf00      	nop
     3a0:	00006d1c 	.word	0x00006d1c

000003a4 <non-virtual thunk to mbed::Serial::~Serial()>:
     3a4:	f1a0 0040 	sub.w	r0, r0, #64	; 0x40
     3a8:	e7ea      	b.n	380 <mbed::Serial::~Serial()>
     3aa:	bf00      	nop

000003ac <non-virtual thunk to mbed::Serial::~Serial()>:
     3ac:	f1a0 0044 	sub.w	r0, r0, #68	; 0x44
     3b0:	e7e6      	b.n	380 <mbed::Serial::~Serial()>
     3b2:	bf00      	nop
     3b4:	0000      	movs	r0, r0
	...

000003b8 <main>:
     3b8:	e92d 4ff0 	stmdb	sp!, {r4, r5, r6, r7, r8, r9, r10, r11, lr}
     3bc:	f44f 5116 	mov.w	r1, #9600	; 0x2580
     3c0:	b087      	sub	sp, #28
     3c2:	48ab      	ldr	r0, [pc, #684]	; (670 <main+0x2b8>)
     3c4:	f001 ffa4 	bl	2310 <mbed::SerialBase::baud(int)>
     3c8:	2400      	movs	r4, #0
     3ca:	49aa      	ldr	r1, [pc, #680]	; (674 <main+0x2bc>)
     3cc:	48aa      	ldr	r0, [pc, #680]	; (678 <main+0x2c0>)
     3ce:	9403      	str	r4, [sp, #12]
     3d0:	9404      	str	r4, [sp, #16]
     3d2:	9405      	str	r4, [sp, #20]
     3d4:	f001 feb4 	bl	2140 <mbed::Stream::printf(char const*, ...)>
     3d8:	48a8      	ldr	r0, [pc, #672]	; (67c <main+0x2c4>)
     3da:	f000 fb83 	bl	ae4 <wait>
     3de:	48a8      	ldr	r0, [pc, #672]	; (680 <main+0x2c8>)
     3e0:	f000 fa74 	bl	8cc <ADXL345_I2C::getDeviceID()>
     3e4:	49a7      	ldr	r1, [pc, #668]	; (684 <main+0x2cc>)
     3e6:	4602      	mov	r2, r0
     3e8:	48a3      	ldr	r0, [pc, #652]	; (678 <main+0x2c0>)
     3ea:	f001 fea9 	bl	2140 <mbed::Stream::printf(char const*, ...)>
     3ee:	48a3      	ldr	r0, [pc, #652]	; (67c <main+0x2c4>)
     3f0:	f000 fb78 	bl	ae4 <wait>
     3f4:	4621      	mov	r1, r4
     3f6:	48a2      	ldr	r0, [pc, #648]	; (680 <main+0x2c8>)
     3f8:	f000 fa6c 	bl	8d4 <ADXL345_I2C::setPowerControl(char)>
     3fc:	2800      	cmp	r0, #0
     3fe:	f040 8122 	bne.w	646 <main+0x28e>
     402:	489e      	ldr	r0, [pc, #632]	; (67c <main+0x2c4>)
     404:	f000 fb6e 	bl	ae4 <wait>
     408:	210b      	movs	r1, #11
     40a:	489d      	ldr	r0, [pc, #628]	; (680 <main+0x2c8>)
     40c:	f000 fa72 	bl	8f4 <ADXL345_I2C::setDataFormatControl(char)>
     410:	2800      	cmp	r0, #0
     412:	f040 8110 	bne.w	636 <main+0x27e>
     416:	4899      	ldr	r0, [pc, #612]	; (67c <main+0x2c4>)
     418:	f000 fb64 	bl	ae4 <wait>
     41c:	210f      	movs	r1, #15
     41e:	4898      	ldr	r0, [pc, #608]	; (680 <main+0x2c8>)
     420:	f000 fa78 	bl	914 <ADXL345_I2C::setDataRate(char)>
     424:	2800      	cmp	r0, #0
     426:	f040 8113 	bne.w	650 <main+0x298>
     42a:	4894      	ldr	r0, [pc, #592]	; (67c <main+0x2c4>)
     42c:	f000 fb5a 	bl	ae4 <wait>
     430:	2108      	movs	r1, #8
     432:	4893      	ldr	r0, [pc, #588]	; (680 <main+0x2c8>)
     434:	f000 fa4e 	bl	8d4 <ADXL345_I2C::setPowerControl(char)>
     438:	2800      	cmp	r0, #0
     43a:	f040 810e 	bne.w	65a <main+0x2a2>
     43e:	f8df a288 	ldr.w	r10, [pc, #648]	; 6c8 <main+0x310>
     442:	f8df 9288 	ldr.w	r9, [pc, #648]	; 6cc <main+0x314>
     446:	f8df 8288 	ldr.w	r8, [pc, #648]	; 6d0 <main+0x318>
     44a:	4d8f      	ldr	r5, [pc, #572]	; (688 <main+0x2d0>)
     44c:	4f8f      	ldr	r7, [pc, #572]	; (68c <main+0x2d4>)
     44e:	4e90      	ldr	r6, [pc, #576]	; (690 <main+0x2d8>)
     450:	4890      	ldr	r0, [pc, #576]	; (694 <main+0x2dc>)
     452:	f000 fb47 	bl	ae4 <wait>
     456:	2100      	movs	r1, #0
     458:	4889      	ldr	r0, [pc, #548]	; (680 <main+0x2c8>)
     45a:	f000 fa3b 	bl	8d4 <ADXL345_I2C::setPowerControl(char)>
     45e:	210b      	movs	r1, #11
     460:	4887      	ldr	r0, [pc, #540]	; (680 <main+0x2c8>)
     462:	f000 fa47 	bl	8f4 <ADXL345_I2C::setDataFormatControl(char)>
     466:	210f      	movs	r1, #15
     468:	4885      	ldr	r0, [pc, #532]	; (680 <main+0x2c8>)
     46a:	f000 fa53 	bl	914 <ADXL345_I2C::setDataRate(char)>
     46e:	2108      	movs	r1, #8
     470:	4883      	ldr	r0, [pc, #524]	; (680 <main+0x2c8>)
     472:	f000 fa2f 	bl	8d4 <ADXL345_I2C::setPowerControl(char)>
     476:	a903      	add	r1, sp, #12
     478:	4881      	ldr	r0, [pc, #516]	; (680 <main+0x2c8>)
     47a:	f000 fa15 	bl	8a8 <ADXL345_I2C::getOutput(int*)>
     47e:	f9bd 000c 	ldrsh.w	r0, [sp, #12]
     482:	f002 f913 	bl	26ac <__aeabi_i2d>
     486:	a378      	add	r3, pc, #480	; (adr r3, 668 <main+0x2b0>)
     488:	e9d3 2300 	ldrd	r2, r3, [r3]
     48c:	f002 f974 	bl	2778 <__aeabi_dmul>
     490:	f002 fbac 	bl	2bec <__aeabi_d2f>
     494:	f8ca 0000 	str.w	r0, [r10]
     498:	f9bd 0010 	ldrsh.w	r0, [sp, #16]
     49c:	f002 f906 	bl	26ac <__aeabi_i2d>
     4a0:	a371      	add	r3, pc, #452	; (adr r3, 668 <main+0x2b0>)
     4a2:	e9d3 2300 	ldrd	r2, r3, [r3]
     4a6:	f002 f967 	bl	2778 <__aeabi_dmul>
     4aa:	f002 fb9f 	bl	2bec <__aeabi_d2f>
     4ae:	f8c9 0000 	str.w	r0, [r9]
     4b2:	f9bd 0014 	ldrsh.w	r0, [sp, #20]
     4b6:	f002 f8f9 	bl	26ac <__aeabi_i2d>
     4ba:	a36b      	add	r3, pc, #428	; (adr r3, 668 <main+0x2b0>)
     4bc:	e9d3 2300 	ldrd	r2, r3, [r3]
     4c0:	f002 f95a 	bl	2778 <__aeabi_dmul>
     4c4:	f002 fb92 	bl	2bec <__aeabi_d2f>
     4c8:	f8c8 0000 	str.w	r0, [r8]
     4cc:	4872      	ldr	r0, [pc, #456]	; (698 <main+0x2e0>)
     4ce:	f000 fa81 	bl	9d4 <TextDisplay::cls()>
     4d2:	2200      	movs	r2, #0
     4d4:	2102      	movs	r1, #2
     4d6:	4870      	ldr	r0, [pc, #448]	; (698 <main+0x2e0>)
     4d8:	f000 fa70 	bl	9bc <TextDisplay::locate(int, int)>
     4dc:	496f      	ldr	r1, [pc, #444]	; (69c <main+0x2e4>)
     4de:	486e      	ldr	r0, [pc, #440]	; (698 <main+0x2e0>)
     4e0:	f001 fe2e 	bl	2140 <mbed::Stream::printf(char const*, ...)>
     4e4:	f04f 4080 	mov.w	r0, #1073741824	; 0x40000000
     4e8:	f000 fafc 	bl	ae4 <wait>
     4ec:	486a      	ldr	r0, [pc, #424]	; (698 <main+0x2e0>)
     4ee:	f000 fa71 	bl	9d4 <TextDisplay::cls()>
     4f2:	2200      	movs	r2, #0
     4f4:	2102      	movs	r1, #2
     4f6:	4868      	ldr	r0, [pc, #416]	; (698 <main+0x2e0>)
     4f8:	f000 fa60 	bl	9bc <TextDisplay::locate(int, int)>
     4fc:	f8da 0000 	ldr.w	r0, [r10]
     500:	f002 f8e6 	bl	26d0 <__aeabi_f2d>
     504:	460b      	mov	r3, r1
     506:	4602      	mov	r2, r0
     508:	4965      	ldr	r1, [pc, #404]	; (6a0 <main+0x2e8>)
     50a:	4863      	ldr	r0, [pc, #396]	; (698 <main+0x2e0>)
     50c:	f001 fe18 	bl	2140 <mbed::Stream::printf(char const*, ...)>
     510:	f04f 4080 	mov.w	r0, #1073741824	; 0x40000000
     514:	f000 fae6 	bl	ae4 <wait>
     518:	485f      	ldr	r0, [pc, #380]	; (698 <main+0x2e0>)
     51a:	f000 fa5b 	bl	9d4 <TextDisplay::cls()>
     51e:	2200      	movs	r2, #0
     520:	2102      	movs	r1, #2
     522:	485d      	ldr	r0, [pc, #372]	; (698 <main+0x2e0>)
     524:	f000 fa4a 	bl	9bc <TextDisplay::locate(int, int)>
     528:	f8d9 0000 	ldr.w	r0, [r9]
     52c:	f002 f8d0 	bl	26d0 <__aeabi_f2d>
     530:	460b      	mov	r3, r1
     532:	4602      	mov	r2, r0
     534:	495b      	ldr	r1, [pc, #364]	; (6a4 <main+0x2ec>)
     536:	4858      	ldr	r0, [pc, #352]	; (698 <main+0x2e0>)
     538:	f001 fe02 	bl	2140 <mbed::Stream::printf(char const*, ...)>
     53c:	f04f 4080 	mov.w	r0, #1073741824	; 0x40000000
     540:	f000 fad0 	bl	ae4 <wait>
     544:	4854      	ldr	r0, [pc, #336]	; (698 <main+0x2e0>)
     546:	f000 fa45 	bl	9d4 <TextDisplay::cls()>
     54a:	2200      	movs	r2, #0
     54c:	2102      	movs	r1, #2
     54e:	4852      	ldr	r0, [pc, #328]	; (698 <main+0x2e0>)
     550:	f000 fa34 	bl	9bc <TextDisplay::locate(int, int)>
     554:	f8d8 0000 	ldr.w	r0, [r8]
     558:	f002 f8ba 	bl	26d0 <__aeabi_f2d>
     55c:	4602      	mov	r2, r0
     55e:	460b      	mov	r3, r1
     560:	484d      	ldr	r0, [pc, #308]	; (698 <main+0x2e0>)
     562:	4951      	ldr	r1, [pc, #324]	; (6a8 <main+0x2f0>)
     564:	f001 fdec 	bl	2140 <mbed::Stream::printf(char const*, ...)>
     568:	f04f 4080 	mov.w	r0, #1073741824	; 0x40000000
     56c:	f000 faba 	bl	ae4 <wait>
     570:	4849      	ldr	r0, [pc, #292]	; (698 <main+0x2e0>)
     572:	f000 fa2f 	bl	9d4 <TextDisplay::cls()>
     576:	f04f 507e 	mov.w	r0, #1065353216	; 0x3f800000
     57a:	f000 fab3 	bl	ae4 <wait>
     57e:	2400      	movs	r4, #0
     580:	2060      	movs	r0, #96	; 0x60
     582:	f04f 0ea0 	mov.w	lr, #160	; 0xa0
     586:	f04f 0b01 	mov.w	r11, #1
     58a:	7068      	strb	r0, [r5, #1]
     58c:	9400      	str	r4, [sp, #0]
     58e:	2303      	movs	r3, #3
     590:	4a3d      	ldr	r2, [pc, #244]	; (688 <main+0x2d0>)
     592:	2190      	movs	r1, #144	; 0x90
     594:	483a      	ldr	r0, [pc, #232]	; (680 <main+0x2c8>)
     596:	f885 e002 	strb.w	lr, [r5, #2]
     59a:	f885 b000 	strb.w	r11, [r5]
     59e:	f001 facd 	bl	1b3c <mbed::I2C::write(int, char const*, int, bool)>
     5a2:	465b      	mov	r3, r11
     5a4:	4a38      	ldr	r2, [pc, #224]	; (688 <main+0x2d0>)
     5a6:	2190      	movs	r1, #144	; 0x90
     5a8:	9400      	str	r4, [sp, #0]
     5aa:	4835      	ldr	r0, [pc, #212]	; (680 <main+0x2c8>)
     5ac:	702c      	strb	r4, [r5, #0]
     5ae:	f001 fac5 	bl	1b3c <mbed::I2C::write(int, char const*, int, bool)>
     5b2:	f04f 507e 	mov.w	r0, #1065353216	; 0x3f800000
     5b6:	f000 fa95 	bl	ae4 <wait>
     5ba:	4a34      	ldr	r2, [pc, #208]	; (68c <main+0x2d4>)
     5bc:	9400      	str	r4, [sp, #0]
     5be:	2302      	movs	r3, #2
     5c0:	2190      	movs	r1, #144	; 0x90
     5c2:	482f      	ldr	r0, [pc, #188]	; (680 <main+0x2c8>)
     5c4:	f001 fadc 	bl	1b80 <mbed::I2C::read(int, char*, int, bool)>
     5c8:	787b      	ldrb	r3, [r7, #1]
     5ca:	7838      	ldrb	r0, [r7, #0]
     5cc:	eb03 2000 	add.w	r0, r3, r0, lsl #8
     5d0:	1100      	asrs	r0, r0, #4
     5d2:	f002 f86b 	bl	26ac <__aeabi_i2d>
     5d6:	4b35      	ldr	r3, [pc, #212]	; (6ac <main+0x2f4>)
     5d8:	2200      	movs	r2, #0
     5da:	f002 f8cd 	bl	2778 <__aeabi_dmul>
     5de:	f002 fb05 	bl	2bec <__aeabi_d2f>
     5e2:	6030      	str	r0, [r6, #0]
     5e4:	482c      	ldr	r0, [pc, #176]	; (698 <main+0x2e0>)
     5e6:	f000 f9f5 	bl	9d4 <TextDisplay::cls()>
     5ea:	4622      	mov	r2, r4
     5ec:	2102      	movs	r1, #2
     5ee:	482a      	ldr	r0, [pc, #168]	; (698 <main+0x2e0>)
     5f0:	f000 f9e4 	bl	9bc <TextDisplay::locate(int, int)>
     5f4:	492e      	ldr	r1, [pc, #184]	; (6b0 <main+0x2f8>)
     5f6:	4828      	ldr	r0, [pc, #160]	; (698 <main+0x2e0>)
     5f8:	f001 fda2 	bl	2140 <mbed::Stream::printf(char const*, ...)>
     5fc:	f04f 4080 	mov.w	r0, #1073741824	; 0x40000000
     600:	f000 fa70 	bl	ae4 <wait>
     604:	4824      	ldr	r0, [pc, #144]	; (698 <main+0x2e0>)
     606:	f000 f9e5 	bl	9d4 <TextDisplay::cls()>
     60a:	4622      	mov	r2, r4
     60c:	2102      	movs	r1, #2
     60e:	4822      	ldr	r0, [pc, #136]	; (698 <main+0x2e0>)
     610:	f000 f9d4 	bl	9bc <TextDisplay::locate(int, int)>
     614:	6830      	ldr	r0, [r6, #0]
     616:	f002 f85b 	bl	26d0 <__aeabi_f2d>
     61a:	4602      	mov	r2, r0
     61c:	460b      	mov	r3, r1
     61e:	481e      	ldr	r0, [pc, #120]	; (698 <main+0x2e0>)
     620:	4924      	ldr	r1, [pc, #144]	; (6b4 <main+0x2fc>)
     622:	f001 fd8d 	bl	2140 <mbed::Stream::printf(char const*, ...)>
     626:	f04f 4080 	mov.w	r0, #1073741824	; 0x40000000
     62a:	f000 fa5b 	bl	ae4 <wait>
     62e:	481a      	ldr	r0, [pc, #104]	; (698 <main+0x2e0>)
     630:	f000 f9d0 	bl	9d4 <TextDisplay::cls()>
     634:	e70c      	b.n	450 <main+0x98>
     636:	4920      	ldr	r1, [pc, #128]	; (6b8 <main+0x300>)
     638:	480f      	ldr	r0, [pc, #60]	; (678 <main+0x2c0>)
     63a:	f001 fd81 	bl	2140 <mbed::Stream::printf(char const*, ...)>
     63e:	2000      	movs	r0, #0
     640:	b007      	add	sp, #28
     642:	e8bd 8ff0 	ldmia.w	sp!, {r4, r5, r6, r7, r8, r9, r10, r11, pc}
     646:	491d      	ldr	r1, [pc, #116]	; (6bc <main+0x304>)
     648:	480b      	ldr	r0, [pc, #44]	; (678 <main+0x2c0>)
     64a:	f001 fd79 	bl	2140 <mbed::Stream::printf(char const*, ...)>
     64e:	e7f6      	b.n	63e <main+0x286>
     650:	491b      	ldr	r1, [pc, #108]	; (6c0 <main+0x308>)
     652:	4809      	ldr	r0, [pc, #36]	; (678 <main+0x2c0>)
     654:	f001 fd74 	bl	2140 <mbed::Stream::printf(char const*, ...)>
     658:	e7f1      	b.n	63e <main+0x286>
     65a:	491a      	ldr	r1, [pc, #104]	; (6c4 <main+0x30c>)
     65c:	4806      	ldr	r0, [pc, #24]	; (678 <main+0x2c0>)
     65e:	f001 fd6f 	bl	2140 <mbed::Stream::printf(char const*, ...)>
     662:	e7ec      	b.n	63e <main+0x286>
     664:	f3af 8000 	nop.w
     668:	47ae147b 	.word	0x47ae147b
     66c:	3fa47ae1 	.word	0x3fa47ae1
     670:	100001a0 	.word	0x100001a0
     674:	0000698c 	.word	0x0000698c
     678:	100001e0 	.word	0x100001e0
     67c:	3a83126f 	.word	0x3a83126f
     680:	100001fc 	.word	0x100001fc
     684:	000069a8 	.word	0x000069a8
     688:	10000204 	.word	0x10000204
     68c:	1000020c 	.word	0x1000020c
     690:	1000019c 	.word	0x1000019c
     694:	3dcccccd 	.word	0x3dcccccd
     698:	10000210 	.word	0x10000210
     69c:	00006a44 	.word	0x00006a44
     6a0:	00006a58 	.word	0x00006a58
     6a4:	00006a64 	.word	0x00006a64
     6a8:	00006a70 	.word	0x00006a70
     6ac:	3fb00000 	.word	0x3fb00000
     6b0:	00006a7c 	.word	0x00006a7c
     6b4:	00006a8c 	.word	0x00006a8c
     6b8:	000069e4 	.word	0x000069e4
     6bc:	000069c0 	.word	0x000069c0
     6c0:	000069fc 	.word	0x000069fc
     6c4:	00006a14 	.word	0x00006a14
     6c8:	100001f8 	.word	0x100001f8
     6cc:	10000208 	.word	0x10000208
     6d0:	100002c4 	.word	0x100002c4

000006d4 <mbed::Serial::~Serial()>:
     6d4:	b510      	push	{r4, lr}
     6d6:	4604      	mov	r4, r0
     6d8:	4b07      	ldr	r3, [pc, #28]	; (6f8 <mbed::Serial::~Serial()+0x24>)
     6da:	3040      	adds	r0, #64	; 0x40
     6dc:	f103 0118 	add.w	r1, r3, #24
     6e0:	f103 024c 	add.w	r2, r3, #76	; 0x4c
     6e4:	6023      	str	r3, [r4, #0]
     6e6:	6421      	str	r1, [r4, #64]	; 0x40
     6e8:	6462      	str	r2, [r4, #68]	; 0x44
     6ea:	f001 fd0b 	bl	2104 <mbed::Stream::~Stream()>
     6ee:	4620      	mov	r0, r4
     6f0:	f001 fe6f 	bl	23d2 <operator delete(void*)>
     6f4:	4620      	mov	r0, r4
     6f6:	bd10      	pop	{r4, pc}
     6f8:	00006d1c 	.word	0x00006d1c

000006fc <non-virtual thunk to mbed::Serial::~Serial()>:
     6fc:	f1a0 0040 	sub.w	r0, r0, #64	; 0x40
     700:	e7e8      	b.n	6d4 <mbed::Serial::~Serial()>
     702:	bf00      	nop

00000704 <non-virtual thunk to mbed::Serial::~Serial()>:
     704:	f1a0 0044 	sub.w	r0, r0, #68	; 0x44
     708:	e7e4      	b.n	6d4 <mbed::Serial::~Serial()>
     70a:	bf00      	nop

0000070c <_GLOBAL__sub_I_accelerometer>:
     70c:	b5f0      	push	{r4, r5, r6, r7, lr}
     70e:	4c16      	ldr	r4, [pc, #88]	; (768 <_GLOBAL__sub_I_accelerometer+0x5c>)
     710:	b087      	sub	sp, #28
     712:	4d16      	ldr	r5, [pc, #88]	; (76c <_GLOBAL__sub_I_accelerometer+0x60>)
     714:	4a16      	ldr	r2, [pc, #88]	; (770 <_GLOBAL__sub_I_accelerometer+0x64>)
     716:	4917      	ldr	r1, [pc, #92]	; (774 <_GLOBAL__sub_I_accelerometer+0x68>)
     718:	4817      	ldr	r0, [pc, #92]	; (778 <_GLOBAL__sub_I_accelerometer+0x6c>)
     71a:	f000 f843 	bl	7a4 <ADXL345_I2C::ADXL345_I2C(PinName, PinName)>
     71e:	2300      	movs	r3, #0
     720:	4620      	mov	r0, r4
     722:	4a16      	ldr	r2, [pc, #88]	; (77c <_GLOBAL__sub_I_accelerometer+0x70>)
     724:	4916      	ldr	r1, [pc, #88]	; (780 <_GLOBAL__sub_I_accelerometer+0x74>)
     726:	f001 f9d7 	bl	1ad8 <mbed::Serial::Serial(PinName, PinName, char const*)>
     72a:	462a      	mov	r2, r5
     72c:	4620      	mov	r0, r4
     72e:	4915      	ldr	r1, [pc, #84]	; (784 <_GLOBAL__sub_I_accelerometer+0x78>)
     730:	f001 fe4a 	bl	23c8 <__aeabi_atexit>
     734:	4c14      	ldr	r4, [pc, #80]	; (788 <_GLOBAL__sub_I_accelerometer+0x7c>)
     736:	4f15      	ldr	r7, [pc, #84]	; (78c <_GLOBAL__sub_I_accelerometer+0x80>)
     738:	4e15      	ldr	r6, [pc, #84]	; (790 <_GLOBAL__sub_I_accelerometer+0x84>)
     73a:	4916      	ldr	r1, [pc, #88]	; (794 <_GLOBAL__sub_I_accelerometer+0x88>)
     73c:	4a16      	ldr	r2, [pc, #88]	; (798 <_GLOBAL__sub_I_accelerometer+0x8c>)
     73e:	2300      	movs	r3, #0
     740:	9101      	str	r1, [sp, #4]
     742:	9200      	str	r2, [sp, #0]
     744:	9304      	str	r3, [sp, #16]
     746:	4620      	mov	r0, r4
     748:	9703      	str	r7, [sp, #12]
     74a:	9602      	str	r6, [sp, #8]
     74c:	4b13      	ldr	r3, [pc, #76]	; (79c <_GLOBAL__sub_I_accelerometer+0x90>)
     74e:	3236      	adds	r2, #54	; 0x36
     750:	3138      	adds	r1, #56	; 0x38
     752:	f7ff fd3b 	bl	1cc <TextLCD::TextLCD(PinName, PinName, PinName, PinName, PinName, PinName, PinName, char const*)>
     756:	462a      	mov	r2, r5
     758:	4620      	mov	r0, r4
     75a:	4911      	ldr	r1, [pc, #68]	; (7a0 <_GLOBAL__sub_I_accelerometer+0x94>)
     75c:	b007      	add	sp, #28
     75e:	e8bd 40f0 	ldmia.w	sp!, {r4, r5, r6, r7, lr}
     762:	f001 be31 	b.w	23c8 <__aeabi_atexit>
     766:	bf00      	nop
     768:	100001a0 	.word	0x100001a0
     76c:	100000c8 	.word	0x100000c8
     770:	2009c001 	.word	0x2009c001
     774:	2009c000 	.word	0x2009c000
     778:	100001fc 	.word	0x100001fc
     77c:	2009c003 	.word	0x2009c003
     780:	2009c002 	.word	0x2009c002
     784:	00000381 	.word	0x00000381
     788:	10000210 	.word	0x10000210
     78c:	2009c004 	.word	0x2009c004
     790:	2009c005 	.word	0x2009c005
     794:	2009c00a 	.word	0x2009c00a
     798:	2009c00b 	.word	0x2009c00b
     79c:	2009c040 	.word	0x2009c040
     7a0:	000002f5 	.word	0x000002f5

000007a4 <ADXL345_I2C::ADXL345_I2C(PinName, PinName)>:
     7a4:	b5f0      	push	{r4, r5, r6, r7, lr}
     7a6:	4604      	mov	r4, r0
     7a8:	b089      	sub	sp, #36	; 0x24
     7aa:	2500      	movs	r5, #0
     7ac:	f001 f9ac 	bl	1b08 <mbed::I2C::I2C(PinName, PinName)>
     7b0:	4620      	mov	r0, r4
     7b2:	4923      	ldr	r1, [pc, #140]	; (840 <Heap_Size+0x40>)
     7b4:	f001 f9b8 	bl	1b28 <mbed::I2C::frequency(int)>
     7b8:	272c      	movs	r7, #44	; 0x2c
     7ba:	9500      	str	r5, [sp, #0]
     7bc:	aa03      	add	r2, sp, #12
     7be:	4620      	mov	r0, r4
     7c0:	260e      	movs	r6, #14
     7c2:	2302      	movs	r3, #2
     7c4:	21a6      	movs	r1, #166	; 0xa6
     7c6:	f88d 700c 	strb.w	r7, [sp, #12]
     7ca:	f88d 600d 	strb.w	r6, [sp, #13]
     7ce:	2731      	movs	r7, #49	; 0x31
     7d0:	f001 f9b4 	bl	1b3c <mbed::I2C::write(int, char const*, int, bool)>
     7d4:	260b      	movs	r6, #11
     7d6:	9500      	str	r5, [sp, #0]
     7d8:	aa04      	add	r2, sp, #16
     7da:	4620      	mov	r0, r4
     7dc:	2302      	movs	r3, #2
     7de:	21a6      	movs	r1, #166	; 0xa6
     7e0:	f88d 7010 	strb.w	r7, [sp, #16]
     7e4:	f88d 6011 	strb.w	r6, [sp, #17]
     7e8:	271e      	movs	r7, #30
     7ea:	f001 f9a7 	bl	1b3c <mbed::I2C::write(int, char const*, int, bool)>
     7ee:	26fd      	movs	r6, #253	; 0xfd
     7f0:	9500      	str	r5, [sp, #0]
     7f2:	aa05      	add	r2, sp, #20
     7f4:	4620      	mov	r0, r4
     7f6:	2302      	movs	r3, #2
     7f8:	21a6      	movs	r1, #166	; 0xa6
     7fa:	f88d 7014 	strb.w	r7, [sp, #20]
     7fe:	f88d 6015 	strb.w	r6, [sp, #21]
     802:	271f      	movs	r7, #31
     804:	f001 f99a 	bl	1b3c <mbed::I2C::write(int, char const*, int, bool)>
     808:	2603      	movs	r6, #3
     80a:	9500      	str	r5, [sp, #0]
     80c:	aa06      	add	r2, sp, #24
     80e:	4620      	mov	r0, r4
     810:	2302      	movs	r3, #2
     812:	21a6      	movs	r1, #166	; 0xa6
     814:	f88d 6019 	strb.w	r6, [sp, #25]
     818:	f88d 7018 	strb.w	r7, [sp, #24]
     81c:	2620      	movs	r6, #32
     81e:	f001 f98d 	bl	1b3c <mbed::I2C::write(int, char const*, int, bool)>
     822:	9500      	str	r5, [sp, #0]
     824:	4620      	mov	r0, r4
     826:	25fe      	movs	r5, #254	; 0xfe
     828:	2302      	movs	r3, #2
     82a:	aa07      	add	r2, sp, #28
     82c:	21a6      	movs	r1, #166	; 0xa6
     82e:	f88d 601c 	strb.w	r6, [sp, #28]
     832:	f88d 501d 	strb.w	r5, [sp, #29]
     836:	f001 f981 	bl	1b3c <mbed::I2C::write(int, char const*, int, bool)>
     83a:	4620      	mov	r0, r4
     83c:	b009      	add	sp, #36	; 0x24
     83e:	bdf0      	pop	{r4, r5, r6, r7, pc}
     840:	00061a80 	.word	0x00061a80

00000844 <ADXL345_I2C::SingleByteRead(char)>:
     844:	b530      	push	{r4, r5, lr}
     846:	4605      	mov	r5, r0
     848:	b085      	sub	sp, #20
     84a:	aa04      	add	r2, sp, #16
     84c:	2400      	movs	r4, #0
     84e:	f802 1d02 	strb.w	r1, [r2, #-2]!
     852:	2301      	movs	r3, #1
     854:	9400      	str	r4, [sp, #0]
     856:	21a6      	movs	r1, #166	; 0xa6
     858:	f001 f970 	bl	1b3c <mbed::I2C::write(int, char const*, int, bool)>
     85c:	9400      	str	r4, [sp, #0]
     85e:	4628      	mov	r0, r5
     860:	2301      	movs	r3, #1
     862:	f10d 020f 	add.w	r2, sp, #15
     866:	21a7      	movs	r1, #167	; 0xa7
     868:	f001 f98a 	bl	1b80 <mbed::I2C::read(int, char*, int, bool)>
     86c:	f89d 000f 	ldrb.w	r0, [sp, #15]
     870:	b005      	add	sp, #20
     872:	bd30      	pop	{r4, r5, pc}

00000874 <ADXL345_I2C::multiByteRead(char, char*, int)>:
     874:	e92d 41f0 	stmdb	sp!, {r4, r5, r6, r7, r8, lr}
     878:	4617      	mov	r7, r2
     87a:	4698      	mov	r8, r3
     87c:	4606      	mov	r6, r0
     87e:	b084      	sub	sp, #16
     880:	ac04      	add	r4, sp, #16
     882:	f804 1d01 	strb.w	r1, [r4, #-1]!
     886:	2500      	movs	r5, #0
     888:	4622      	mov	r2, r4
     88a:	9500      	str	r5, [sp, #0]
     88c:	2301      	movs	r3, #1
     88e:	21a6      	movs	r1, #166	; 0xa6
     890:	f001 f954 	bl	1b3c <mbed::I2C::write(int, char const*, int, bool)>
     894:	9500      	str	r5, [sp, #0]
     896:	4643      	mov	r3, r8
     898:	463a      	mov	r2, r7
     89a:	4630      	mov	r0, r6
     89c:	21a7      	movs	r1, #167	; 0xa7
     89e:	f001 f96f 	bl	1b80 <mbed::I2C::read(int, char*, int, bool)>
     8a2:	b004      	add	sp, #16
     8a4:	e8bd 81f0 	ldmia.w	sp!, {r4, r5, r6, r7, r8, pc}

000008a8 <ADXL345_I2C::getOutput(int*)>:
     8a8:	b510      	push	{r4, lr}
     8aa:	b082      	sub	sp, #8
     8ac:	460c      	mov	r4, r1
     8ae:	466a      	mov	r2, sp
     8b0:	2306      	movs	r3, #6
     8b2:	2132      	movs	r1, #50	; 0x32
     8b4:	f7ff ffde 	bl	874 <ADXL345_I2C::multiByteRead(char, char*, int)>
     8b8:	f8bd 1000 	ldrh.w	r1, [sp]
     8bc:	f8bd 2002 	ldrh.w	r2, [sp, #2]
     8c0:	f8bd 3004 	ldrh.w	r3, [sp, #4]
     8c4:	e884 000e 	stmia.w	r4, {r1, r2, r3}
     8c8:	b002      	add	sp, #8
     8ca:	bd10      	pop	{r4, pc}

000008cc <ADXL345_I2C::getDeviceID()>:
     8cc:	2100      	movs	r1, #0
     8ce:	f7ff bfb9 	b.w	844 <ADXL345_I2C::SingleByteRead(char)>
     8d2:	bf00      	nop

000008d4 <ADXL345_I2C::setPowerControl(char)>:
     8d4:	b510      	push	{r4, lr}
     8d6:	2300      	movs	r3, #0
     8d8:	b084      	sub	sp, #16
     8da:	f88d 100d 	strb.w	r1, [sp, #13]
     8de:	9300      	str	r3, [sp, #0]
     8e0:	242d      	movs	r4, #45	; 0x2d
     8e2:	2302      	movs	r3, #2
     8e4:	aa03      	add	r2, sp, #12
     8e6:	21a6      	movs	r1, #166	; 0xa6
     8e8:	f88d 400c 	strb.w	r4, [sp, #12]
     8ec:	f001 f926 	bl	1b3c <mbed::I2C::write(int, char const*, int, bool)>
     8f0:	b004      	add	sp, #16
     8f2:	bd10      	pop	{r4, pc}

000008f4 <ADXL345_I2C::setDataFormatControl(char)>:
     8f4:	b510      	push	{r4, lr}
     8f6:	2300      	movs	r3, #0
     8f8:	b084      	sub	sp, #16
     8fa:	f88d 100d 	strb.w	r1, [sp, #13]
     8fe:	9300      	str	r3, [sp, #0]
     900:	2431      	movs	r4, #49	; 0x31
     902:	2302      	movs	r3, #2
     904:	aa03      	add	r2, sp, #12
     906:	21a6      	movs	r1, #166	; 0xa6
     908:	f88d 400c 	strb.w	r4, [sp, #12]
     90c:	f001 f916 	bl	1b3c <mbed::I2C::write(int, char const*, int, bool)>
     910:	b004      	add	sp, #16
     912:	bd10      	pop	{r4, pc}

00000914 <ADXL345_I2C::setDataRate(char)>:
     914:	b530      	push	{r4, r5, lr}
     916:	460c      	mov	r4, r1
     918:	b085      	sub	sp, #20
     91a:	212c      	movs	r1, #44	; 0x2c
     91c:	4605      	mov	r5, r0
     91e:	f7ff ff91 	bl	844 <ADXL345_I2C::SingleByteRead(char)>
     922:	2300      	movs	r3, #0
     924:	f000 0010 	and.w	r0, r0, #16
     928:	4304      	orrs	r4, r0
     92a:	9300      	str	r3, [sp, #0]
     92c:	4628      	mov	r0, r5
     92e:	2302      	movs	r3, #2
     930:	252c      	movs	r5, #44	; 0x2c
     932:	aa03      	add	r2, sp, #12
     934:	21a6      	movs	r1, #166	; 0xa6
     936:	f88d 400d 	strb.w	r4, [sp, #13]
     93a:	f88d 500c 	strb.w	r5, [sp, #12]
     93e:	f001 f8fd 	bl	1b3c <mbed::I2C::write(int, char const*, int, bool)>
     942:	b005      	add	sp, #20
     944:	bd30      	pop	{r4, r5, pc}
     946:	bf00      	nop

00000948 <TextDisplay::_putc(int)>:
     948:	290a      	cmp	r1, #10
     94a:	b570      	push	{r4, r5, r6, lr}
     94c:	460e      	mov	r6, r1
     94e:	4604      	mov	r4, r0
     950:	d025      	beq.n	99e <TextDisplay::_putc(int)+0x56>
     952:	6802      	ldr	r2, [r0, #0]
     954:	460b      	mov	r3, r1
     956:	6ad5      	ldr	r5, [r2, #44]	; 0x2c
     958:	f9b0 1018 	ldrsh.w	r1, [r0, #24]
     95c:	f9b0 201a 	ldrsh.w	r2, [r0, #26]
     960:	47a8      	blx	r5
     962:	8b25      	ldrh	r5, [r4, #24]
     964:	6823      	ldr	r3, [r4, #0]
     966:	3501      	adds	r5, #1
     968:	b2ad      	uxth	r5, r5
     96a:	8325      	strh	r5, [r4, #24]
     96c:	6b5b      	ldr	r3, [r3, #52]	; 0x34
     96e:	4620      	mov	r0, r4
     970:	4798      	blx	r3
     972:	b22d      	sxth	r5, r5
     974:	4285      	cmp	r5, r0
     976:	da01      	bge.n	97c <TextDisplay::_putc(int)+0x34>
     978:	4630      	mov	r0, r6
     97a:	bd70      	pop	{r4, r5, r6, pc}
     97c:	8b65      	ldrh	r5, [r4, #26]
     97e:	6823      	ldr	r3, [r4, #0]
     980:	3501      	adds	r5, #1
     982:	b2ad      	uxth	r5, r5
     984:	2200      	movs	r2, #0
     986:	8365      	strh	r5, [r4, #26]
     988:	6b1b      	ldr	r3, [r3, #48]	; 0x30
     98a:	4620      	mov	r0, r4
     98c:	8322      	strh	r2, [r4, #24]
     98e:	4798      	blx	r3
     990:	b22d      	sxth	r5, r5
     992:	4285      	cmp	r5, r0
     994:	dbf0      	blt.n	978 <TextDisplay::_putc(int)+0x30>
     996:	2300      	movs	r3, #0
     998:	8363      	strh	r3, [r4, #26]
     99a:	4630      	mov	r0, r6
     99c:	bd70      	pop	{r4, r5, r6, pc}
     99e:	8b45      	ldrh	r5, [r0, #26]
     9a0:	6803      	ldr	r3, [r0, #0]
     9a2:	3501      	adds	r5, #1
     9a4:	b2ad      	uxth	r5, r5
     9a6:	2200      	movs	r2, #0
     9a8:	8345      	strh	r5, [r0, #26]
     9aa:	6b1b      	ldr	r3, [r3, #48]	; 0x30
     9ac:	8302      	strh	r2, [r0, #24]
     9ae:	4798      	blx	r3
     9b0:	b22d      	sxth	r5, r5
     9b2:	4285      	cmp	r5, r0
     9b4:	dbe0      	blt.n	978 <TextDisplay::_putc(int)+0x30>
     9b6:	2300      	movs	r3, #0
     9b8:	8363      	strh	r3, [r4, #26]
     9ba:	e7ee      	b.n	99a <TextDisplay::_putc(int)+0x52>

000009bc <TextDisplay::locate(int, int)>:
     9bc:	8301      	strh	r1, [r0, #24]
     9be:	8342      	strh	r2, [r0, #26]
     9c0:	4770      	bx	lr
     9c2:	bf00      	nop

000009c4 <TextDisplay::_getc()>:
     9c4:	f04f 30ff 	mov.w	r0, #4294967295
     9c8:	4770      	bx	lr
     9ca:	bf00      	nop

000009cc <TextDisplay::foreground(int)>:
     9cc:	61c1      	str	r1, [r0, #28]
     9ce:	4770      	bx	lr

000009d0 <TextDisplay::background(int)>:
     9d0:	6201      	str	r1, [r0, #32]
     9d2:	4770      	bx	lr

000009d4 <TextDisplay::cls()>:
     9d4:	6803      	ldr	r3, [r0, #0]
     9d6:	b570      	push	{r4, r5, r6, lr}
     9d8:	4a11      	ldr	r2, [pc, #68]	; (a20 <TextDisplay::cls()+0x4c>)
     9da:	6bdd      	ldr	r5, [r3, #60]	; 0x3c
     9dc:	4604      	mov	r4, r0
     9de:	4295      	cmp	r5, r2
     9e0:	f04f 0200 	mov.w	r2, #0
     9e4:	d117      	bne.n	a16 <TextDisplay::cls()+0x42>
     9e6:	8302      	strh	r2, [r0, #24]
     9e8:	8342      	strh	r2, [r0, #26]
     9ea:	2600      	movs	r6, #0
     9ec:	e004      	b.n	9f8 <TextDisplay::cls()+0x24>
     9ee:	4620      	mov	r0, r4
     9f0:	f001 fb9a 	bl	2128 <mbed::Stream::putc(int)>
     9f4:	6823      	ldr	r3, [r4, #0]
     9f6:	3601      	adds	r6, #1
     9f8:	6b5b      	ldr	r3, [r3, #52]	; 0x34
     9fa:	4620      	mov	r0, r4
     9fc:	4798      	blx	r3
     9fe:	6823      	ldr	r3, [r4, #0]
     a00:	4605      	mov	r5, r0
     a02:	6b1b      	ldr	r3, [r3, #48]	; 0x30
     a04:	4620      	mov	r0, r4
     a06:	4798      	blx	r3
     a08:	fb00 f005 	mul.w	r0, r0, r5
     a0c:	4286      	cmp	r6, r0
     a0e:	f04f 0120 	mov.w	r1, #32
     a12:	dbec      	blt.n	9ee <TextDisplay::cls()+0x1a>
     a14:	bd70      	pop	{r4, r5, r6, pc}
     a16:	4611      	mov	r1, r2
     a18:	47a8      	blx	r5
     a1a:	6823      	ldr	r3, [r4, #0]
     a1c:	e7e5      	b.n	9ea <TextDisplay::cls()+0x16>
     a1e:	bf00      	nop
     a20:	000009bd 	.word	0x000009bd

00000a24 <TextDisplay::TextDisplay(char const*)>:
     a24:	b510      	push	{r4, lr}
     a26:	4604      	mov	r4, r0
     a28:	f001 fb4a 	bl	20c0 <mbed::Stream::Stream(char const*)>
     a2c:	4b05      	ldr	r3, [pc, #20]	; (a44 <TextDisplay::TextDisplay(char const*)+0x20>)
     a2e:	2200      	movs	r2, #0
     a30:	f103 0108 	add.w	r1, r3, #8
     a34:	3358      	adds	r3, #88	; 0x58
     a36:	e884 000a 	stmia.w	r4, {r1, r3}
     a3a:	8362      	strh	r2, [r4, #26]
     a3c:	8322      	strh	r2, [r4, #24]
     a3e:	4620      	mov	r0, r4
     a40:	bd10      	pop	{r4, pc}
     a42:	bf00      	nop
     a44:	00006a98 	.word	0x00006a98

00000a48 <_start>:
     a48:	4a07      	ldr	r2, [pc, #28]	; (a68 <_start+0x20>)
     a4a:	4808      	ldr	r0, [pc, #32]	; (a6c <_start+0x24>)
     a4c:	b508      	push	{r3, lr}
     a4e:	2100      	movs	r1, #0
     a50:	1a12      	subs	r2, r2, r0
     a52:	f002 fe59 	bl	3708 <memset>
     a56:	f3af 8000 	nop.w
     a5a:	f002 fd9f 	bl	359c <__libc_init_array>
     a5e:	f001 fa01 	bl	1e64 <__wrap_main>
     a62:	f002 fa9d 	bl	2fa0 <exit>
     a66:	bf00      	nop
     a68:	100004dc 	.word	0x100004dc
     a6c:	10000180 	.word	0x10000180

00000a70 <__wrap__isatty>:
     a70:	2802      	cmp	r0, #2
     a72:	dc01      	bgt.n	a78 <__wrap__isatty+0x8>
     a74:	2001      	movs	r0, #1
     a76:	4770      	bx	lr
     a78:	f001 b9bc 	b.w	1df4 <_isatty>

00000a7c <__wrap_malloc>:
     a7c:	f3ef 8305 	mrs	r3, IPSR
     a80:	b103      	cbz	r3, a84 <__wrap_malloc+0x8>
     a82:	be00      	bkpt	0x0000
     a84:	f002 bdfc 	b.w	3680 <malloc>

00000a88 <__wrap_free>:
     a88:	f3ef 8305 	mrs	r3, IPSR
     a8c:	b103      	cbz	r3, a90 <__wrap_free+0x8>
     a8e:	be00      	bkpt	0x0000
     a90:	f002 bdfe 	b.w	3690 <free>

00000a94 <abort>:
     a94:	b508      	push	{r3, lr}
     a96:	2001      	movs	r0, #1
     a98:	f002 fa82 	bl	2fa0 <exit>

00000a9c <__cxa_pure_virtual>:
     a9c:	b508      	push	{r3, lr}
     a9e:	f7ff fff9 	bl	a94 <abort>
     aa2:	bf00      	nop

00000aa4 <semihost_exit>:
     aa4:	b530      	push	{r4, r5, lr}
     aa6:	b085      	sub	sp, #20
     aa8:	2418      	movs	r4, #24
     aaa:	466d      	mov	r5, sp
     aac:	4620      	mov	r0, r4
     aae:	4629      	mov	r1, r5
     ab0:	beab      	bkpt	0x00ab
     ab2:	4604      	mov	r4, r0
     ab4:	4620      	mov	r0, r4
     ab6:	b005      	add	sp, #20
     ab8:	bd30      	pop	{r4, r5, pc}
     aba:	bf00      	nop

00000abc <semihost_connected>:
     abc:	4b02      	ldr	r3, [pc, #8]	; (ac8 <semihost_connected+0xc>)
     abe:	6818      	ldr	r0, [r3, #0]
     ac0:	f000 0001 	and.w	r0, r0, #1
     ac4:	4770      	bx	lr
     ac6:	bf00      	nop
     ac8:	e000edf0 	.word	0xe000edf0

00000acc <wait_us>:
     acc:	b538      	push	{r3, r4, r5, lr}
     ace:	4605      	mov	r5, r0
     ad0:	f000 fa20 	bl	f14 <us_ticker_read>
     ad4:	4604      	mov	r4, r0
     ad6:	f000 fa1d 	bl	f14 <us_ticker_read>
     ada:	1b00      	subs	r0, r0, r4
     adc:	42a8      	cmp	r0, r5
     ade:	d3fa      	bcc.n	ad6 <wait_us+0xa>
     ae0:	bd38      	pop	{r3, r4, r5, pc}
     ae2:	bf00      	nop

00000ae4 <wait>:
     ae4:	b508      	push	{r3, lr}
     ae6:	4904      	ldr	r1, [pc, #16]	; (af8 <wait+0x14>)
     ae8:	f002 f8d0 	bl	2c8c <__aeabi_fmul>
     aec:	f002 fa1e 	bl	2f2c <__aeabi_f2iz>
     af0:	e8bd 4008 	ldmia.w	sp!, {r3, lr}
     af4:	f7ff bfea 	b.w	acc <wait_us>
     af8:	49742400 	.word	0x49742400

00000afc <wait_ms>:
     afc:	f44f 737a 	mov.w	r3, #1000	; 0x3e8
     b00:	fb03 f000 	mul.w	r0, r3, r0
     b04:	f7ff bfe2 	b.w	acc <wait_us>

00000b08 <error>:
     b08:	b40f      	push	{r0, r1, r2, r3}
     b0a:	b500      	push	{lr}
     b0c:	4a06      	ldr	r2, [pc, #24]	; (b28 <error+0x20>)
     b0e:	b083      	sub	sp, #12
     b10:	ab04      	add	r3, sp, #16
     b12:	f853 1b04 	ldr.w	r1, [r3], #4
     b16:	6810      	ldr	r0, [r2, #0]
     b18:	461a      	mov	r2, r3
     b1a:	68c0      	ldr	r0, [r0, #12]
     b1c:	9301      	str	r3, [sp, #4]
     b1e:	f002 ffd7 	bl	3ad0 <vfiprintf>
     b22:	2001      	movs	r0, #1
     b24:	f002 fa3c 	bl	2fa0 <exit>
     b28:	10000134 	.word	0x10000134

00000b2c <us_ticker_irq_handler>:
     b2c:	4801      	ldr	r0, [pc, #4]	; (b34 <us_ticker_irq_handler+0x8>)
     b2e:	f000 b849 	b.w	bc4 <ticker_irq_handler>
     b32:	bf00      	nop
     b34:	00006b0c 	.word	0x00006b0c

00000b38 <mbed_interface_connected>:
     b38:	f7ff bfc0 	b.w	abc <semihost_connected>

00000b3c <gpio_init_in>:
     b3c:	b538      	push	{r3, r4, r5, lr}
     b3e:	460d      	mov	r5, r1
     b40:	4604      	mov	r4, r0
     b42:	f000 f97b 	bl	e3c <gpio_init>
     b46:	3501      	adds	r5, #1
     b48:	d009      	beq.n	b5e <gpio_init_in+0x22>
     b4a:	4620      	mov	r0, r4
     b4c:	2100      	movs	r1, #0
     b4e:	f000 f997 	bl	e80 <gpio_dir>
     b52:	4620      	mov	r0, r4
     b54:	e8bd 4038 	ldmia.w	sp!, {r3, r4, r5, lr}
     b58:	2103      	movs	r1, #3
     b5a:	f000 b98d 	b.w	e78 <gpio_mode>
     b5e:	bd38      	pop	{r3, r4, r5, pc}

00000b60 <gpio_init_out>:
     b60:	b538      	push	{r3, r4, r5, lr}
     b62:	460d      	mov	r5, r1
     b64:	4604      	mov	r4, r0
     b66:	f000 f969 	bl	e3c <gpio_init>
     b6a:	3501      	adds	r5, #1
     b6c:	d00c      	beq.n	b88 <gpio_init_out+0x28>
     b6e:	6923      	ldr	r3, [r4, #16]
     b70:	6862      	ldr	r2, [r4, #4]
     b72:	4620      	mov	r0, r4
     b74:	2101      	movs	r1, #1
     b76:	601a      	str	r2, [r3, #0]
     b78:	f000 f982 	bl	e80 <gpio_dir>
     b7c:	4620      	mov	r0, r4
     b7e:	e8bd 4038 	ldmia.w	sp!, {r3, r4, r5, lr}
     b82:	2102      	movs	r1, #2
     b84:	f000 b978 	b.w	e78 <gpio_mode>
     b88:	bd38      	pop	{r3, r4, r5, pc}
     b8a:	bf00      	nop

00000b8c <gpio_init_out_ex>:
     b8c:	b570      	push	{r4, r5, r6, lr}
     b8e:	460d      	mov	r5, r1
     b90:	4616      	mov	r6, r2
     b92:	4604      	mov	r4, r0
     b94:	f000 f952 	bl	e3c <gpio_init>
     b98:	3501      	adds	r5, #1
     b9a:	d011      	beq.n	bc0 <gpio_init_out_ex+0x34>
     b9c:	b966      	cbnz	r6, bb8 <gpio_init_out_ex+0x2c>
     b9e:	6923      	ldr	r3, [r4, #16]
     ba0:	6862      	ldr	r2, [r4, #4]
     ba2:	601a      	str	r2, [r3, #0]
     ba4:	4620      	mov	r0, r4
     ba6:	2101      	movs	r1, #1
     ba8:	f000 f96a 	bl	e80 <gpio_dir>
     bac:	4620      	mov	r0, r4
     bae:	e8bd 4070 	ldmia.w	sp!, {r4, r5, r6, lr}
     bb2:	2102      	movs	r1, #2
     bb4:	f000 b960 	b.w	e78 <gpio_mode>
     bb8:	68e3      	ldr	r3, [r4, #12]
     bba:	6862      	ldr	r2, [r4, #4]
     bbc:	601a      	str	r2, [r3, #0]
     bbe:	e7f1      	b.n	ba4 <gpio_init_out_ex+0x18>
     bc0:	bd70      	pop	{r4, r5, r6, pc}
     bc2:	bf00      	nop

00000bc4 <ticker_irq_handler>:
     bc4:	6803      	ldr	r3, [r0, #0]
     bc6:	b570      	push	{r4, r5, r6, lr}
     bc8:	68db      	ldr	r3, [r3, #12]
     bca:	4605      	mov	r5, r0
     bcc:	4798      	blx	r3
     bce:	686b      	ldr	r3, [r5, #4]
     bd0:	685b      	ldr	r3, [r3, #4]
     bd2:	b183      	cbz	r3, bf6 <ticker_irq_handler+0x32>
     bd4:	682a      	ldr	r2, [r5, #0]
     bd6:	681c      	ldr	r4, [r3, #0]
     bd8:	6853      	ldr	r3, [r2, #4]
     bda:	4798      	blx	r3
     bdc:	1a20      	subs	r0, r4, r0
     bde:	2800      	cmp	r0, #0
     be0:	686a      	ldr	r2, [r5, #4]
     be2:	dc0d      	bgt.n	c00 <Stack_Size>
     be4:	6850      	ldr	r0, [r2, #4]
     be6:	6811      	ldr	r1, [r2, #0]
     be8:	6883      	ldr	r3, [r0, #8]
     bea:	6053      	str	r3, [r2, #4]
     bec:	2900      	cmp	r1, #0
     bee:	d0f0      	beq.n	bd2 <ticker_irq_handler+0xe>
     bf0:	6840      	ldr	r0, [r0, #4]
     bf2:	4788      	blx	r1
     bf4:	e7eb      	b.n	bce <ticker_irq_handler+0xa>
     bf6:	682b      	ldr	r3, [r5, #0]
     bf8:	e8bd 4070 	ldmia.w	sp!, {r4, r5, r6, lr}
     bfc:	689b      	ldr	r3, [r3, #8]
     bfe:	4718      	bx	r3
     c00:	682b      	ldr	r3, [r5, #0]
     c02:	6852      	ldr	r2, [r2, #4]
     c04:	691b      	ldr	r3, [r3, #16]
     c06:	6810      	ldr	r0, [r2, #0]
     c08:	e8bd 4070 	ldmia.w	sp!, {r4, r5, r6, lr}
     c0c:	4718      	bx	r3
     c0e:	bf00      	nop

00000c10 <mbed_die>:
     c10:	b500      	push	{lr}
     c12:	b099      	sub	sp, #100	; 0x64
     c14:	b672      	cpsid	i
     c16:	4917      	ldr	r1, [pc, #92]	; (c74 <mbed_die+0x64>)
     c18:	4668      	mov	r0, sp
     c1a:	f7ff ffa1 	bl	b60 <gpio_init_out>
     c1e:	a806      	add	r0, sp, #24
     c20:	4915      	ldr	r1, [pc, #84]	; (c78 <mbed_die+0x68>)
     c22:	f7ff ff9d 	bl	b60 <gpio_init_out>
     c26:	a80c      	add	r0, sp, #48	; 0x30
     c28:	4914      	ldr	r1, [pc, #80]	; (c7c <mbed_die+0x6c>)
     c2a:	f7ff ff99 	bl	b60 <gpio_init_out>
     c2e:	a812      	add	r0, sp, #72	; 0x48
     c30:	4913      	ldr	r1, [pc, #76]	; (c80 <mbed_die+0x70>)
     c32:	f7ff ff95 	bl	b60 <gpio_init_out>
     c36:	9a03      	ldr	r2, [sp, #12]
     c38:	9901      	ldr	r1, [sp, #4]
     c3a:	9b0a      	ldr	r3, [sp, #40]	; 0x28
     c3c:	6011      	str	r1, [r2, #0]
     c3e:	9907      	ldr	r1, [sp, #28]
     c40:	9a10      	ldr	r2, [sp, #64]	; 0x40
     c42:	6019      	str	r1, [r3, #0]
     c44:	990d      	ldr	r1, [sp, #52]	; 0x34
     c46:	9b15      	ldr	r3, [sp, #84]	; 0x54
     c48:	6011      	str	r1, [r2, #0]
     c4a:	9a13      	ldr	r2, [sp, #76]	; 0x4c
     c4c:	2096      	movs	r0, #150	; 0x96
     c4e:	601a      	str	r2, [r3, #0]
     c50:	f7ff ff54 	bl	afc <wait_ms>
     c54:	9a04      	ldr	r2, [sp, #16]
     c56:	9901      	ldr	r1, [sp, #4]
     c58:	9b09      	ldr	r3, [sp, #36]	; 0x24
     c5a:	6011      	str	r1, [r2, #0]
     c5c:	9907      	ldr	r1, [sp, #28]
     c5e:	9a0f      	ldr	r2, [sp, #60]	; 0x3c
     c60:	6019      	str	r1, [r3, #0]
     c62:	990d      	ldr	r1, [sp, #52]	; 0x34
     c64:	9b16      	ldr	r3, [sp, #88]	; 0x58
     c66:	6011      	str	r1, [r2, #0]
     c68:	9a13      	ldr	r2, [sp, #76]	; 0x4c
     c6a:	2096      	movs	r0, #150	; 0x96
     c6c:	601a      	str	r2, [r3, #0]
     c6e:	f7ff ff45 	bl	afc <wait_ms>
     c72:	e7e0      	b.n	c36 <mbed_die+0x26>
     c74:	2009c032 	.word	0x2009c032
     c78:	2009c034 	.word	0x2009c034
     c7c:	2009c035 	.word	0x2009c035
     c80:	2009c037 	.word	0x2009c037

00000c84 <pinmap_pinout>:
     c84:	1c43      	adds	r3, r0, #1
     c86:	d01c      	beq.n	cc2 <pinmap_pinout+0x3e>
     c88:	680b      	ldr	r3, [r1, #0]
     c8a:	1c5a      	adds	r2, r3, #1
     c8c:	d01a      	beq.n	cc4 <pinmap_pinout+0x40>
     c8e:	4298      	cmp	r0, r3
     c90:	b510      	push	{r4, lr}
     c92:	4604      	mov	r4, r0
     c94:	d102      	bne.n	c9c <pinmap_pinout+0x18>
     c96:	e00a      	b.n	cae <pinmap_pinout+0x2a>
     c98:	429c      	cmp	r4, r3
     c9a:	d008      	beq.n	cae <pinmap_pinout+0x2a>
     c9c:	f851 3f0c 	ldr.w	r3, [r1, #12]!
     ca0:	1c5a      	adds	r2, r3, #1
     ca2:	d1f9      	bne.n	c98 <pinmap_pinout+0x14>
     ca4:	4809      	ldr	r0, [pc, #36]	; (ccc <pinmap_pinout+0x48>)
     ca6:	e8bd 4010 	ldmia.w	sp!, {r4, lr}
     caa:	f7ff bf2d 	b.w	b08 <error>
     cae:	4620      	mov	r0, r4
     cb0:	6889      	ldr	r1, [r1, #8]
     cb2:	f000 fad5 	bl	1260 <pin_function>
     cb6:	4620      	mov	r0, r4
     cb8:	e8bd 4010 	ldmia.w	sp!, {r4, lr}
     cbc:	2102      	movs	r1, #2
     cbe:	f000 baeb 	b.w	1298 <pin_mode>
     cc2:	4770      	bx	lr
     cc4:	4801      	ldr	r0, [pc, #4]	; (ccc <pinmap_pinout+0x48>)
     cc6:	f7ff bf1f 	b.w	b08 <error>
     cca:	bf00      	nop
     ccc:	00006b14 	.word	0x00006b14

00000cd0 <pinmap_merge>:
     cd0:	4288      	cmp	r0, r1
     cd2:	d00a      	beq.n	cea <pinmap_merge+0x1a>
     cd4:	1c42      	adds	r2, r0, #1
     cd6:	d009      	beq.n	cec <pinmap_merge+0x1c>
     cd8:	3101      	adds	r1, #1
     cda:	d006      	beq.n	cea <pinmap_merge+0x1a>
     cdc:	b508      	push	{r3, lr}
     cde:	4804      	ldr	r0, [pc, #16]	; (cf0 <pinmap_merge+0x20>)
     ce0:	f7ff ff12 	bl	b08 <error>
     ce4:	f04f 30ff 	mov.w	r0, #4294967295
     ce8:	bd08      	pop	{r3, pc}
     cea:	4770      	bx	lr
     cec:	4608      	mov	r0, r1
     cee:	4770      	bx	lr
     cf0:	00006b28 	.word	0x00006b28

00000cf4 <pinmap_find_peripheral>:
     cf4:	680b      	ldr	r3, [r1, #0]
     cf6:	1c5a      	adds	r2, r3, #1
     cf8:	d008      	beq.n	d0c <pinmap_find_peripheral+0x18>
     cfa:	4298      	cmp	r0, r3
     cfc:	d102      	bne.n	d04 <pinmap_find_peripheral+0x10>
     cfe:	e007      	b.n	d10 <pinmap_find_peripheral+0x1c>
     d00:	4283      	cmp	r3, r0
     d02:	d005      	beq.n	d10 <pinmap_find_peripheral+0x1c>
     d04:	f851 3f0c 	ldr.w	r3, [r1, #12]!
     d08:	1c5a      	adds	r2, r3, #1
     d0a:	d1f9      	bne.n	d00 <pinmap_find_peripheral+0xc>
     d0c:	4618      	mov	r0, r3
     d0e:	4770      	bx	lr
     d10:	6848      	ldr	r0, [r1, #4]
     d12:	4770      	bx	lr

00000d14 <pinmap_peripheral>:
     d14:	1c42      	adds	r2, r0, #1
     d16:	d00e      	beq.n	d36 <pinmap_peripheral+0x22>
     d18:	b508      	push	{r3, lr}
     d1a:	680b      	ldr	r3, [r1, #0]
     d1c:	1c5a      	adds	r2, r3, #1
     d1e:	d104      	bne.n	d2a <pinmap_peripheral+0x16>
     d20:	e00a      	b.n	d38 <pinmap_peripheral+0x24>
     d22:	f851 3f0c 	ldr.w	r3, [r1, #12]!
     d26:	1c5a      	adds	r2, r3, #1
     d28:	d006      	beq.n	d38 <pinmap_peripheral+0x24>
     d2a:	4298      	cmp	r0, r3
     d2c:	d1f9      	bne.n	d22 <pinmap_peripheral+0xe>
     d2e:	6848      	ldr	r0, [r1, #4]
     d30:	1c41      	adds	r1, r0, #1
     d32:	d001      	beq.n	d38 <pinmap_peripheral+0x24>
     d34:	bd08      	pop	{r3, pc}
     d36:	4770      	bx	lr
     d38:	4802      	ldr	r0, [pc, #8]	; (d44 <pinmap_peripheral+0x30>)
     d3a:	f7ff fee5 	bl	b08 <error>
     d3e:	f04f 30ff 	mov.w	r0, #4294967295
     d42:	bd08      	pop	{r3, pc}
     d44:	00006b3c 	.word	0x00006b3c

00000d48 <NVIC_SetVector>:
     d48:	4b0c      	ldr	r3, [pc, #48]	; (d7c <NVIC_SetVector+0x34>)
     d4a:	b430      	push	{r4, r5}
     d4c:	689d      	ldr	r5, [r3, #8]
     d4e:	689a      	ldr	r2, [r3, #8]
     d50:	462b      	mov	r3, r5
     d52:	f1b2 5f80 	cmp.w	r2, #268435456	; 0x10000000
     d56:	d20c      	bcs.n	d72 <NVIC_SetVector+0x2a>
     d58:	4a09      	ldr	r2, [pc, #36]	; (d80 <NVIC_SetVector+0x38>)
     d5a:	35c4      	adds	r5, #196	; 0xc4
     d5c:	f853 4b04 	ldr.w	r4, [r3], #4
     d60:	42ab      	cmp	r3, r5
     d62:	f842 4f04 	str.w	r4, [r2, #4]!
     d66:	d1f9      	bne.n	d5c <NVIC_SetVector+0x14>
     d68:	f04f 5280 	mov.w	r2, #268435456	; 0x10000000
     d6c:	4613      	mov	r3, r2
     d6e:	4c03      	ldr	r4, [pc, #12]	; (d7c <NVIC_SetVector+0x34>)
     d70:	60a2      	str	r2, [r4, #8]
     d72:	3010      	adds	r0, #16
     d74:	f843 1020 	str.w	r1, [r3, r0, lsl #2]
     d78:	bc30      	pop	{r4, r5}
     d7a:	4770      	bx	lr
     d7c:	e000ed00 	.word	0xe000ed00
     d80:	0ffffffc 	.word	0x0ffffffc

00000d84 <SystemInit>:
     d84:	4a2b      	ldr	r2, [pc, #172]	; (e34 <SystemInit+0xb0>)
     d86:	2320      	movs	r3, #32
     d88:	b4f0      	push	{r4, r5, r6, r7}
     d8a:	f8c2 31a0 	str.w	r3, [r2, #416]	; 0x1a0
     d8e:	f8d2 31a0 	ldr.w	r3, [r2, #416]	; 0x1a0
     d92:	0698      	lsls	r0, r3, #26
     d94:	d445      	bmi.n	e22 <SystemInit+0x9e>
     d96:	4b27      	ldr	r3, [pc, #156]	; (e34 <SystemInit+0xb0>)
     d98:	2500      	movs	r5, #0
     d9a:	4619      	mov	r1, r3
     d9c:	2401      	movs	r4, #1
     d9e:	20aa      	movs	r0, #170	; 0xaa
     da0:	2255      	movs	r2, #85	; 0x55
     da2:	2702      	movs	r7, #2
     da4:	260b      	movs	r6, #11
     da6:	f8c3 7104 	str.w	r7, [r3, #260]	; 0x104
     daa:	f8c3 51a8 	str.w	r5, [r3, #424]	; 0x1a8
     dae:	f8c3 51ac 	str.w	r5, [r3, #428]	; 0x1ac
     db2:	f8c3 410c 	str.w	r4, [r3, #268]	; 0x10c
     db6:	f8c3 6084 	str.w	r6, [r3, #132]	; 0x84
     dba:	f8c3 008c 	str.w	r0, [r3, #140]	; 0x8c
     dbe:	f8c3 208c 	str.w	r2, [r3, #140]	; 0x8c
     dc2:	f8c3 4080 	str.w	r4, [r3, #128]	; 0x80
     dc6:	f8c3 008c 	str.w	r0, [r3, #140]	; 0x8c
     dca:	f8c3 208c 	str.w	r2, [r3, #140]	; 0x8c
     dce:	f8d1 3088 	ldr.w	r3, [r1, #136]	; 0x88
     dd2:	4a18      	ldr	r2, [pc, #96]	; (e34 <SystemInit+0xb0>)
     dd4:	015b      	lsls	r3, r3, #5
     dd6:	d5fa      	bpl.n	dce <SystemInit+0x4a>
     dd8:	4611      	mov	r1, r2
     dda:	2403      	movs	r4, #3
     ddc:	20aa      	movs	r0, #170	; 0xaa
     dde:	2355      	movs	r3, #85	; 0x55
     de0:	f8c2 4080 	str.w	r4, [r2, #128]	; 0x80
     de4:	f8c2 008c 	str.w	r0, [r2, #140]	; 0x8c
     de8:	f8c2 308c 	str.w	r3, [r2, #140]	; 0x8c
     dec:	f8d1 3088 	ldr.w	r3, [r1, #136]	; 0x88
     df0:	4a10      	ldr	r2, [pc, #64]	; (e34 <SystemInit+0xb0>)
     df2:	f013 7f40 	tst.w	r3, #50331648	; 0x3000000
     df6:	d0f9      	beq.n	dec <SystemInit+0x68>
     df8:	490f      	ldr	r1, [pc, #60]	; (e38 <SystemInit+0xb4>)
     dfa:	2300      	movs	r3, #0
     dfc:	2005      	movs	r0, #5
     dfe:	f8c2 0108 	str.w	r0, [r2, #264]	; 0x108
     e02:	f8c2 10c4 	str.w	r1, [r2, #196]	; 0xc4
     e06:	f8c2 31c8 	str.w	r3, [r2, #456]	; 0x1c8
     e0a:	6813      	ldr	r3, [r2, #0]
     e0c:	bcf0      	pop	{r4, r5, r6, r7}
     e0e:	f423 4370 	bic.w	r3, r3, #61440	; 0xf000
     e12:	f023 033a 	bic.w	r3, r3, #58	; 0x3a
     e16:	f443 5340 	orr.w	r3, r3, #12288	; 0x3000
     e1a:	f043 033a 	orr.w	r3, r3, #58	; 0x3a
     e1e:	6013      	str	r3, [r2, #0]
     e20:	4770      	bx	lr
     e22:	f8d2 31a0 	ldr.w	r3, [r2, #416]	; 0x1a0
     e26:	0659      	lsls	r1, r3, #25
     e28:	d4b5      	bmi.n	d96 <SystemInit+0x12>
     e2a:	f8d2 31a0 	ldr.w	r3, [r2, #416]	; 0x1a0
     e2e:	0659      	lsls	r1, r3, #25
     e30:	d5f7      	bpl.n	e22 <SystemInit+0x9e>
     e32:	e7b0      	b.n	d96 <SystemInit+0x12>
     e34:	400fc000 	.word	0x400fc000
     e38:	042887de 	.word	0x042887de

00000e3c <gpio_init>:
     e3c:	1c4a      	adds	r2, r1, #1
     e3e:	6001      	str	r1, [r0, #0]
     e40:	d018      	beq.n	e74 <gpio_init+0x38>
     e42:	b538      	push	{r3, r4, r5, lr}
     e44:	460c      	mov	r4, r1
     e46:	4605      	mov	r5, r0
     e48:	2100      	movs	r1, #0
     e4a:	4620      	mov	r0, r4
     e4c:	f000 fa08 	bl	1260 <pin_function>
     e50:	f024 011f 	bic.w	r1, r4, #31
     e54:	f004 021f 	and.w	r2, r4, #31
     e58:	2301      	movs	r3, #1
     e5a:	4093      	lsls	r3, r2
     e5c:	f101 0418 	add.w	r4, r1, #24
     e60:	f101 001c 	add.w	r0, r1, #28
     e64:	f101 0214 	add.w	r2, r1, #20
     e68:	60a9      	str	r1, [r5, #8]
     e6a:	606b      	str	r3, [r5, #4]
     e6c:	60ec      	str	r4, [r5, #12]
     e6e:	6128      	str	r0, [r5, #16]
     e70:	616a      	str	r2, [r5, #20]
     e72:	bd38      	pop	{r3, r4, r5, pc}
     e74:	4770      	bx	lr
     e76:	bf00      	nop

00000e78 <gpio_mode>:
     e78:	6800      	ldr	r0, [r0, #0]
     e7a:	f000 ba0d 	b.w	1298 <pin_mode>
     e7e:	bf00      	nop

00000e80 <gpio_dir>:
     e80:	b141      	cbz	r1, e94 <gpio_dir+0x14>
     e82:	2901      	cmp	r1, #1
     e84:	d105      	bne.n	e92 <gpio_dir+0x12>
     e86:	6882      	ldr	r2, [r0, #8]
     e88:	6843      	ldr	r3, [r0, #4]
     e8a:	6811      	ldr	r1, [r2, #0]
     e8c:	430b      	orrs	r3, r1
     e8e:	6013      	str	r3, [r2, #0]
     e90:	4770      	bx	lr
     e92:	4770      	bx	lr
     e94:	6882      	ldr	r2, [r0, #8]
     e96:	6841      	ldr	r1, [r0, #4]
     e98:	6813      	ldr	r3, [r2, #0]
     e9a:	ea23 0301 	bic.w	r3, r3, r1
     e9e:	6013      	str	r3, [r2, #0]
     ea0:	4770      	bx	lr
     ea2:	bf00      	nop

00000ea4 <us_ticker_init.part.0>:
     ea4:	b538      	push	{r3, r4, r5, lr}
     ea6:	4910      	ldr	r1, [pc, #64]	; (ee8 <us_ticker_init.part.0+0x44>)
     ea8:	4b10      	ldr	r3, [pc, #64]	; (eec <us_ticker_init.part.0+0x48>)
     eaa:	2401      	movs	r4, #1
     eac:	601c      	str	r4, [r3, #0]
     eae:	f8d1 30c4 	ldr.w	r3, [r1, #196]	; 0xc4
     eb2:	4a0f      	ldr	r2, [pc, #60]	; (ef0 <us_ticker_init.part.0+0x4c>)
     eb4:	f443 0300 	orr.w	r3, r3, #8388608	; 0x800000
     eb8:	480e      	ldr	r0, [pc, #56]	; (ef4 <us_ticker_init.part.0+0x50>)
     eba:	2500      	movs	r5, #0
     ebc:	f8c1 30c4 	str.w	r3, [r1, #196]	; 0xc4
     ec0:	6715      	str	r5, [r2, #112]	; 0x70
     ec2:	6803      	ldr	r3, [r0, #0]
     ec4:	480c      	ldr	r0, [pc, #48]	; (ef8 <us_ticker_init.part.0+0x54>)
     ec6:	2102      	movs	r1, #2
     ec8:	fba0 0303 	umull	r0, r3, r0, r3
     ecc:	0d1b      	lsrs	r3, r3, #20
     ece:	3b01      	subs	r3, #1
     ed0:	6051      	str	r1, [r2, #4]
     ed2:	2004      	movs	r0, #4
     ed4:	60d3      	str	r3, [r2, #12]
     ed6:	4909      	ldr	r1, [pc, #36]	; (efc <us_ticker_init.part.0+0x58>)
     ed8:	6054      	str	r4, [r2, #4]
     eda:	f7ff ff35 	bl	d48 <NVIC_SetVector>
     ede:	4b08      	ldr	r3, [pc, #32]	; (f00 <us_ticker_init.part.0+0x5c>)
     ee0:	2210      	movs	r2, #16
     ee2:	601a      	str	r2, [r3, #0]
     ee4:	bd38      	pop	{r3, r4, r5, pc}
     ee6:	bf00      	nop
     ee8:	400fc000 	.word	0x400fc000
     eec:	100002d0 	.word	0x100002d0
     ef0:	40094000 	.word	0x40094000
     ef4:	100000cc 	.word	0x100000cc
     ef8:	431bde83 	.word	0x431bde83
     efc:	00000b2d 	.word	0x00000b2d
     f00:	e000e100 	.word	0xe000e100

00000f04 <us_ticker_init>:
     f04:	4b02      	ldr	r3, [pc, #8]	; (f10 <us_ticker_init+0xc>)
     f06:	681b      	ldr	r3, [r3, #0]
     f08:	b103      	cbz	r3, f0c <us_ticker_init+0x8>
     f0a:	4770      	bx	lr
     f0c:	f7ff bfca 	b.w	ea4 <us_ticker_init.part.0>
     f10:	100002d0 	.word	0x100002d0

00000f14 <us_ticker_read>:
     f14:	b508      	push	{r3, lr}
     f16:	4b04      	ldr	r3, [pc, #16]	; (f28 <us_ticker_read+0x14>)
     f18:	681b      	ldr	r3, [r3, #0]
     f1a:	b90b      	cbnz	r3, f20 <us_ticker_read+0xc>
     f1c:	f7ff ffc2 	bl	ea4 <us_ticker_init.part.0>
     f20:	4b02      	ldr	r3, [pc, #8]	; (f2c <us_ticker_read+0x18>)
     f22:	6898      	ldr	r0, [r3, #8]
     f24:	bd08      	pop	{r3, pc}
     f26:	bf00      	nop
     f28:	100002d0 	.word	0x100002d0
     f2c:	40094000 	.word	0x40094000

00000f30 <us_ticker_set_interrupt>:
     f30:	4b03      	ldr	r3, [pc, #12]	; (f40 <us_ticker_set_interrupt+0x10>)
     f32:	6198      	str	r0, [r3, #24]
     f34:	695a      	ldr	r2, [r3, #20]
     f36:	f042 0201 	orr.w	r2, r2, #1
     f3a:	615a      	str	r2, [r3, #20]
     f3c:	4770      	bx	lr
     f3e:	bf00      	nop
     f40:	40094000 	.word	0x40094000

00000f44 <us_ticker_disable_interrupt>:
     f44:	4a02      	ldr	r2, [pc, #8]	; (f50 <us_ticker_disable_interrupt+0xc>)
     f46:	6953      	ldr	r3, [r2, #20]
     f48:	f023 0301 	bic.w	r3, r3, #1
     f4c:	6153      	str	r3, [r2, #20]
     f4e:	4770      	bx	lr
     f50:	40094000 	.word	0x40094000

00000f54 <us_ticker_clear_interrupt>:
     f54:	4b01      	ldr	r3, [pc, #4]	; (f5c <us_ticker_clear_interrupt+0x8>)
     f56:	2201      	movs	r2, #1
     f58:	601a      	str	r2, [r3, #0]
     f5a:	4770      	bx	lr
     f5c:	40094000 	.word	0x40094000

00000f60 <i2c_init>:
     f60:	b5f8      	push	{r3, r4, r5, r6, r7, lr}
     f62:	460d      	mov	r5, r1
     f64:	4606      	mov	r6, r0
     f66:	4925      	ldr	r1, [pc, #148]	; (ffc <i2c_init+0x9c>)
     f68:	4628      	mov	r0, r5
     f6a:	4614      	mov	r4, r2
     f6c:	f7ff fed2 	bl	d14 <pinmap_peripheral>
     f70:	4923      	ldr	r1, [pc, #140]	; (1000 <i2c_init+0xa0>)
     f72:	4607      	mov	r7, r0
     f74:	4620      	mov	r0, r4
     f76:	f7ff fecd 	bl	d14 <pinmap_peripheral>
     f7a:	4601      	mov	r1, r0
     f7c:	4638      	mov	r0, r7
     f7e:	f7ff fea7 	bl	cd0 <pinmap_merge>
     f82:	4b20      	ldr	r3, [pc, #128]	; (1004 <i2c_init+0xa4>)
     f84:	4602      	mov	r2, r0
     f86:	4298      	cmp	r0, r3
     f88:	6030      	str	r0, [r6, #0]
     f8a:	d02e      	beq.n	fea <i2c_init+0x8a>
     f8c:	f503 2388 	add.w	r3, r3, #278528	; 0x44000
     f90:	4298      	cmp	r0, r3
     f92:	d022      	beq.n	fda <i2c_init+0x7a>
     f94:	f5a3 2304 	sub.w	r3, r3, #540672	; 0x84000
     f98:	4298      	cmp	r0, r3
     f9a:	d016      	beq.n	fca <i2c_init+0x6a>
     f9c:	4b1a      	ldr	r3, [pc, #104]	; (1008 <i2c_init+0xa8>)
     f9e:	491b      	ldr	r1, [pc, #108]	; (100c <i2c_init+0xac>)
     fa0:	681b      	ldr	r3, [r3, #0]
     fa2:	273c      	movs	r7, #60	; 0x3c
     fa4:	0a1b      	lsrs	r3, r3, #8
     fa6:	fba1 1303 	umull	r1, r3, r1, r3
     faa:	2640      	movs	r6, #64	; 0x40
     fac:	091b      	lsrs	r3, r3, #4
     fae:	6153      	str	r3, [r2, #20]
     fb0:	4628      	mov	r0, r5
     fb2:	6113      	str	r3, [r2, #16]
     fb4:	4911      	ldr	r1, [pc, #68]	; (ffc <i2c_init+0x9c>)
     fb6:	6197      	str	r7, [r2, #24]
     fb8:	6016      	str	r6, [r2, #0]
     fba:	f7ff fe63 	bl	c84 <pinmap_pinout>
     fbe:	4620      	mov	r0, r4
     fc0:	e8bd 40f8 	ldmia.w	sp!, {r3, r4, r5, r6, r7, lr}
     fc4:	490e      	ldr	r1, [pc, #56]	; (1000 <i2c_init+0xa0>)
     fc6:	f7ff be5d 	b.w	c84 <pinmap_pinout>
     fca:	4911      	ldr	r1, [pc, #68]	; (1010 <i2c_init+0xb0>)
     fcc:	f8d1 30c4 	ldr.w	r3, [r1, #196]	; 0xc4
     fd0:	f043 0380 	orr.w	r3, r3, #128	; 0x80
     fd4:	f8c1 30c4 	str.w	r3, [r1, #196]	; 0xc4
     fd8:	e7e0      	b.n	f9c <i2c_init+0x3c>
     fda:	490d      	ldr	r1, [pc, #52]	; (1010 <i2c_init+0xb0>)
     fdc:	f8d1 30c4 	ldr.w	r3, [r1, #196]	; 0xc4
     fe0:	f043 6380 	orr.w	r3, r3, #67108864	; 0x4000000
     fe4:	f8c1 30c4 	str.w	r3, [r1, #196]	; 0xc4
     fe8:	e7d8      	b.n	f9c <i2c_init+0x3c>
     fea:	4909      	ldr	r1, [pc, #36]	; (1010 <i2c_init+0xb0>)
     fec:	f8d1 30c4 	ldr.w	r3, [r1, #196]	; 0xc4
     ff0:	f443 2300 	orr.w	r3, r3, #524288	; 0x80000
     ff4:	f8c1 30c4 	str.w	r3, [r1, #196]	; 0xc4
     ff8:	e7d0      	b.n	f9c <i2c_init+0x3c>
     ffa:	bf00      	nop
     ffc:	00006b7c 	.word	0x00006b7c
    1000:	00006bb8 	.word	0x00006bb8
    1004:	4005c000 	.word	0x4005c000
    1008:	100000cc 	.word	0x100000cc
    100c:	014f8b59 	.word	0x014f8b59
    1010:	400fc000 	.word	0x400fc000

00001014 <i2c_frequency>:
    1014:	4b04      	ldr	r3, [pc, #16]	; (1028 <i2c_frequency+0x14>)
    1016:	0049      	lsls	r1, r1, #1
    1018:	681b      	ldr	r3, [r3, #0]
    101a:	6802      	ldr	r2, [r0, #0]
    101c:	089b      	lsrs	r3, r3, #2
    101e:	fbb3 f1f1 	udiv	r1, r3, r1
    1022:	6151      	str	r1, [r2, #20]
    1024:	6111      	str	r1, [r2, #16]
    1026:	4770      	bx	lr
    1028:	100000cc 	.word	0x100000cc

0000102c <i2c_read>:
    102c:	e92d 43f0 	stmdb	sp!, {r4, r5, r6, r7, r8, r9, lr}
    1030:	6804      	ldr	r4, [r0, #0]
    1032:	253c      	movs	r5, #60	; 0x3c
    1034:	4607      	mov	r7, r0
    1036:	2024      	movs	r0, #36	; 0x24
    1038:	61a5      	str	r5, [r4, #24]
    103a:	4d4e      	ldr	r5, [pc, #312]	; (1174 <i2c_read+0x148>)
    103c:	6020      	str	r0, [r4, #0]
    103e:	e001      	b.n	1044 <i2c_read+0x18>
    1040:	3d01      	subs	r5, #1
    1042:	d002      	beq.n	104a <i2c_read+0x1e>
    1044:	6826      	ldr	r6, [r4, #0]
    1046:	0736      	lsls	r6, r6, #28
    1048:	d5fa      	bpl.n	1040 <i2c_read+0x14>
    104a:	6860      	ldr	r0, [r4, #4]
    104c:	2520      	movs	r5, #32
    104e:	2810      	cmp	r0, #16
    1050:	61a5      	str	r5, [r4, #24]
    1052:	d010      	beq.n	1076 <i2c_read+0x4a>
    1054:	2808      	cmp	r0, #8
    1056:	d00e      	beq.n	1076 <i2c_read+0x4a>
    1058:	2310      	movs	r3, #16
    105a:	2208      	movs	r2, #8
    105c:	6023      	str	r3, [r4, #0]
    105e:	4b45      	ldr	r3, [pc, #276]	; (1174 <i2c_read+0x148>)
    1060:	61a2      	str	r2, [r4, #24]
    1062:	e001      	b.n	1068 <i2c_read+0x3c>
    1064:	3b01      	subs	r3, #1
    1066:	d002      	beq.n	106e <i2c_read+0x42>
    1068:	6822      	ldr	r2, [r4, #0]
    106a:	06d5      	lsls	r5, r2, #27
    106c:	d4fa      	bmi.n	1064 <i2c_read+0x38>
    106e:	f06f 0001 	mvn.w	r0, #1
    1072:	e8bd 83f0 	ldmia.w	sp!, {r4, r5, r6, r7, r8, r9, pc}
    1076:	f041 0101 	orr.w	r1, r1, #1
    107a:	2008      	movs	r0, #8
    107c:	60a1      	str	r1, [r4, #8]
    107e:	493d      	ldr	r1, [pc, #244]	; (1174 <i2c_read+0x148>)
    1080:	61a0      	str	r0, [r4, #24]
    1082:	e001      	b.n	1088 <i2c_read+0x5c>
    1084:	3901      	subs	r1, #1
    1086:	d002      	beq.n	108e <i2c_read+0x62>
    1088:	6825      	ldr	r5, [r4, #0]
    108a:	0728      	lsls	r0, r5, #28
    108c:	d5fa      	bpl.n	1084 <i2c_read+0x58>
    108e:	6861      	ldr	r1, [r4, #4]
    1090:	2940      	cmp	r1, #64	; 0x40
    1092:	d00e      	beq.n	10b2 <i2c_read+0x86>
    1094:	2310      	movs	r3, #16
    1096:	2208      	movs	r2, #8
    1098:	6023      	str	r3, [r4, #0]
    109a:	4b36      	ldr	r3, [pc, #216]	; (1174 <i2c_read+0x148>)
    109c:	61a2      	str	r2, [r4, #24]
    109e:	e001      	b.n	10a4 <i2c_read+0x78>
    10a0:	3b01      	subs	r3, #1
    10a2:	d002      	beq.n	10aa <i2c_read+0x7e>
    10a4:	6822      	ldr	r2, [r4, #0]
    10a6:	06d6      	lsls	r6, r2, #27
    10a8:	d4fa      	bmi.n	10a0 <i2c_read+0x74>
    10aa:	f04f 30ff 	mov.w	r0, #4294967295
    10ae:	e8bd 83f0 	ldmia.w	sp!, {r4, r5, r6, r7, r8, r9, pc}
    10b2:	1e58      	subs	r0, r3, #1
    10b4:	2800      	cmp	r0, #0
    10b6:	dd59      	ble.n	116c <i2c_read+0x140>
    10b8:	4684      	mov	r12, r0
    10ba:	f102 3eff 	add.w	lr, r2, #4294967295
    10be:	2600      	movs	r6, #0
    10c0:	f04f 0904 	mov.w	r9, #4
    10c4:	f04f 0808 	mov.w	r8, #8
    10c8:	f8c4 9000 	str.w	r9, [r4]
    10cc:	4929      	ldr	r1, [pc, #164]	; (1174 <i2c_read+0x148>)
    10ce:	f8c4 8018 	str.w	r8, [r4, #24]
    10d2:	e001      	b.n	10d8 <i2c_read+0xac>
    10d4:	3901      	subs	r1, #1
    10d6:	d002      	beq.n	10de <i2c_read+0xb2>
    10d8:	6825      	ldr	r5, [r4, #0]
    10da:	072d      	lsls	r5, r5, #28
    10dc:	d5fa      	bpl.n	10d4 <i2c_read+0xa8>
    10de:	68a5      	ldr	r5, [r4, #8]
    10e0:	6861      	ldr	r1, [r4, #4]
    10e2:	2950      	cmp	r1, #80	; 0x50
    10e4:	d121      	bne.n	112a <i2c_read+0xfe>
    10e6:	3601      	adds	r6, #1
    10e8:	f80e 5f01 	strb.w	r5, [lr, #1]!
    10ec:	4286      	cmp	r6, r0
    10ee:	683c      	ldr	r4, [r7, #0]
    10f0:	d1ea      	bne.n	10c8 <i2c_read+0x9c>
    10f2:	2108      	movs	r1, #8
    10f4:	2504      	movs	r5, #4
    10f6:	61a5      	str	r5, [r4, #24]
    10f8:	61a1      	str	r1, [r4, #24]
    10fa:	491e      	ldr	r1, [pc, #120]	; (1174 <i2c_read+0x148>)
    10fc:	e001      	b.n	1102 <i2c_read+0xd6>
    10fe:	3901      	subs	r1, #1
    1100:	d002      	beq.n	1108 <i2c_read+0xdc>
    1102:	6825      	ldr	r5, [r4, #0]
    1104:	072e      	lsls	r6, r5, #28
    1106:	d5fa      	bpl.n	10fe <i2c_read+0xd2>
    1108:	68a5      	ldr	r5, [r4, #8]
    110a:	6861      	ldr	r1, [r4, #4]
    110c:	2958      	cmp	r1, #88	; 0x58
    110e:	d01a      	beq.n	1146 <i2c_read+0x11a>
    1110:	2310      	movs	r3, #16
    1112:	2208      	movs	r2, #8
    1114:	6023      	str	r3, [r4, #0]
    1116:	4b17      	ldr	r3, [pc, #92]	; (1174 <i2c_read+0x148>)
    1118:	61a2      	str	r2, [r4, #24]
    111a:	e001      	b.n	1120 <i2c_read+0xf4>
    111c:	3b01      	subs	r3, #1
    111e:	d010      	beq.n	1142 <i2c_read+0x116>
    1120:	6822      	ldr	r2, [r4, #0]
    1122:	06d5      	lsls	r5, r2, #27
    1124:	d4fa      	bmi.n	111c <i2c_read+0xf0>
    1126:	e8bd 83f0 	ldmia.w	sp!, {r4, r5, r6, r7, r8, r9, pc}
    112a:	2310      	movs	r3, #16
    112c:	2208      	movs	r2, #8
    112e:	6023      	str	r3, [r4, #0]
    1130:	4b10      	ldr	r3, [pc, #64]	; (1174 <i2c_read+0x148>)
    1132:	61a2      	str	r2, [r4, #24]
    1134:	e001      	b.n	113a <i2c_read+0x10e>
    1136:	3b01      	subs	r3, #1
    1138:	d002      	beq.n	1140 <i2c_read+0x114>
    113a:	6822      	ldr	r2, [r4, #0]
    113c:	06d7      	lsls	r7, r2, #27
    113e:	d4fa      	bmi.n	1136 <i2c_read+0x10a>
    1140:	4630      	mov	r0, r6
    1142:	e8bd 83f0 	ldmia.w	sp!, {r4, r5, r6, r7, r8, r9, pc}
    1146:	f802 500c 	strb.w	r5, [r2, r12]
    114a:	9a07      	ldr	r2, [sp, #28]
    114c:	b15a      	cbz	r2, 1166 <i2c_read+0x13a>
    114e:	6838      	ldr	r0, [r7, #0]
    1150:	2210      	movs	r2, #16
    1152:	2108      	movs	r1, #8
    1154:	6002      	str	r2, [r0, #0]
    1156:	4a07      	ldr	r2, [pc, #28]	; (1174 <i2c_read+0x148>)
    1158:	6181      	str	r1, [r0, #24]
    115a:	e001      	b.n	1160 <i2c_read+0x134>
    115c:	3a01      	subs	r2, #1
    115e:	d002      	beq.n	1166 <i2c_read+0x13a>
    1160:	6801      	ldr	r1, [r0, #0]
    1162:	06c9      	lsls	r1, r1, #27
    1164:	d4fa      	bmi.n	115c <i2c_read+0x130>
    1166:	4618      	mov	r0, r3
    1168:	e8bd 83f0 	ldmia.w	sp!, {r4, r5, r6, r7, r8, r9, pc}
    116c:	f04f 0c00 	mov.w	r12, #0
    1170:	e7bf      	b.n	10f2 <i2c_read+0xc6>
    1172:	bf00      	nop
    1174:	000186a1 	.word	0x000186a1

00001178 <i2c_write>:
    1178:	b470      	push	{r4, r5, r6}
    117a:	6804      	ldr	r4, [r0, #0]
    117c:	253c      	movs	r5, #60	; 0x3c
    117e:	2024      	movs	r0, #36	; 0x24
    1180:	61a5      	str	r5, [r4, #24]
    1182:	4d36      	ldr	r5, [pc, #216]	; (125c <i2c_write+0xe4>)
    1184:	6020      	str	r0, [r4, #0]
    1186:	e001      	b.n	118c <i2c_write+0x14>
    1188:	3d01      	subs	r5, #1
    118a:	d002      	beq.n	1192 <i2c_write+0x1a>
    118c:	6826      	ldr	r6, [r4, #0]
    118e:	0730      	lsls	r0, r6, #28
    1190:	d5fa      	bpl.n	1188 <i2c_write+0x10>
    1192:	6860      	ldr	r0, [r4, #4]
    1194:	2520      	movs	r5, #32
    1196:	2810      	cmp	r0, #16
    1198:	61a5      	str	r5, [r4, #24]
    119a:	d010      	beq.n	11be <i2c_write+0x46>
    119c:	2808      	cmp	r0, #8
    119e:	d00e      	beq.n	11be <i2c_write+0x46>
    11a0:	2310      	movs	r3, #16
    11a2:	2208      	movs	r2, #8
    11a4:	6023      	str	r3, [r4, #0]
    11a6:	4b2d      	ldr	r3, [pc, #180]	; (125c <i2c_write+0xe4>)
    11a8:	61a2      	str	r2, [r4, #24]
    11aa:	e001      	b.n	11b0 <i2c_write+0x38>
    11ac:	3b01      	subs	r3, #1
    11ae:	d002      	beq.n	11b6 <i2c_write+0x3e>
    11b0:	6822      	ldr	r2, [r4, #0]
    11b2:	06d6      	lsls	r6, r2, #27
    11b4:	d4fa      	bmi.n	11ac <i2c_write+0x34>
    11b6:	f06f 0001 	mvn.w	r0, #1
    11ba:	bc70      	pop	{r4, r5, r6}
    11bc:	4770      	bx	lr
    11be:	f001 01fe 	and.w	r1, r1, #254	; 0xfe
    11c2:	2008      	movs	r0, #8
    11c4:	60a1      	str	r1, [r4, #8]
    11c6:	4925      	ldr	r1, [pc, #148]	; (125c <i2c_write+0xe4>)
    11c8:	61a0      	str	r0, [r4, #24]
    11ca:	e001      	b.n	11d0 <i2c_write+0x58>
    11cc:	3901      	subs	r1, #1
    11ce:	d002      	beq.n	11d6 <i2c_write+0x5e>
    11d0:	6825      	ldr	r5, [r4, #0]
    11d2:	072d      	lsls	r5, r5, #28
    11d4:	d5fa      	bpl.n	11cc <i2c_write+0x54>
    11d6:	6861      	ldr	r1, [r4, #4]
    11d8:	2918      	cmp	r1, #24
    11da:	d00e      	beq.n	11fa <i2c_write+0x82>
    11dc:	2310      	movs	r3, #16
    11de:	2208      	movs	r2, #8
    11e0:	6023      	str	r3, [r4, #0]
    11e2:	4b1e      	ldr	r3, [pc, #120]	; (125c <i2c_write+0xe4>)
    11e4:	61a2      	str	r2, [r4, #24]
    11e6:	e001      	b.n	11ec <i2c_write+0x74>
    11e8:	3b01      	subs	r3, #1
    11ea:	d002      	beq.n	11f2 <i2c_write+0x7a>
    11ec:	6822      	ldr	r2, [r4, #0]
    11ee:	06d0      	lsls	r0, r2, #27
    11f0:	d4fa      	bmi.n	11e8 <i2c_write+0x70>
    11f2:	f04f 30ff 	mov.w	r0, #4294967295
    11f6:	bc70      	pop	{r4, r5, r6}
    11f8:	4770      	bx	lr
    11fa:	2b00      	cmp	r3, #0
    11fc:	dd13      	ble.n	1226 <i2c_write+0xae>
    11fe:	1e55      	subs	r5, r2, #1
    1200:	2000      	movs	r0, #0
    1202:	2608      	movs	r6, #8
    1204:	f815 1f01 	ldrb.w	r1, [r5, #1]!
    1208:	4a14      	ldr	r2, [pc, #80]	; (125c <i2c_write+0xe4>)
    120a:	60a1      	str	r1, [r4, #8]
    120c:	61a6      	str	r6, [r4, #24]
    120e:	e001      	b.n	1214 <i2c_write+0x9c>
    1210:	3a01      	subs	r2, #1
    1212:	d002      	beq.n	121a <i2c_write+0xa2>
    1214:	6821      	ldr	r1, [r4, #0]
    1216:	0709      	lsls	r1, r1, #28
    1218:	d5fa      	bpl.n	1210 <i2c_write+0x98>
    121a:	6862      	ldr	r2, [r4, #4]
    121c:	2a28      	cmp	r2, #40	; 0x28
    121e:	d111      	bne.n	1244 <i2c_write+0xcc>
    1220:	3001      	adds	r0, #1
    1222:	4283      	cmp	r3, r0
    1224:	d1ee      	bne.n	1204 <i2c_write+0x8c>
    1226:	9a03      	ldr	r2, [sp, #12]
    1228:	b152      	cbz	r2, 1240 <i2c_write+0xc8>
    122a:	2210      	movs	r2, #16
    122c:	2108      	movs	r1, #8
    122e:	6022      	str	r2, [r4, #0]
    1230:	4a0a      	ldr	r2, [pc, #40]	; (125c <i2c_write+0xe4>)
    1232:	61a1      	str	r1, [r4, #24]
    1234:	e001      	b.n	123a <i2c_write+0xc2>
    1236:	3a01      	subs	r2, #1
    1238:	d002      	beq.n	1240 <i2c_write+0xc8>
    123a:	6821      	ldr	r1, [r4, #0]
    123c:	06c9      	lsls	r1, r1, #27
    123e:	d4fa      	bmi.n	1236 <i2c_write+0xbe>
    1240:	4618      	mov	r0, r3
    1242:	e7ba      	b.n	11ba <i2c_write+0x42>
    1244:	2310      	movs	r3, #16
    1246:	2208      	movs	r2, #8
    1248:	6023      	str	r3, [r4, #0]
    124a:	4b04      	ldr	r3, [pc, #16]	; (125c <i2c_write+0xe4>)
    124c:	61a2      	str	r2, [r4, #24]
    124e:	e001      	b.n	1254 <i2c_write+0xdc>
    1250:	3b01      	subs	r3, #1
    1252:	d0b2      	beq.n	11ba <i2c_write+0x42>
    1254:	6822      	ldr	r2, [r4, #0]
    1256:	06d5      	lsls	r5, r2, #27
    1258:	d4fa      	bmi.n	1250 <i2c_write+0xd8>
    125a:	e7ae      	b.n	11ba <i2c_write+0x42>
    125c:	000186a1 	.word	0x000186a1

00001260 <pin_function>:
    1260:	f100 4060 	add.w	r0, r0, #3758096384	; 0xe0000000
    1264:	f5a0 201c 	sub.w	r0, r0, #638976	; 0x9c000
    1268:	0903      	lsrs	r3, r0, #4
    126a:	009b      	lsls	r3, r3, #2
    126c:	f103 4380 	add.w	r3, r3, #1073741824	; 0x40000000
    1270:	f503 3330 	add.w	r3, r3, #180224	; 0x2c000
    1274:	0040      	lsls	r0, r0, #1
    1276:	b410      	push	{r4}
    1278:	f000 001e 	and.w	r0, r0, #30
    127c:	681c      	ldr	r4, [r3, #0]
    127e:	2203      	movs	r2, #3
    1280:	4082      	lsls	r2, r0
    1282:	ea24 0202 	bic.w	r2, r4, r2
    1286:	601a      	str	r2, [r3, #0]
    1288:	681a      	ldr	r2, [r3, #0]
    128a:	4081      	lsls	r1, r0
    128c:	ea41 0002 	orr.w	r0, r1, r2
    1290:	6018      	str	r0, [r3, #0]
    1292:	bc10      	pop	{r4}
    1294:	4770      	bx	lr
    1296:	bf00      	nop

00001298 <pin_mode>:
    1298:	f100 4060 	add.w	r0, r0, #3758096384	; 0xe0000000
    129c:	f5a0 201c 	sub.w	r0, r0, #638976	; 0x9c000
    12a0:	0943      	lsrs	r3, r0, #5
    12a2:	009b      	lsls	r3, r3, #2
    12a4:	f103 4380 	add.w	r3, r3, #1073741824	; 0x40000000
    12a8:	f503 3330 	add.w	r3, r3, #180224	; 0x2c000
    12ac:	b430      	push	{r4, r5}
    12ae:	f000 021f 	and.w	r2, r0, #31
    12b2:	6e9c      	ldr	r4, [r3, #104]	; 0x68
    12b4:	f3c1 0580 	ubfx	r5, r1, #2, #1
    12b8:	fa05 f202 	lsl.w	r2, r5, r2
    12bc:	ea24 0402 	bic.w	r4, r4, r2
    12c0:	669c      	str	r4, [r3, #104]	; 0x68
    12c2:	6e9c      	ldr	r4, [r3, #104]	; 0x68
    12c4:	4322      	orrs	r2, r4
    12c6:	669a      	str	r2, [r3, #104]	; 0x68
    12c8:	b99d      	cbnz	r5, 12f2 <pin_mode+0x5a>
    12ca:	0903      	lsrs	r3, r0, #4
    12cc:	009b      	lsls	r3, r3, #2
    12ce:	f103 4380 	add.w	r3, r3, #1073741824	; 0x40000000
    12d2:	f503 3330 	add.w	r3, r3, #180224	; 0x2c000
    12d6:	0040      	lsls	r0, r0, #1
    12d8:	6c1c      	ldr	r4, [r3, #64]	; 0x40
    12da:	f000 001e 	and.w	r0, r0, #30
    12de:	2203      	movs	r2, #3
    12e0:	4082      	lsls	r2, r0
    12e2:	ea24 0202 	bic.w	r2, r4, r2
    12e6:	641a      	str	r2, [r3, #64]	; 0x40
    12e8:	6c1a      	ldr	r2, [r3, #64]	; 0x40
    12ea:	fa01 f000 	lsl.w	r0, r1, r0
    12ee:	4310      	orrs	r0, r2
    12f0:	6418      	str	r0, [r3, #64]	; 0x40
    12f2:	bc30      	pop	{r4, r5}
    12f4:	4770      	bx	lr
    12f6:	bf00      	nop

000012f8 <uart2_irq>:
    12f8:	4b15      	ldr	r3, [pc, #84]	; (1350 <uart2_irq+0x58>)
    12fa:	6899      	ldr	r1, [r3, #8]
    12fc:	f3c1 0142 	ubfx	r1, r1, #1, #3
    1300:	2901      	cmp	r1, #1
    1302:	d018      	beq.n	1336 <uart2_irq+0x3e>
    1304:	2902      	cmp	r1, #2
    1306:	d114      	bne.n	1332 <uart2_irq+0x3a>
    1308:	4a12      	ldr	r2, [pc, #72]	; (1354 <uart2_irq+0x5c>)
    130a:	6f51      	ldr	r1, [r2, #116]	; 0x74
    130c:	3101      	adds	r1, #1
    130e:	d006      	beq.n	131e <uart2_irq+0x26>
    1310:	f8d2 1080 	ldr.w	r1, [r2, #128]	; 0x80
    1314:	6f90      	ldr	r0, [r2, #120]	; 0x78
    1316:	6008      	str	r0, [r1, #0]
    1318:	f892 10a6 	ldrb.w	r1, [r2, #166]	; 0xa6
    131c:	b189      	cbz	r1, 1342 <uart2_irq+0x4a>
    131e:	6f10      	ldr	r0, [r2, #112]	; 0x70
    1320:	4b0c      	ldr	r3, [pc, #48]	; (1354 <uart2_irq+0x5c>)
    1322:	b138      	cbz	r0, 1334 <uart2_irq+0x3c>
    1324:	f893 30a6 	ldrb.w	r3, [r3, #166]	; 0xa6
    1328:	b123      	cbz	r3, 1334 <uart2_irq+0x3c>
    132a:	4b0b      	ldr	r3, [pc, #44]	; (1358 <uart2_irq+0x60>)
    132c:	2100      	movs	r1, #0
    132e:	681b      	ldr	r3, [r3, #0]
    1330:	4718      	bx	r3
    1332:	4770      	bx	lr
    1334:	4770      	bx	lr
    1336:	4b07      	ldr	r3, [pc, #28]	; (1354 <uart2_irq+0x5c>)
    1338:	6f18      	ldr	r0, [r3, #112]	; 0x70
    133a:	b138      	cbz	r0, 134c <uart2_irq+0x54>
    133c:	4b06      	ldr	r3, [pc, #24]	; (1358 <uart2_irq+0x60>)
    133e:	681b      	ldr	r3, [r3, #0]
    1340:	4718      	bx	r3
    1342:	6859      	ldr	r1, [r3, #4]
    1344:	f021 0101 	bic.w	r1, r1, #1
    1348:	6059      	str	r1, [r3, #4]
    134a:	e7e8      	b.n	131e <uart2_irq+0x26>
    134c:	4770      	bx	lr
    134e:	bf00      	nop
    1350:	40098000 	.word	0x40098000
    1354:	100002dc 	.word	0x100002dc
    1358:	100002d8 	.word	0x100002d8

0000135c <serial_irq_set_internal>:
    135c:	b5f8      	push	{r3, r4, r5, r6, r7, lr}
    135e:	4c29      	ldr	r4, [pc, #164]	; (1404 <serial_irq_set_internal+0xa8>)
    1360:	6803      	ldr	r3, [r0, #0]
    1362:	42a3      	cmp	r3, r4
    1364:	d047      	beq.n	13f6 <serial_irq_set_internal+0x9a>
    1366:	dd3f      	ble.n	13e8 <serial_irq_set_internal+0x8c>
    1368:	4c27      	ldr	r4, [pc, #156]	; (1408 <serial_irq_set_internal+0xac>)
    136a:	42a3      	cmp	r3, r4
    136c:	d029      	beq.n	13c2 <serial_irq_set_internal+0x66>
    136e:	f504 4480 	add.w	r4, r4, #16384	; 0x4000
    1372:	42a3      	cmp	r3, r4
    1374:	d142      	bne.n	13fc <serial_irq_set_internal+0xa0>
    1376:	4d25      	ldr	r5, [pc, #148]	; (140c <serial_irq_set_internal+0xb0>)
    1378:	2608      	movs	r6, #8
    137a:	bb32      	cbnz	r2, 13ca <serial_irq_set_internal+0x6e>
    137c:	2901      	cmp	r1, #1
    137e:	d00b      	beq.n	1398 <serial_irq_set_internal+0x3c>
    1380:	6842      	ldr	r2, [r0, #4]
    1382:	4c23      	ldr	r4, [pc, #140]	; (1410 <serial_irq_set_internal+0xb4>)
    1384:	ebc2 02c2 	rsb	r2, r2, r2, lsl #3
    1388:	eb04 02c2 	add.w	r2, r4, r2, lsl #3
    138c:	f892 4036 	ldrb.w	r4, [r2, #54]	; 0x36
    1390:	f892 2035 	ldrb.w	r2, [r2, #53]	; 0x35
    1394:	42d4      	cmn	r4, r2
    1396:	d113      	bne.n	13c0 <serial_irq_set_internal+0x64>
    1398:	fab1 f281 	clz	r2, r1
    139c:	685d      	ldr	r5, [r3, #4]
    139e:	2401      	movs	r4, #1
    13a0:	fa04 f101 	lsl.w	r1, r4, r1
    13a4:	ea25 0101 	bic.w	r1, r5, r1
    13a8:	6059      	str	r1, [r3, #4]
    13aa:	6803      	ldr	r3, [r0, #0]
    13ac:	0952      	lsrs	r2, r2, #5
    13ae:	685b      	ldr	r3, [r3, #4]
    13b0:	fa04 f202 	lsl.w	r2, r4, r2
    13b4:	421a      	tst	r2, r3
    13b6:	d103      	bne.n	13c0 <serial_irq_set_internal+0x64>
    13b8:	4b16      	ldr	r3, [pc, #88]	; (1414 <serial_irq_set_internal+0xb8>)
    13ba:	40b4      	lsls	r4, r6
    13bc:	f8c3 4080 	str.w	r4, [r3, #128]	; 0x80
    13c0:	bdf8      	pop	{r3, r4, r5, r6, r7, pc}
    13c2:	4d15      	ldr	r5, [pc, #84]	; (1418 <serial_irq_set_internal+0xbc>)
    13c4:	2607      	movs	r6, #7
    13c6:	2a00      	cmp	r2, #0
    13c8:	d0d8      	beq.n	137c <serial_irq_set_internal+0x20>
    13ca:	6858      	ldr	r0, [r3, #4]
    13cc:	2701      	movs	r7, #1
    13ce:	fa07 f201 	lsl.w	r2, r7, r1
    13d2:	4302      	orrs	r2, r0
    13d4:	b274      	sxtb	r4, r6
    13d6:	605a      	str	r2, [r3, #4]
    13d8:	4629      	mov	r1, r5
    13da:	4620      	mov	r0, r4
    13dc:	f7ff fcb4 	bl	d48 <NVIC_SetVector>
    13e0:	4b0c      	ldr	r3, [pc, #48]	; (1414 <serial_irq_set_internal+0xb8>)
    13e2:	40a7      	lsls	r7, r4
    13e4:	601f      	str	r7, [r3, #0]
    13e6:	bdf8      	pop	{r3, r4, r5, r6, r7, pc}
    13e8:	f5a4 4480 	sub.w	r4, r4, #16384	; 0x4000
    13ec:	42a3      	cmp	r3, r4
    13ee:	d105      	bne.n	13fc <serial_irq_set_internal+0xa0>
    13f0:	4d0a      	ldr	r5, [pc, #40]	; (141c <serial_irq_set_internal+0xc0>)
    13f2:	2605      	movs	r6, #5
    13f4:	e7c1      	b.n	137a <serial_irq_set_internal+0x1e>
    13f6:	4d0a      	ldr	r5, [pc, #40]	; (1420 <serial_irq_set_internal+0xc4>)
    13f8:	2606      	movs	r6, #6
    13fa:	e7be      	b.n	137a <serial_irq_set_internal+0x1e>
    13fc:	2500      	movs	r5, #0
    13fe:	462e      	mov	r6, r5
    1400:	e7bb      	b.n	137a <serial_irq_set_internal+0x1e>
    1402:	bf00      	nop
    1404:	40010000 	.word	0x40010000
    1408:	40098000 	.word	0x40098000
    140c:	00001425 	.word	0x00001425
    1410:	100002dc 	.word	0x100002dc
    1414:	e000e100 	.word	0xe000e100
    1418:	000012f9 	.word	0x000012f9
    141c:	00001491 	.word	0x00001491
    1420:	000014f1 	.word	0x000014f1

00001424 <uart3_irq>:
    1424:	4b17      	ldr	r3, [pc, #92]	; (1484 <uart3_irq+0x60>)
    1426:	6899      	ldr	r1, [r3, #8]
    1428:	f3c1 0142 	ubfx	r1, r1, #1, #3
    142c:	2901      	cmp	r1, #1
    142e:	d01b      	beq.n	1468 <uart3_irq+0x44>
    1430:	2902      	cmp	r1, #2
    1432:	d117      	bne.n	1464 <uart3_irq+0x40>
    1434:	4a14      	ldr	r2, [pc, #80]	; (1488 <uart3_irq+0x64>)
    1436:	f8d2 10ac 	ldr.w	r1, [r2, #172]	; 0xac
    143a:	3101      	adds	r1, #1
    143c:	d007      	beq.n	144e <uart3_irq+0x2a>
    143e:	f8d2 10b8 	ldr.w	r1, [r2, #184]	; 0xb8
    1442:	f8d2 00b0 	ldr.w	r0, [r2, #176]	; 0xb0
    1446:	6008      	str	r0, [r1, #0]
    1448:	f892 10de 	ldrb.w	r1, [r2, #222]	; 0xde
    144c:	b199      	cbz	r1, 1476 <uart3_irq+0x52>
    144e:	f8d2 00a8 	ldr.w	r0, [r2, #168]	; 0xa8
    1452:	4b0d      	ldr	r3, [pc, #52]	; (1488 <uart3_irq+0x64>)
    1454:	b138      	cbz	r0, 1466 <uart3_irq+0x42>
    1456:	f893 30de 	ldrb.w	r3, [r3, #222]	; 0xde
    145a:	b123      	cbz	r3, 1466 <uart3_irq+0x42>
    145c:	4b0b      	ldr	r3, [pc, #44]	; (148c <uart3_irq+0x68>)
    145e:	2100      	movs	r1, #0
    1460:	681b      	ldr	r3, [r3, #0]
    1462:	4718      	bx	r3
    1464:	4770      	bx	lr
    1466:	4770      	bx	lr
    1468:	4b07      	ldr	r3, [pc, #28]	; (1488 <uart3_irq+0x64>)
    146a:	f8d3 00a8 	ldr.w	r0, [r3, #168]	; 0xa8
    146e:	b138      	cbz	r0, 1480 <uart3_irq+0x5c>
    1470:	4b06      	ldr	r3, [pc, #24]	; (148c <uart3_irq+0x68>)
    1472:	681b      	ldr	r3, [r3, #0]
    1474:	4718      	bx	r3
    1476:	6859      	ldr	r1, [r3, #4]
    1478:	f021 0101 	bic.w	r1, r1, #1
    147c:	6059      	str	r1, [r3, #4]
    147e:	e7e6      	b.n	144e <uart3_irq+0x2a>
    1480:	4770      	bx	lr
    1482:	bf00      	nop
    1484:	4009c000 	.word	0x4009c000
    1488:	100002dc 	.word	0x100002dc
    148c:	100002d8 	.word	0x100002d8

00001490 <uart0_irq>:
    1490:	4b14      	ldr	r3, [pc, #80]	; (14e4 <uart0_irq+0x54>)
    1492:	6899      	ldr	r1, [r3, #8]
    1494:	f3c1 0142 	ubfx	r1, r1, #1, #3
    1498:	2901      	cmp	r1, #1
    149a:	d017      	beq.n	14cc <uart0_irq+0x3c>
    149c:	2902      	cmp	r1, #2
    149e:	d113      	bne.n	14c8 <uart0_irq+0x38>
    14a0:	4a11      	ldr	r2, [pc, #68]	; (14e8 <uart0_irq+0x58>)
    14a2:	6851      	ldr	r1, [r2, #4]
    14a4:	3101      	adds	r1, #1
    14a6:	d005      	beq.n	14b4 <uart0_irq+0x24>
    14a8:	6911      	ldr	r1, [r2, #16]
    14aa:	6890      	ldr	r0, [r2, #8]
    14ac:	6008      	str	r0, [r1, #0]
    14ae:	f892 1036 	ldrb.w	r1, [r2, #54]	; 0x36
    14b2:	b189      	cbz	r1, 14d8 <uart0_irq+0x48>
    14b4:	6810      	ldr	r0, [r2, #0]
    14b6:	4b0c      	ldr	r3, [pc, #48]	; (14e8 <uart0_irq+0x58>)
    14b8:	b138      	cbz	r0, 14ca <uart0_irq+0x3a>
    14ba:	f893 3036 	ldrb.w	r3, [r3, #54]	; 0x36
    14be:	b123      	cbz	r3, 14ca <uart0_irq+0x3a>
    14c0:	4b0a      	ldr	r3, [pc, #40]	; (14ec <uart0_irq+0x5c>)
    14c2:	2100      	movs	r1, #0
    14c4:	681b      	ldr	r3, [r3, #0]
    14c6:	4718      	bx	r3
    14c8:	4770      	bx	lr
    14ca:	4770      	bx	lr
    14cc:	4b06      	ldr	r3, [pc, #24]	; (14e8 <uart0_irq+0x58>)
    14ce:	6818      	ldr	r0, [r3, #0]
    14d0:	b138      	cbz	r0, 14e2 <uart0_irq+0x52>
    14d2:	4b06      	ldr	r3, [pc, #24]	; (14ec <uart0_irq+0x5c>)
    14d4:	681b      	ldr	r3, [r3, #0]
    14d6:	4718      	bx	r3
    14d8:	6859      	ldr	r1, [r3, #4]
    14da:	f021 0101 	bic.w	r1, r1, #1
    14de:	6059      	str	r1, [r3, #4]
    14e0:	e7e8      	b.n	14b4 <uart0_irq+0x24>
    14e2:	4770      	bx	lr
    14e4:	4000c000 	.word	0x4000c000
    14e8:	100002dc 	.word	0x100002dc
    14ec:	100002d8 	.word	0x100002d8

000014f0 <uart1_irq>:
    14f0:	4b14      	ldr	r3, [pc, #80]	; (1544 <uart1_irq+0x54>)
    14f2:	6899      	ldr	r1, [r3, #8]
    14f4:	f3c1 0142 	ubfx	r1, r1, #1, #3
    14f8:	2901      	cmp	r1, #1
    14fa:	d017      	beq.n	152c <uart1_irq+0x3c>
    14fc:	2902      	cmp	r1, #2
    14fe:	d113      	bne.n	1528 <uart1_irq+0x38>
    1500:	4a11      	ldr	r2, [pc, #68]	; (1548 <uart1_irq+0x58>)
    1502:	6bd1      	ldr	r1, [r2, #60]	; 0x3c
    1504:	3101      	adds	r1, #1
    1506:	d005      	beq.n	1514 <uart1_irq+0x24>
    1508:	6c91      	ldr	r1, [r2, #72]	; 0x48
    150a:	6c10      	ldr	r0, [r2, #64]	; 0x40
    150c:	6008      	str	r0, [r1, #0]
    150e:	f892 106e 	ldrb.w	r1, [r2, #110]	; 0x6e
    1512:	b189      	cbz	r1, 1538 <uart1_irq+0x48>
    1514:	6b90      	ldr	r0, [r2, #56]	; 0x38
    1516:	4b0c      	ldr	r3, [pc, #48]	; (1548 <uart1_irq+0x58>)
    1518:	b138      	cbz	r0, 152a <uart1_irq+0x3a>
    151a:	f893 306e 	ldrb.w	r3, [r3, #110]	; 0x6e
    151e:	b123      	cbz	r3, 152a <uart1_irq+0x3a>
    1520:	4b0a      	ldr	r3, [pc, #40]	; (154c <uart1_irq+0x5c>)
    1522:	2100      	movs	r1, #0
    1524:	681b      	ldr	r3, [r3, #0]
    1526:	4718      	bx	r3
    1528:	4770      	bx	lr
    152a:	4770      	bx	lr
    152c:	4b06      	ldr	r3, [pc, #24]	; (1548 <uart1_irq+0x58>)
    152e:	6b98      	ldr	r0, [r3, #56]	; 0x38
    1530:	b138      	cbz	r0, 1542 <uart1_irq+0x52>
    1532:	4b06      	ldr	r3, [pc, #24]	; (154c <uart1_irq+0x5c>)
    1534:	681b      	ldr	r3, [r3, #0]
    1536:	4718      	bx	r3
    1538:	6859      	ldr	r1, [r3, #4]
    153a:	f021 0101 	bic.w	r1, r1, #1
    153e:	6059      	str	r1, [r3, #4]
    1540:	e7e8      	b.n	1514 <uart1_irq+0x24>
    1542:	4770      	bx	lr
    1544:	40010000 	.word	0x40010000
    1548:	100002dc 	.word	0x100002dc
    154c:	100002d8 	.word	0x100002d8

00001550 <serial_baud>:
    1550:	e92d 4ff0 	stmdb	sp!, {r4, r5, r6, r7, r8, r9, r10, r11, lr}
    1554:	6802      	ldr	r2, [r0, #0]
    1556:	4b6e      	ldr	r3, [pc, #440]	; (1710 <serial_baud+0x1c0>)
    1558:	b089      	sub	sp, #36	; 0x24
    155a:	429a      	cmp	r2, r3
    155c:	9007      	str	r0, [sp, #28]
    155e:	9206      	str	r2, [sp, #24]
    1560:	f000 80c8 	beq.w	16f4 <serial_baud+0x1a4>
    1564:	f340 80b4 	ble.w	16d0 <serial_baud+0x180>
    1568:	4b6a      	ldr	r3, [pc, #424]	; (1714 <serial_baud+0x1c4>)
    156a:	9806      	ldr	r0, [sp, #24]
    156c:	4298      	cmp	r0, r3
    156e:	d072      	beq.n	1656 <serial_baud+0x106>
    1570:	f503 4380 	add.w	r3, r3, #16384	; 0x4000
    1574:	4298      	cmp	r0, r3
    1576:	f040 809d 	bne.w	16b4 <serial_baud+0x164>
    157a:	4b67      	ldr	r3, [pc, #412]	; (1718 <serial_baud+0x1c8>)
    157c:	f8d3 21ac 	ldr.w	r2, [r3, #428]	; 0x1ac
    1580:	f422 2240 	bic.w	r2, r2, #786432	; 0xc0000
    1584:	f8c3 21ac 	str.w	r2, [r3, #428]	; 0x1ac
    1588:	f8d3 21ac 	ldr.w	r2, [r3, #428]	; 0x1ac
    158c:	f442 2280 	orr.w	r2, r2, #262144	; 0x40000
    1590:	f8c3 21ac 	str.w	r2, [r3, #428]	; 0x1ac
    1594:	4a61      	ldr	r2, [pc, #388]	; (171c <serial_baud+0x1cc>)
    1596:	010b      	lsls	r3, r1, #4
    1598:	6812      	ldr	r2, [r2, #0]
    159a:	fbb2 f0f3 	udiv	r0, r2, r3
    159e:	fb03 2310 	mls	r3, r3, r0, r2
    15a2:	9203      	str	r2, [sp, #12]
    15a4:	b280      	uxth	r0, r0
    15a6:	2b00      	cmp	r3, #0
    15a8:	f000 8090 	beq.w	16cc <serial_baud+0x17c>
    15ac:	9b03      	ldr	r3, [sp, #12]
    15ae:	f04f 0801 	mov.w	r8, #1
    15b2:	005a      	lsls	r2, r3, #1
    15b4:	009c      	lsls	r4, r3, #2
    15b6:	4694      	mov	r12, r2
    15b8:	46a2      	mov	r10, r4
    15ba:	46c3      	mov	r11, r8
    15bc:	468e      	mov	lr, r1
    15be:	4699      	mov	r9, r3
    15c0:	2300      	movs	r3, #0
    15c2:	9205      	str	r2, [sp, #20]
    15c4:	9404      	str	r4, [sp, #16]
    15c6:	9000      	str	r0, [sp, #0]
    15c8:	9102      	str	r1, [sp, #8]
    15ca:	9301      	str	r3, [sp, #4]
    15cc:	2400      	movs	r4, #0
    15ce:	4625      	mov	r5, r4
    15d0:	9e02      	ldr	r6, [sp, #8]
    15d2:	fa5f f788 	uxtb.w	r7, r8
    15d6:	f1bc 0f00 	cmp.w	r12, #0
    15da:	bfb5      	itete	lt
    15dc:	fbbc f0f6 	udivlt	r0, r12, r6
    15e0:	fbba f0f6 	udivge	r0, r10, r6
    15e4:	0900      	lsrlt	r0, r0, #4
    15e6:	0940      	lsrge	r0, r0, #5
    15e8:	3001      	adds	r0, #1
    15ea:	f3c0 004f 	ubfx	r0, r0, #1, #16
    15ee:	eb08 0204 	add.w	r2, r8, r4
    15f2:	2800      	cmp	r0, #0
    15f4:	d03d      	beq.n	1672 <serial_baud+0x122>
    15f6:	b10c      	cbz	r4, 15fc <serial_baud+0xac>
    15f8:	2801      	cmp	r0, #1
    15fa:	d03b      	beq.n	1674 <serial_baud+0x124>
    15fc:	4603      	mov	r3, r0
    15fe:	fb03 f302 	mul.w	r3, r3, r2
    1602:	00db      	lsls	r3, r3, #3
    1604:	fbb9 f3f3 	udiv	r3, r9, r3
    1608:	3301      	adds	r3, #1
    160a:	ebc1 0353 	rsb	r3, r1, r3, lsr #1
    160e:	2b00      	cmp	r3, #0
    1610:	bfb8      	it	lt
    1612:	425b      	neglt	r3, r3
    1614:	4573      	cmp	r3, lr
    1616:	da05      	bge.n	1624 <serial_baud+0xd4>
    1618:	4299      	cmp	r1, r3
    161a:	d030      	beq.n	167e <serial_baud+0x12e>
    161c:	469e      	mov	lr, r3
    161e:	46bb      	mov	r11, r7
    1620:	e88d 0021 	stmia.w	sp, {r0, r5}
    1624:	3401      	adds	r4, #1
    1626:	b2e5      	uxtb	r5, r4
    1628:	42af      	cmp	r7, r5
    162a:	440e      	add	r6, r1
    162c:	d8d3      	bhi.n	15d6 <serial_baud+0x86>
    162e:	9b03      	ldr	r3, [sp, #12]
    1630:	f108 0801 	add.w	r8, r8, #1
    1634:	4499      	add	r9, r3
    1636:	9b05      	ldr	r3, [sp, #20]
    1638:	f1b8 0f10 	cmp.w	r8, #16
    163c:	449c      	add	r12, r3
    163e:	9b04      	ldr	r3, [sp, #16]
    1640:	449a      	add	r10, r3
    1642:	9b02      	ldr	r3, [sp, #8]
    1644:	440b      	add	r3, r1
    1646:	9302      	str	r3, [sp, #8]
    1648:	d1c0      	bne.n	15cc <serial_baud+0x7c>
    164a:	9b01      	ldr	r3, [sp, #4]
    164c:	9800      	ldr	r0, [sp, #0]
    164e:	ea43 150b 	orr.w	r5, r3, r11, lsl #4
    1652:	b2ed      	uxtb	r5, r5
    1654:	e016      	b.n	1684 <serial_baud+0x134>
    1656:	4b30      	ldr	r3, [pc, #192]	; (1718 <serial_baud+0x1c8>)
    1658:	f8d3 21ac 	ldr.w	r2, [r3, #428]	; 0x1ac
    165c:	f422 3240 	bic.w	r2, r2, #196608	; 0x30000
    1660:	f8c3 21ac 	str.w	r2, [r3, #428]	; 0x1ac
    1664:	f8d3 21ac 	ldr.w	r2, [r3, #428]	; 0x1ac
    1668:	f442 3280 	orr.w	r2, r2, #65536	; 0x10000
    166c:	f8c3 21ac 	str.w	r2, [r3, #428]	; 0x1ac
    1670:	e790      	b.n	1594 <serial_baud+0x44>
    1672:	b114      	cbz	r4, 167a <serial_baud+0x12a>
    1674:	2002      	movs	r0, #2
    1676:	4603      	mov	r3, r0
    1678:	e7c1      	b.n	15fe <serial_baud+0xae>
    167a:	2001      	movs	r0, #1
    167c:	e7be      	b.n	15fc <serial_baud+0xac>
    167e:	ea45 1507 	orr.w	r5, r5, r7, lsl #4
    1682:	b2ed      	uxtb	r5, r5
    1684:	9906      	ldr	r1, [sp, #24]
    1686:	f3c0 2207 	ubfx	r2, r0, #8, #8
    168a:	7b0b      	ldrb	r3, [r1, #12]
    168c:	b2c0      	uxtb	r0, r0
    168e:	f043 0380 	orr.w	r3, r3, #128	; 0x80
    1692:	730b      	strb	r3, [r1, #12]
    1694:	9907      	ldr	r1, [sp, #28]
    1696:	680b      	ldr	r3, [r1, #0]
    1698:	711a      	strb	r2, [r3, #4]
    169a:	680b      	ldr	r3, [r1, #0]
    169c:	7018      	strb	r0, [r3, #0]
    169e:	680b      	ldr	r3, [r1, #0]
    16a0:	f883 5028 	strb.w	r5, [r3, #40]	; 0x28
    16a4:	680a      	ldr	r2, [r1, #0]
    16a6:	7b13      	ldrb	r3, [r2, #12]
    16a8:	f003 037f 	and.w	r3, r3, #127	; 0x7f
    16ac:	7313      	strb	r3, [r2, #12]
    16ae:	b009      	add	sp, #36	; 0x24
    16b0:	e8bd 8ff0 	ldmia.w	sp!, {r4, r5, r6, r7, r8, r9, r10, r11, pc}
    16b4:	4a19      	ldr	r2, [pc, #100]	; (171c <serial_baud+0x1cc>)
    16b6:	010b      	lsls	r3, r1, #4
    16b8:	6812      	ldr	r2, [r2, #0]
    16ba:	fbb2 f0f3 	udiv	r0, r2, r3
    16be:	fb03 2310 	mls	r3, r3, r0, r2
    16c2:	9203      	str	r2, [sp, #12]
    16c4:	b280      	uxth	r0, r0
    16c6:	2b00      	cmp	r3, #0
    16c8:	f47f af70 	bne.w	15ac <serial_baud+0x5c>
    16cc:	2510      	movs	r5, #16
    16ce:	e7d9      	b.n	1684 <serial_baud+0x134>
    16d0:	f5a3 4380 	sub.w	r3, r3, #16384	; 0x4000
    16d4:	429a      	cmp	r2, r3
    16d6:	d1ed      	bne.n	16b4 <serial_baud+0x164>
    16d8:	4b0f      	ldr	r3, [pc, #60]	; (1718 <serial_baud+0x1c8>)
    16da:	f8d3 21a8 	ldr.w	r2, [r3, #424]	; 0x1a8
    16de:	f022 02c0 	bic.w	r2, r2, #192	; 0xc0
    16e2:	f8c3 21a8 	str.w	r2, [r3, #424]	; 0x1a8
    16e6:	f8d3 21a8 	ldr.w	r2, [r3, #424]	; 0x1a8
    16ea:	f042 0240 	orr.w	r2, r2, #64	; 0x40
    16ee:	f8c3 21a8 	str.w	r2, [r3, #424]	; 0x1a8
    16f2:	e74f      	b.n	1594 <serial_baud+0x44>
    16f4:	4b08      	ldr	r3, [pc, #32]	; (1718 <serial_baud+0x1c8>)
    16f6:	f8d3 21a8 	ldr.w	r2, [r3, #424]	; 0x1a8
    16fa:	f422 7240 	bic.w	r2, r2, #768	; 0x300
    16fe:	f8c3 21a8 	str.w	r2, [r3, #424]	; 0x1a8
    1702:	f8d3 21a8 	ldr.w	r2, [r3, #424]	; 0x1a8
    1706:	f442 7280 	orr.w	r2, r2, #256	; 0x100
    170a:	f8c3 21a8 	str.w	r2, [r3, #424]	; 0x1a8
    170e:	e741      	b.n	1594 <serial_baud+0x44>
    1710:	40010000 	.word	0x40010000
    1714:	40098000 	.word	0x40098000
    1718:	400fc000 	.word	0x400fc000
    171c:	100000cc 	.word	0x100000cc

00001720 <serial_irq_handler>:
    1720:	6843      	ldr	r3, [r0, #4]
    1722:	b410      	push	{r4}
    1724:	4804      	ldr	r0, [pc, #16]	; (1738 <serial_irq_handler+0x18>)
    1726:	4c05      	ldr	r4, [pc, #20]	; (173c <serial_irq_handler+0x1c>)
    1728:	ebc3 03c3 	rsb	r3, r3, r3, lsl #3
    172c:	f844 2033 	str.w	r2, [r4, r3, lsl #3]
    1730:	6001      	str	r1, [r0, #0]
    1732:	bc10      	pop	{r4}
    1734:	4770      	bx	lr
    1736:	bf00      	nop
    1738:	100002d8 	.word	0x100002d8
    173c:	100002dc 	.word	0x100002dc

00001740 <serial_getc>:
    1740:	6802      	ldr	r2, [r0, #0]
    1742:	7d13      	ldrb	r3, [r2, #20]
    1744:	07db      	lsls	r3, r3, #31
    1746:	d5fc      	bpl.n	1742 <serial_getc+0x2>
    1748:	6843      	ldr	r3, [r0, #4]
    174a:	4909      	ldr	r1, [pc, #36]	; (1770 <serial_getc+0x30>)
    174c:	ebc3 03c3 	rsb	r3, r3, r3, lsl #3
    1750:	eb01 03c3 	add.w	r3, r1, r3, lsl #3
    1754:	6859      	ldr	r1, [r3, #4]
    1756:	7810      	ldrb	r0, [r2, #0]
    1758:	3101      	adds	r1, #1
    175a:	b2c0      	uxtb	r0, r0
    175c:	d006      	beq.n	176c <serial_getc+0x2c>
    175e:	6959      	ldr	r1, [r3, #20]
    1760:	689b      	ldr	r3, [r3, #8]
    1762:	600b      	str	r3, [r1, #0]
    1764:	6853      	ldr	r3, [r2, #4]
    1766:	f043 0301 	orr.w	r3, r3, #1
    176a:	6053      	str	r3, [r2, #4]
    176c:	4770      	bx	lr
    176e:	bf00      	nop
    1770:	100002dc 	.word	0x100002dc

00001774 <serial_writable>:
    1774:	6843      	ldr	r3, [r0, #4]
    1776:	4a15      	ldr	r2, [pc, #84]	; (17cc <serial_writable+0x58>)
    1778:	ebc3 03c3 	rsb	r3, r3, r3, lsl #3
    177c:	00db      	lsls	r3, r3, #3
    177e:	18d1      	adds	r1, r2, r3
    1780:	b410      	push	{r4}
    1782:	69cc      	ldr	r4, [r1, #28]
    1784:	3401      	adds	r4, #1
    1786:	d00f      	beq.n	17a8 <serial_writable+0x34>
    1788:	460b      	mov	r3, r1
    178a:	6b0a      	ldr	r2, [r1, #48]	; 0x30
    178c:	331c      	adds	r3, #28
    178e:	685b      	ldr	r3, [r3, #4]
    1790:	6812      	ldr	r2, [r2, #0]
    1792:	421a      	tst	r2, r3
    1794:	d105      	bne.n	17a2 <serial_writable+0x2e>
    1796:	6803      	ldr	r3, [r0, #0]
    1798:	bc10      	pop	{r4}
    179a:	7d18      	ldrb	r0, [r3, #20]
    179c:	f3c0 1080 	ubfx	r0, r0, #6, #1
    17a0:	4770      	bx	lr
    17a2:	2000      	movs	r0, #0
    17a4:	bc10      	pop	{r4}
    17a6:	4770      	bx	lr
    17a8:	6803      	ldr	r3, [r0, #0]
    17aa:	7d1b      	ldrb	r3, [r3, #20]
    17ac:	069b      	lsls	r3, r3, #26
    17ae:	d407      	bmi.n	17c0 <serial_writable+0x4c>
    17b0:	f891 0034 	ldrb.w	r0, [r1, #52]	; 0x34
    17b4:	bc10      	pop	{r4}
    17b6:	280f      	cmp	r0, #15
    17b8:	bf8c      	ite	hi
    17ba:	2000      	movhi	r0, #0
    17bc:	2001      	movls	r0, #1
    17be:	4770      	bx	lr
    17c0:	2300      	movs	r3, #0
    17c2:	f881 3034 	strb.w	r3, [r1, #52]	; 0x34
    17c6:	2001      	movs	r0, #1
    17c8:	bc10      	pop	{r4}
    17ca:	4770      	bx	lr
    17cc:	100002dc 	.word	0x100002dc

000017d0 <serial_putc>:
    17d0:	b538      	push	{r3, r4, r5, lr}
    17d2:	4604      	mov	r4, r0
    17d4:	460d      	mov	r5, r1
    17d6:	4620      	mov	r0, r4
    17d8:	f7ff ffcc 	bl	1774 <serial_writable>
    17dc:	2800      	cmp	r0, #0
    17de:	d0fa      	beq.n	17d6 <serial_putc+0x6>
    17e0:	6823      	ldr	r3, [r4, #0]
    17e2:	b2ed      	uxtb	r5, r5
    17e4:	701d      	strb	r5, [r3, #0]
    17e6:	6863      	ldr	r3, [r4, #4]
    17e8:	4a05      	ldr	r2, [pc, #20]	; (1800 <serial_putc+0x30>)
    17ea:	ebc3 03c3 	rsb	r3, r3, r3, lsl #3
    17ee:	eb02 03c3 	add.w	r3, r2, r3, lsl #3
    17f2:	f893 2034 	ldrb.w	r2, [r3, #52]	; 0x34
    17f6:	3201      	adds	r2, #1
    17f8:	f883 2034 	strb.w	r2, [r3, #52]	; 0x34
    17fc:	bd38      	pop	{r3, r4, r5, pc}
    17fe:	bf00      	nop
    1800:	100002dc 	.word	0x100002dc

00001804 <serial_set_flow_control>:
    1804:	e92d 4ff0 	stmdb	sp!, {r4, r5, r6, r7, r8, r9, r10, r11, lr}
    1808:	4605      	mov	r5, r0
    180a:	4844      	ldr	r0, [pc, #272]	; (191c <serial_set_flow_control+0x118>)
    180c:	682c      	ldr	r4, [r5, #0]
    180e:	b083      	sub	sp, #12
    1810:	4284      	cmp	r4, r0
    1812:	460f      	mov	r7, r1
    1814:	4691      	mov	r9, r2
    1816:	469a      	mov	r10, r3
    1818:	d01d      	beq.n	1856 <serial_set_flow_control+0x52>
    181a:	686e      	ldr	r6, [r5, #4]
    181c:	2400      	movs	r4, #0
    181e:	4632      	mov	r2, r6
    1820:	f8df b104 	ldr.w	r11, [pc, #260]	; 1928 <serial_set_flow_control+0x124>
    1824:	ea4f 08c6 	mov.w	r8, r6, lsl #3
    1828:	ebc2 01c2 	rsb	r1, r2, r2, lsl #3
    182c:	ebc6 0008 	rsb	r0, r6, r8
    1830:	eb0b 00c0 	add.w	r0, r11, r0, lsl #3
    1834:	2200      	movs	r2, #0
    1836:	eb0b 01c1 	add.w	r1, r11, r1, lsl #3
    183a:	f04f 33ff 	mov.w	r3, #4294967295
    183e:	f881 2035 	strb.w	r2, [r1, #53]	; 0x35
    1842:	61c3      	str	r3, [r0, #28]
    1844:	6043      	str	r3, [r0, #4]
    1846:	4611      	mov	r1, r2
    1848:	4628      	mov	r0, r5
    184a:	f7ff fd87 	bl	135c <serial_irq_set_internal>
    184e:	b94f      	cbnz	r7, 1864 <serial_set_flow_control+0x60>
    1850:	b003      	add	sp, #12
    1852:	e8bd 8ff0 	ldmia.w	sp!, {r4, r5, r6, r7, r8, r9, r10, r11, pc}
    1856:	7c23      	ldrb	r3, [r4, #16]
    1858:	686e      	ldr	r6, [r5, #4]
    185a:	f003 033f 	and.w	r3, r3, #63	; 0x3f
    185e:	7423      	strb	r3, [r4, #16]
    1860:	686a      	ldr	r2, [r5, #4]
    1862:	e7dd      	b.n	1820 <serial_set_flow_control+0x1c>
    1864:	492e      	ldr	r1, [pc, #184]	; (1920 <serial_set_flow_control+0x11c>)
    1866:	4648      	mov	r0, r9
    1868:	f7ff fa44 	bl	cf4 <pinmap_find_peripheral>
    186c:	492d      	ldr	r1, [pc, #180]	; (1924 <serial_set_flow_control+0x120>)
    186e:	9001      	str	r0, [sp, #4]
    1870:	4650      	mov	r0, r10
    1872:	f7ff fa3f 	bl	cf4 <pinmap_find_peripheral>
    1876:	1eba      	subs	r2, r7, #2
    1878:	2a01      	cmp	r2, #1
    187a:	d930      	bls.n	18de <serial_set_flow_control+0xda>
    187c:	2f01      	cmp	r7, #1
    187e:	d1e7      	bne.n	1850 <serial_set_flow_control+0x4c>
    1880:	f1b9 3fff 	cmp.w	r9, #4294967295
    1884:	d0e4      	beq.n	1850 <serial_set_flow_control+0x4c>
    1886:	4a25      	ldr	r2, [pc, #148]	; (191c <serial_set_flow_control+0x118>)
    1888:	9b01      	ldr	r3, [sp, #4]
    188a:	6829      	ldr	r1, [r5, #0]
    188c:	2007      	movs	r0, #7
    188e:	4293      	cmp	r3, r2
    1890:	7208      	strb	r0, [r1, #8]
    1892:	d10b      	bne.n	18ac <serial_set_flow_control+0xa8>
    1894:	b154      	cbz	r4, 18ac <serial_set_flow_control+0xa8>
    1896:	4648      	mov	r0, r9
    1898:	7c23      	ldrb	r3, [r4, #16]
    189a:	4921      	ldr	r1, [pc, #132]	; (1920 <serial_set_flow_control+0x11c>)
    189c:	f043 0340 	orr.w	r3, r3, #64	; 0x40
    18a0:	7423      	strb	r3, [r4, #16]
    18a2:	b003      	add	sp, #12
    18a4:	e8bd 4ff0 	ldmia.w	sp!, {r4, r5, r6, r7, r8, r9, r10, r11, lr}
    18a8:	f7ff b9ec 	b.w	c84 <pinmap_pinout>
    18ac:	ebc6 0608 	rsb	r6, r6, r8
    18b0:	eb0b 00c6 	add.w	r0, r11, r6, lsl #3
    18b4:	4649      	mov	r1, r9
    18b6:	3004      	adds	r0, #4
    18b8:	2200      	movs	r2, #0
    18ba:	f7ff f967 	bl	b8c <gpio_init_out_ex>
    18be:	686a      	ldr	r2, [r5, #4]
    18c0:	2401      	movs	r4, #1
    18c2:	ebc2 02c2 	rsb	r2, r2, r2, lsl #3
    18c6:	eb0b 03c2 	add.w	r3, r11, r2, lsl #3
    18ca:	4628      	mov	r0, r5
    18cc:	4622      	mov	r2, r4
    18ce:	2100      	movs	r1, #0
    18d0:	f883 4035 	strb.w	r4, [r3, #53]	; 0x35
    18d4:	b003      	add	sp, #12
    18d6:	e8bd 4ff0 	ldmia.w	sp!, {r4, r5, r6, r7, r8, r9, r10, r11, lr}
    18da:	f7ff bd3f 	b.w	135c <serial_irq_set_internal>
    18de:	f1ba 3fff 	cmp.w	r10, #4294967295
    18e2:	d00a      	beq.n	18fa <serial_set_flow_control+0xf6>
    18e4:	4a0d      	ldr	r2, [pc, #52]	; (191c <serial_set_flow_control+0x118>)
    18e6:	4290      	cmp	r0, r2
    18e8:	d00d      	beq.n	1906 <serial_set_flow_control+0x102>
    18ea:	ebc6 0008 	rsb	r0, r6, r8
    18ee:	eb0b 00c0 	add.w	r0, r11, r0, lsl #3
    18f2:	4651      	mov	r1, r10
    18f4:	301c      	adds	r0, #28
    18f6:	f7ff f921 	bl	b3c <gpio_init_in>
    18fa:	2f03      	cmp	r7, #3
    18fc:	d1a8      	bne.n	1850 <serial_set_flow_control+0x4c>
    18fe:	f1b9 3fff 	cmp.w	r9, #4294967295
    1902:	d1c0      	bne.n	1886 <serial_set_flow_control+0x82>
    1904:	e7a4      	b.n	1850 <serial_set_flow_control+0x4c>
    1906:	2c00      	cmp	r4, #0
    1908:	d0ef      	beq.n	18ea <serial_set_flow_control+0xe6>
    190a:	7c22      	ldrb	r2, [r4, #16]
    190c:	4650      	mov	r0, r10
    190e:	f042 0280 	orr.w	r2, r2, #128	; 0x80
    1912:	7422      	strb	r2, [r4, #16]
    1914:	4903      	ldr	r1, [pc, #12]	; (1924 <serial_set_flow_control+0x120>)
    1916:	f7ff f9b5 	bl	c84 <pinmap_pinout>
    191a:	e7ee      	b.n	18fa <serial_set_flow_control+0xf6>
    191c:	40010000 	.word	0x40010000
    1920:	00006bf4 	.word	0x00006bf4
    1924:	00006cf0 	.word	0x00006cf0
    1928:	100002dc 	.word	0x100002dc

0000192c <serial_init>:
    192c:	e92d 41f0 	stmdb	sp!, {r4, r5, r6, r7, r8, lr}
    1930:	460f      	mov	r7, r1
    1932:	4605      	mov	r5, r0
    1934:	4959      	ldr	r1, [pc, #356]	; (1a9c <serial_init+0x170>)
    1936:	4638      	mov	r0, r7
    1938:	4616      	mov	r6, r2
    193a:	f7ff f9eb 	bl	d14 <pinmap_peripheral>
    193e:	4958      	ldr	r1, [pc, #352]	; (1aa0 <serial_init+0x174>)
    1940:	4604      	mov	r4, r0
    1942:	4630      	mov	r0, r6
    1944:	f7ff f9e6 	bl	d14 <pinmap_peripheral>
    1948:	4601      	mov	r1, r0
    194a:	4620      	mov	r0, r4
    194c:	f7ff f9c0 	bl	cd0 <pinmap_merge>
    1950:	4b54      	ldr	r3, [pc, #336]	; (1aa4 <serial_init+0x178>)
    1952:	4604      	mov	r4, r0
    1954:	4298      	cmp	r0, r3
    1956:	6028      	str	r0, [r5, #0]
    1958:	d07f      	beq.n	1a5a <serial_init+0x12e>
    195a:	d96f      	bls.n	1a3c <serial_init+0x110>
    195c:	4b52      	ldr	r3, [pc, #328]	; (1aa8 <serial_init+0x17c>)
    195e:	4298      	cmp	r0, r3
    1960:	d04b      	beq.n	19fa <serial_init+0xce>
    1962:	f503 4380 	add.w	r3, r3, #16384	; 0x4000
    1966:	4298      	cmp	r0, r3
    1968:	d106      	bne.n	1978 <serial_init+0x4c>
    196a:	4a50      	ldr	r2, [pc, #320]	; (1aac <serial_init+0x180>)
    196c:	f8d2 30c4 	ldr.w	r3, [r2, #196]	; 0xc4
    1970:	f043 7300 	orr.w	r3, r3, #33554432	; 0x2000000
    1974:	f8c2 30c4 	str.w	r3, [r2, #196]	; 0xc4
    1978:	2301      	movs	r3, #1
    197a:	7223      	strb	r3, [r4, #8]
    197c:	682b      	ldr	r3, [r5, #0]
    197e:	f04f 0800 	mov.w	r8, #0
    1982:	f8c3 8004 	str.w	r8, [r3, #4]
    1986:	f44f 5116 	mov.w	r1, #9600	; 0x2580
    198a:	4628      	mov	r0, r5
    198c:	f7ff fde0 	bl	1550 <serial_baud>
    1990:	682b      	ldr	r3, [r5, #0]
    1992:	2203      	movs	r2, #3
    1994:	731a      	strb	r2, [r3, #12]
    1996:	4941      	ldr	r1, [pc, #260]	; (1a9c <serial_init+0x170>)
    1998:	4638      	mov	r0, r7
    199a:	f7ff f973 	bl	c84 <pinmap_pinout>
    199e:	4940      	ldr	r1, [pc, #256]	; (1aa0 <serial_init+0x174>)
    19a0:	4630      	mov	r0, r6
    19a2:	f7ff f96f 	bl	c84 <pinmap_pinout>
    19a6:	1c7a      	adds	r2, r7, #1
    19a8:	d003      	beq.n	19b2 <serial_init+0x86>
    19aa:	4641      	mov	r1, r8
    19ac:	4638      	mov	r0, r7
    19ae:	f7ff fc73 	bl	1298 <pin_mode>
    19b2:	1c73      	adds	r3, r6, #1
    19b4:	d003      	beq.n	19be <serial_init+0x92>
    19b6:	4630      	mov	r0, r6
    19b8:	2100      	movs	r1, #0
    19ba:	f7ff fc6d 	bl	1298 <pin_mode>
    19be:	4b39      	ldr	r3, [pc, #228]	; (1aa4 <serial_init+0x178>)
    19c0:	429c      	cmp	r4, r3
    19c2:	d047      	beq.n	1a54 <serial_init+0x128>
    19c4:	d921      	bls.n	1a0a <serial_init+0xde>
    19c6:	4b38      	ldr	r3, [pc, #224]	; (1aa8 <serial_init+0x17c>)
    19c8:	429c      	cmp	r4, r3
    19ca:	d063      	beq.n	1a94 <serial_init+0x168>
    19cc:	f503 4380 	add.w	r3, r3, #16384	; 0x4000
    19d0:	429c      	cmp	r4, r3
    19d2:	d14a      	bne.n	1a6a <serial_init+0x13e>
    19d4:	2303      	movs	r3, #3
    19d6:	606b      	str	r3, [r5, #4]
    19d8:	4c35      	ldr	r4, [pc, #212]	; (1ab0 <serial_init+0x184>)
    19da:	ebc3 03c3 	rsb	r3, r3, r3, lsl #3
    19de:	f04f 36ff 	mov.w	r6, #4294967295
    19e2:	eb04 04c3 	add.w	r4, r4, r3, lsl #3
    19e6:	4628      	mov	r0, r5
    19e8:	4633      	mov	r3, r6
    19ea:	4632      	mov	r2, r6
    19ec:	6066      	str	r6, [r4, #4]
    19ee:	61e6      	str	r6, [r4, #28]
    19f0:	2100      	movs	r1, #0
    19f2:	e8bd 41f0 	ldmia.w	sp!, {r4, r5, r6, r7, r8, lr}
    19f6:	f7ff bf05 	b.w	1804 <serial_set_flow_control>
    19fa:	4a2c      	ldr	r2, [pc, #176]	; (1aac <serial_init+0x180>)
    19fc:	f8d2 30c4 	ldr.w	r3, [r2, #196]	; 0xc4
    1a00:	f043 7380 	orr.w	r3, r3, #16777216	; 0x1000000
    1a04:	f8c2 30c4 	str.w	r3, [r2, #196]	; 0xc4
    1a08:	e7b6      	b.n	1978 <serial_init+0x4c>
    1a0a:	f5a3 4380 	sub.w	r3, r3, #16384	; 0x4000
    1a0e:	429c      	cmp	r4, r3
    1a10:	d12b      	bne.n	1a6a <serial_init+0x13e>
    1a12:	4e27      	ldr	r6, [pc, #156]	; (1ab0 <serial_init+0x184>)
    1a14:	f04f 34ff 	mov.w	r4, #4294967295
    1a18:	2100      	movs	r1, #0
    1a1a:	6069      	str	r1, [r5, #4]
    1a1c:	4623      	mov	r3, r4
    1a1e:	4622      	mov	r2, r4
    1a20:	4628      	mov	r0, r5
    1a22:	6074      	str	r4, [r6, #4]
    1a24:	61f4      	str	r4, [r6, #28]
    1a26:	f7ff feed 	bl	1804 <serial_set_flow_control>
    1a2a:	4b22      	ldr	r3, [pc, #136]	; (1ab4 <serial_init+0x188>)
    1a2c:	2201      	movs	r2, #1
    1a2e:	601a      	str	r2, [r3, #0]
    1a30:	6828      	ldr	r0, [r5, #0]
    1a32:	6869      	ldr	r1, [r5, #4]
    1a34:	4b20      	ldr	r3, [pc, #128]	; (1ab8 <serial_init+0x18c>)
    1a36:	c303      	stmia	r3!, {r0, r1}
    1a38:	e8bd 81f0 	ldmia.w	sp!, {r4, r5, r6, r7, r8, pc}
    1a3c:	f5a3 4380 	sub.w	r3, r3, #16384	; 0x4000
    1a40:	4298      	cmp	r0, r3
    1a42:	d199      	bne.n	1978 <serial_init+0x4c>
    1a44:	4a19      	ldr	r2, [pc, #100]	; (1aac <serial_init+0x180>)
    1a46:	f8d2 30c4 	ldr.w	r3, [r2, #196]	; 0xc4
    1a4a:	f043 0308 	orr.w	r3, r3, #8
    1a4e:	f8c2 30c4 	str.w	r3, [r2, #196]	; 0xc4
    1a52:	e791      	b.n	1978 <serial_init+0x4c>
    1a54:	2301      	movs	r3, #1
    1a56:	606b      	str	r3, [r5, #4]
    1a58:	e7be      	b.n	19d8 <serial_init+0xac>
    1a5a:	4a14      	ldr	r2, [pc, #80]	; (1aac <serial_init+0x180>)
    1a5c:	f8d2 30c4 	ldr.w	r3, [r2, #196]	; 0xc4
    1a60:	f043 0310 	orr.w	r3, r3, #16
    1a64:	f8c2 30c4 	str.w	r3, [r2, #196]	; 0xc4
    1a68:	e786      	b.n	1978 <serial_init+0x4c>
    1a6a:	686e      	ldr	r6, [r5, #4]
    1a6c:	4b10      	ldr	r3, [pc, #64]	; (1ab0 <serial_init+0x184>)
    1a6e:	ebc6 06c6 	rsb	r6, r6, r6, lsl #3
    1a72:	f04f 37ff 	mov.w	r7, #4294967295
    1a76:	eb03 06c6 	add.w	r6, r3, r6, lsl #3
    1a7a:	463a      	mov	r2, r7
    1a7c:	463b      	mov	r3, r7
    1a7e:	2100      	movs	r1, #0
    1a80:	4628      	mov	r0, r5
    1a82:	6077      	str	r7, [r6, #4]
    1a84:	61f7      	str	r7, [r6, #28]
    1a86:	f7ff febd 	bl	1804 <serial_set_flow_control>
    1a8a:	4b0c      	ldr	r3, [pc, #48]	; (1abc <serial_init+0x190>)
    1a8c:	429c      	cmp	r4, r3
    1a8e:	d0cc      	beq.n	1a2a <serial_init+0xfe>
    1a90:	e8bd 81f0 	ldmia.w	sp!, {r4, r5, r6, r7, r8, pc}
    1a94:	2302      	movs	r3, #2
    1a96:	606b      	str	r3, [r5, #4]
    1a98:	e79e      	b.n	19d8 <serial_init+0xac>
    1a9a:	bf00      	nop
    1a9c:	00006c84 	.word	0x00006c84
    1aa0:	00006c18 	.word	0x00006c18
    1aa4:	40010000 	.word	0x40010000
    1aa8:	40098000 	.word	0x40098000
    1aac:	400fc000 	.word	0x400fc000
    1ab0:	100002dc 	.word	0x100002dc
    1ab4:	100002d4 	.word	0x100002d4
    1ab8:	100004d0 	.word	0x100004d0
    1abc:	4000c000 	.word	0x4000c000

00001ac0 <mbed::Serial::_getc()>:
    1ac0:	f000 bc2e 	b.w	2320 <mbed::SerialBase::_base_getc()>

00001ac4 <non-virtual thunk to mbed::Serial::_getc()>:
    1ac4:	f1a0 0040 	sub.w	r0, r0, #64	; 0x40
    1ac8:	f7ff bffa 	b.w	1ac0 <mbed::Serial::_getc()>

00001acc <mbed::Serial::_putc(int)>:
    1acc:	f000 bc2c 	b.w	2328 <mbed::SerialBase::_base_putc(int)>

00001ad0 <non-virtual thunk to mbed::Serial::_putc(int)>:
    1ad0:	f1a0 0040 	sub.w	r0, r0, #64	; 0x40
    1ad4:	f7ff bffa 	b.w	1acc <mbed::Serial::_putc(int)>

00001ad8 <mbed::Serial::Serial(PinName, PinName, char const*)>:
    1ad8:	b538      	push	{r3, r4, r5, lr}
    1ada:	4604      	mov	r4, r0
    1adc:	461d      	mov	r5, r3
    1ade:	f000 fbf9 	bl	22d4 <mbed::SerialBase::SerialBase(PinName, PinName)>
    1ae2:	4629      	mov	r1, r5
    1ae4:	f104 0040 	add.w	r0, r4, #64	; 0x40
    1ae8:	f000 faea 	bl	20c0 <mbed::Stream::Stream(char const*)>
    1aec:	4b05      	ldr	r3, [pc, #20]	; (1b04 <mbed::Serial::Serial(PinName, PinName, char const*)+0x2c>)
    1aee:	4620      	mov	r0, r4
    1af0:	f103 0108 	add.w	r1, r3, #8
    1af4:	f103 0220 	add.w	r2, r3, #32
    1af8:	3354      	adds	r3, #84	; 0x54
    1afa:	6021      	str	r1, [r4, #0]
    1afc:	6422      	str	r2, [r4, #64]	; 0x40
    1afe:	6463      	str	r3, [r4, #68]	; 0x44
    1b00:	bd38      	pop	{r3, r4, r5, pc}
    1b02:	bf00      	nop
    1b04:	00006d14 	.word	0x00006d14

00001b08 <mbed::I2C::I2C(PinName, PinName)>:
    1b08:	b538      	push	{r3, r4, r5, lr}
    1b0a:	4604      	mov	r4, r0
    1b0c:	4b04      	ldr	r3, [pc, #16]	; (1b20 <mbed::I2C::I2C(PinName, PinName)+0x18>)
    1b0e:	2500      	movs	r5, #0
    1b10:	6005      	str	r5, [r0, #0]
    1b12:	6043      	str	r3, [r0, #4]
    1b14:	f7ff fa24 	bl	f60 <i2c_init>
    1b18:	4b02      	ldr	r3, [pc, #8]	; (1b24 <mbed::I2C::I2C(PinName, PinName)+0x1c>)
    1b1a:	4620      	mov	r0, r4
    1b1c:	601c      	str	r4, [r3, #0]
    1b1e:	bd38      	pop	{r3, r4, r5, pc}
    1b20:	000186a0 	.word	0x000186a0
    1b24:	100003bc 	.word	0x100003bc

00001b28 <mbed::I2C::frequency(int)>:
    1b28:	b510      	push	{r4, lr}
    1b2a:	4604      	mov	r4, r0
    1b2c:	6041      	str	r1, [r0, #4]
    1b2e:	f7ff fa71 	bl	1014 <i2c_frequency>
    1b32:	4b01      	ldr	r3, [pc, #4]	; (1b38 <mbed::I2C::frequency(int)+0x10>)
    1b34:	601c      	str	r4, [r3, #0]
    1b36:	bd10      	pop	{r4, pc}
    1b38:	100003bc 	.word	0x100003bc

00001b3c <mbed::I2C::write(int, char const*, int, bool)>:
    1b3c:	e92d 43f0 	stmdb	sp!, {r4, r5, r6, r7, r8, r9, lr}
    1b40:	4f0e      	ldr	r7, [pc, #56]	; (1b7c <mbed::I2C::write(int, char const*, int, bool)+0x40>)
    1b42:	4688      	mov	r8, r1
    1b44:	6839      	ldr	r1, [r7, #0]
    1b46:	b083      	sub	sp, #12
    1b48:	4288      	cmp	r0, r1
    1b4a:	4604      	mov	r4, r0
    1b4c:	4691      	mov	r9, r2
    1b4e:	461e      	mov	r6, r3
    1b50:	f89d 5028 	ldrb.w	r5, [sp, #40]	; 0x28
    1b54:	d003      	beq.n	1b5e <mbed::I2C::write(int, char const*, int, bool)+0x22>
    1b56:	6841      	ldr	r1, [r0, #4]
    1b58:	f7ff fa5c 	bl	1014 <i2c_frequency>
    1b5c:	603c      	str	r4, [r7, #0]
    1b5e:	f085 0501 	eor.w	r5, r5, #1
    1b62:	9500      	str	r5, [sp, #0]
    1b64:	464a      	mov	r2, r9
    1b66:	4641      	mov	r1, r8
    1b68:	4620      	mov	r0, r4
    1b6a:	4633      	mov	r3, r6
    1b6c:	f7ff fb04 	bl	1178 <i2c_write>
    1b70:	1a30      	subs	r0, r6, r0
    1b72:	bf18      	it	ne
    1b74:	2001      	movne	r0, #1
    1b76:	b003      	add	sp, #12
    1b78:	e8bd 83f0 	ldmia.w	sp!, {r4, r5, r6, r7, r8, r9, pc}
    1b7c:	100003bc 	.word	0x100003bc

00001b80 <mbed::I2C::read(int, char*, int, bool)>:
    1b80:	e92d 43f0 	stmdb	sp!, {r4, r5, r6, r7, r8, r9, lr}
    1b84:	4f0e      	ldr	r7, [pc, #56]	; (1bc0 <mbed::I2C::read(int, char*, int, bool)+0x40>)
    1b86:	4688      	mov	r8, r1
    1b88:	6839      	ldr	r1, [r7, #0]
    1b8a:	b083      	sub	sp, #12
    1b8c:	4288      	cmp	r0, r1
    1b8e:	4604      	mov	r4, r0
    1b90:	4691      	mov	r9, r2
    1b92:	461e      	mov	r6, r3
    1b94:	f89d 5028 	ldrb.w	r5, [sp, #40]	; 0x28
    1b98:	d003      	beq.n	1ba2 <mbed::I2C::read(int, char*, int, bool)+0x22>
    1b9a:	6841      	ldr	r1, [r0, #4]
    1b9c:	f7ff fa3a 	bl	1014 <i2c_frequency>
    1ba0:	603c      	str	r4, [r7, #0]
    1ba2:	f085 0501 	eor.w	r5, r5, #1
    1ba6:	9500      	str	r5, [sp, #0]
    1ba8:	464a      	mov	r2, r9
    1baa:	4641      	mov	r1, r8
    1bac:	4620      	mov	r0, r4
    1bae:	4633      	mov	r3, r6
    1bb0:	f7ff fa3c 	bl	102c <i2c_read>
    1bb4:	1a30      	subs	r0, r6, r0
    1bb6:	bf18      	it	ne
    1bb8:	2001      	movne	r0, #1
    1bba:	b003      	add	sp, #12
    1bbc:	e8bd 83f0 	ldmia.w	sp!, {r4, r5, r6, r7, r8, r9, pc}
    1bc0:	100003bc 	.word	0x100003bc

00001bc4 <mbed::FileHandle::flen()>:
    1bc4:	6803      	ldr	r3, [r0, #0]
    1bc6:	b570      	push	{r4, r5, r6, lr}
    1bc8:	2201      	movs	r2, #1
    1bca:	691b      	ldr	r3, [r3, #16]
    1bcc:	2100      	movs	r1, #0
    1bce:	4604      	mov	r4, r0
    1bd0:	4798      	blx	r3
    1bd2:	4606      	mov	r6, r0
    1bd4:	3001      	adds	r0, #1
    1bd6:	d00e      	beq.n	1bf6 <mbed::FileHandle::flen()+0x32>
    1bd8:	6823      	ldr	r3, [r4, #0]
    1bda:	2202      	movs	r2, #2
    1bdc:	691b      	ldr	r3, [r3, #16]
    1bde:	2100      	movs	r1, #0
    1be0:	4620      	mov	r0, r4
    1be2:	4798      	blx	r3
    1be4:	6823      	ldr	r3, [r4, #0]
    1be6:	4605      	mov	r5, r0
    1be8:	4631      	mov	r1, r6
    1bea:	691b      	ldr	r3, [r3, #16]
    1bec:	4620      	mov	r0, r4
    1bee:	2200      	movs	r2, #0
    1bf0:	4798      	blx	r3
    1bf2:	4628      	mov	r0, r5
    1bf4:	bd70      	pop	{r4, r5, r6, pc}
    1bf6:	4630      	mov	r0, r6
    1bf8:	bd70      	pop	{r4, r5, r6, pc}
    1bfa:	bf00      	nop

00001bfc <init_serial() [clone .part.0]>:
    1bfc:	4a02      	ldr	r2, [pc, #8]	; (1c08 <init_serial() [clone .part.0]+0xc>)
    1bfe:	4903      	ldr	r1, [pc, #12]	; (1c0c <init_serial() [clone .part.0]+0x10>)
    1c00:	4803      	ldr	r0, [pc, #12]	; (1c10 <init_serial() [clone .part.0]+0x14>)
    1c02:	f7ff be93 	b.w	192c <serial_init>
    1c06:	bf00      	nop
    1c08:	2009c003 	.word	0x2009c003
    1c0c:	2009c002 	.word	0x2009c002
    1c10:	100004d0 	.word	0x100004d0

00001c14 <mbed::FileHandle::~FileHandle()>:
    1c14:	4a07      	ldr	r2, [pc, #28]	; (1c34 <mbed::FileHandle::~FileHandle()+0x20>)
    1c16:	4b08      	ldr	r3, [pc, #32]	; (1c38 <mbed::FileHandle::~FileHandle()+0x24>)
    1c18:	b410      	push	{r4}
    1c1a:	6002      	str	r2, [r0, #0]
    1c1c:	f503 7180 	add.w	r1, r3, #256	; 0x100
    1c20:	2400      	movs	r4, #0
    1c22:	f853 2f04 	ldr.w	r2, [r3, #4]!
    1c26:	4290      	cmp	r0, r2
    1c28:	bf08      	it	eq
    1c2a:	601c      	streq	r4, [r3, #0]
    1c2c:	428b      	cmp	r3, r1
    1c2e:	d1f8      	bne.n	1c22 <mbed::FileHandle::~FileHandle()+0xe>
    1c30:	bc10      	pop	{r4}
    1c32:	4770      	bx	lr
    1c34:	00006d90 	.word	0x00006d90
    1c38:	100003bc 	.word	0x100003bc

00001c3c <_open>:
    1c3c:	b5f0      	push	{r4, r5, r6, r7, lr}
    1c3e:	460e      	mov	r6, r1
    1c40:	b085      	sub	sp, #20
    1c42:	4937      	ldr	r1, [pc, #220]	; (1d20 <_open+0xe4>)
    1c44:	4605      	mov	r5, r0
    1c46:	f002 fee2 	bl	4a0e <strcmp>
    1c4a:	b928      	cbnz	r0, 1c58 <_open+0x1c>
    1c4c:	4b35      	ldr	r3, [pc, #212]	; (1d24 <_open+0xe8>)
    1c4e:	681b      	ldr	r3, [r3, #0]
    1c50:	2b00      	cmp	r3, #0
    1c52:	d043      	beq.n	1cdc <_open+0xa0>
    1c54:	b005      	add	sp, #20
    1c56:	bdf0      	pop	{r4, r5, r6, r7, pc}
    1c58:	4933      	ldr	r1, [pc, #204]	; (1d28 <_open+0xec>)
    1c5a:	4628      	mov	r0, r5
    1c5c:	f002 fed7 	bl	4a0e <strcmp>
    1c60:	b930      	cbnz	r0, 1c70 <_open+0x34>
    1c62:	4b30      	ldr	r3, [pc, #192]	; (1d24 <_open+0xe8>)
    1c64:	681b      	ldr	r3, [r3, #0]
    1c66:	2b00      	cmp	r3, #0
    1c68:	d043      	beq.n	1cf2 <_open+0xb6>
    1c6a:	2001      	movs	r0, #1
    1c6c:	b005      	add	sp, #20
    1c6e:	bdf0      	pop	{r4, r5, r6, r7, pc}
    1c70:	492e      	ldr	r1, [pc, #184]	; (1d2c <_open+0xf0>)
    1c72:	4628      	mov	r0, r5
    1c74:	f002 fecb 	bl	4a0e <strcmp>
    1c78:	2800      	cmp	r0, #0
    1c7a:	d035      	beq.n	1ce8 <_open+0xac>
    1c7c:	4b2c      	ldr	r3, [pc, #176]	; (1d30 <_open+0xf4>)
    1c7e:	2400      	movs	r4, #0
    1c80:	e002      	b.n	1c88 <_open+0x4c>
    1c82:	3401      	adds	r4, #1
    1c84:	2c40      	cmp	r4, #64	; 0x40
    1c86:	d03d      	beq.n	1d04 <_open+0xc8>
    1c88:	f853 2f04 	ldr.w	r2, [r3, #4]!
    1c8c:	2a00      	cmp	r2, #0
    1c8e:	d1f8      	bne.n	1c82 <_open+0x46>
    1c90:	782b      	ldrb	r3, [r5, #0]
    1c92:	2b3a      	cmp	r3, #58	; 0x3a
    1c94:	d03d      	beq.n	1d12 <_open+0xd6>
    1c96:	4629      	mov	r1, r5
    1c98:	a802      	add	r0, sp, #8
    1c9a:	f000 f91f 	bl	1edc <mbed::FilePath::FilePath(char const*)>
    1c9e:	a802      	add	r0, sp, #8
    1ca0:	f000 f972 	bl	1f88 <mbed::FilePath::exists()>
    1ca4:	b370      	cbz	r0, 1d04 <_open+0xc8>
    1ca6:	a802      	add	r0, sp, #8
    1ca8:	f000 f954 	bl	1f54 <mbed::FilePath::isFile()>
    1cac:	bb28      	cbnz	r0, 1cfa <_open+0xbe>
    1cae:	a802      	add	r0, sp, #8
    1cb0:	f000 f940 	bl	1f34 <mbed::FilePath::fileSystem()>
    1cb4:	4605      	mov	r5, r0
    1cb6:	b328      	cbz	r0, 1d04 <_open+0xc8>
    1cb8:	6803      	ldr	r3, [r0, #0]
    1cba:	a802      	add	r0, sp, #8
    1cbc:	689f      	ldr	r7, [r3, #8]
    1cbe:	f000 f937 	bl	1f30 <mbed::FilePath::fileName()>
    1cc2:	f426 3280 	bic.w	r2, r6, #65536	; 0x10000
    1cc6:	4601      	mov	r1, r0
    1cc8:	4628      	mov	r0, r5
    1cca:	47b8      	blx	r7
    1ccc:	4603      	mov	r3, r0
    1cce:	b1cb      	cbz	r3, 1d04 <_open+0xc8>
    1cd0:	4a18      	ldr	r2, [pc, #96]	; (1d34 <_open+0xf8>)
    1cd2:	1ce0      	adds	r0, r4, #3
    1cd4:	f842 3024 	str.w	r3, [r2, r4, lsl #2]
    1cd8:	b005      	add	sp, #20
    1cda:	bdf0      	pop	{r4, r5, r6, r7, pc}
    1cdc:	9001      	str	r0, [sp, #4]
    1cde:	f7ff ff8d 	bl	1bfc <init_serial() [clone .part.0]>
    1ce2:	9801      	ldr	r0, [sp, #4]
    1ce4:	b005      	add	sp, #20
    1ce6:	bdf0      	pop	{r4, r5, r6, r7, pc}
    1ce8:	4b0e      	ldr	r3, [pc, #56]	; (1d24 <_open+0xe8>)
    1cea:	681b      	ldr	r3, [r3, #0]
    1cec:	b16b      	cbz	r3, 1d0a <_open+0xce>
    1cee:	2002      	movs	r0, #2
    1cf0:	e7b0      	b.n	1c54 <_open+0x18>
    1cf2:	f7ff ff83 	bl	1bfc <init_serial() [clone .part.0]>
    1cf6:	2001      	movs	r0, #1
    1cf8:	e7ac      	b.n	1c54 <_open+0x18>
    1cfa:	a802      	add	r0, sp, #8
    1cfc:	f000 f934 	bl	1f68 <mbed::FilePath::file()>
    1d00:	4603      	mov	r3, r0
    1d02:	e7e4      	b.n	1cce <_open+0x92>
    1d04:	f04f 30ff 	mov.w	r0, #4294967295
    1d08:	e7a4      	b.n	1c54 <_open+0x18>
    1d0a:	f7ff ff77 	bl	1bfc <init_serial() [clone .part.0]>
    1d0e:	2002      	movs	r0, #2
    1d10:	e7a0      	b.n	1c54 <_open+0x18>
    1d12:	4628      	mov	r0, r5
    1d14:	aa02      	add	r2, sp, #8
    1d16:	4908      	ldr	r1, [pc, #32]	; (1d38 <_open+0xfc>)
    1d18:	f002 fe0a 	bl	4930 <siscanf>
    1d1c:	9b02      	ldr	r3, [sp, #8]
    1d1e:	e7d6      	b.n	1cce <_open+0x92>
    1d20:	00006d70 	.word	0x00006d70
    1d24:	100002d4 	.word	0x100002d4
    1d28:	00006d80 	.word	0x00006d80
    1d2c:	00006d78 	.word	0x00006d78
    1d30:	100003bc 	.word	0x100003bc
    1d34:	100003c0 	.word	0x100003c0
    1d38:	00006db4 	.word	0x00006db4

00001d3c <_close>:
    1d3c:	2802      	cmp	r0, #2
    1d3e:	dd0a      	ble.n	1d56 <_close+0x1a>
    1d40:	4a07      	ldr	r2, [pc, #28]	; (1d60 <_close+0x24>)
    1d42:	1ec3      	subs	r3, r0, #3
    1d44:	f852 0023 	ldr.w	r0, [r2, r3, lsl #2]
    1d48:	2100      	movs	r1, #0
    1d4a:	f842 1023 	str.w	r1, [r2, r3, lsl #2]
    1d4e:	b120      	cbz	r0, 1d5a <_close+0x1e>
    1d50:	6803      	ldr	r3, [r0, #0]
    1d52:	685b      	ldr	r3, [r3, #4]
    1d54:	4718      	bx	r3
    1d56:	2000      	movs	r0, #0
    1d58:	4770      	bx	lr
    1d5a:	f04f 30ff 	mov.w	r0, #4294967295
    1d5e:	4770      	bx	lr
    1d60:	100003c0 	.word	0x100003c0

00001d64 <_write>:
    1d64:	2802      	cmp	r0, #2
    1d66:	dc12      	bgt.n	1d8e <_write+0x2a>
    1d68:	4b0e      	ldr	r3, [pc, #56]	; (1da4 <_write+0x40>)
    1d6a:	b570      	push	{r4, r5, r6, lr}
    1d6c:	681b      	ldr	r3, [r3, #0]
    1d6e:	460c      	mov	r4, r1
    1d70:	4616      	mov	r6, r2
    1d72:	b90b      	cbnz	r3, 1d78 <_write+0x14>
    1d74:	f7ff ff42 	bl	1bfc <init_serial() [clone .part.0]>
    1d78:	19a5      	adds	r5, r4, r6
    1d7a:	b136      	cbz	r6, 1d8a <_write+0x26>
    1d7c:	f814 1b01 	ldrb.w	r1, [r4], #1
    1d80:	4809      	ldr	r0, [pc, #36]	; (1da8 <_write+0x44>)
    1d82:	f7ff fd25 	bl	17d0 <serial_putc>
    1d86:	42ac      	cmp	r4, r5
    1d88:	d1f8      	bne.n	1d7c <_write+0x18>
    1d8a:	4630      	mov	r0, r6
    1d8c:	bd70      	pop	{r4, r5, r6, pc}
    1d8e:	4b07      	ldr	r3, [pc, #28]	; (1dac <_write+0x48>)
    1d90:	3803      	subs	r0, #3
    1d92:	f853 0020 	ldr.w	r0, [r3, r0, lsl #2]
    1d96:	b110      	cbz	r0, 1d9e <_write+0x3a>
    1d98:	6803      	ldr	r3, [r0, #0]
    1d9a:	681b      	ldr	r3, [r3, #0]
    1d9c:	4718      	bx	r3
    1d9e:	f04f 30ff 	mov.w	r0, #4294967295
    1da2:	4770      	bx	lr
    1da4:	100002d4 	.word	0x100002d4
    1da8:	100004d0 	.word	0x100004d0
    1dac:	100003c0 	.word	0x100003c0

00001db0 <_read>:
    1db0:	2802      	cmp	r0, #2
    1db2:	dc0d      	bgt.n	1dd0 <_read+0x20>
    1db4:	4b0c      	ldr	r3, [pc, #48]	; (1de8 <_read+0x38>)
    1db6:	b510      	push	{r4, lr}
    1db8:	681b      	ldr	r3, [r3, #0]
    1dba:	460c      	mov	r4, r1
    1dbc:	b90b      	cbnz	r3, 1dc2 <_read+0x12>
    1dbe:	f7ff ff1d 	bl	1bfc <init_serial() [clone .part.0]>
    1dc2:	480a      	ldr	r0, [pc, #40]	; (1dec <_read+0x3c>)
    1dc4:	f7ff fcbc 	bl	1740 <serial_getc>
    1dc8:	2301      	movs	r3, #1
    1dca:	7020      	strb	r0, [r4, #0]
    1dcc:	4618      	mov	r0, r3
    1dce:	bd10      	pop	{r4, pc}
    1dd0:	4b07      	ldr	r3, [pc, #28]	; (1df0 <_read+0x40>)
    1dd2:	3803      	subs	r0, #3
    1dd4:	f853 0020 	ldr.w	r0, [r3, r0, lsl #2]
    1dd8:	b110      	cbz	r0, 1de0 <_read+0x30>
    1dda:	6803      	ldr	r3, [r0, #0]
    1ddc:	689b      	ldr	r3, [r3, #8]
    1dde:	4718      	bx	r3
    1de0:	f04f 33ff 	mov.w	r3, #4294967295
    1de4:	4618      	mov	r0, r3
    1de6:	4770      	bx	lr
    1de8:	100002d4 	.word	0x100002d4
    1dec:	100004d0 	.word	0x100004d0
    1df0:	100003c0 	.word	0x100003c0

00001df4 <_isatty>:
    1df4:	2802      	cmp	r0, #2
    1df6:	dd07      	ble.n	1e08 <_isatty+0x14>
    1df8:	4b06      	ldr	r3, [pc, #24]	; (1e14 <_isatty+0x20>)
    1dfa:	3803      	subs	r0, #3
    1dfc:	f853 0020 	ldr.w	r0, [r3, r0, lsl #2]
    1e00:	b120      	cbz	r0, 1e0c <_isatty+0x18>
    1e02:	6803      	ldr	r3, [r0, #0]
    1e04:	68db      	ldr	r3, [r3, #12]
    1e06:	4718      	bx	r3
    1e08:	2001      	movs	r0, #1
    1e0a:	4770      	bx	lr
    1e0c:	f04f 30ff 	mov.w	r0, #4294967295
    1e10:	4770      	bx	lr
    1e12:	bf00      	nop
    1e14:	100003c0 	.word	0x100003c0

00001e18 <_lseek>:
    1e18:	2802      	cmp	r0, #2
    1e1a:	dd07      	ble.n	1e2c <_lseek+0x14>
    1e1c:	4b06      	ldr	r3, [pc, #24]	; (1e38 <_lseek+0x20>)
    1e1e:	3803      	subs	r0, #3
    1e20:	f853 0020 	ldr.w	r0, [r3, r0, lsl #2]
    1e24:	b120      	cbz	r0, 1e30 <_lseek+0x18>
    1e26:	6803      	ldr	r3, [r0, #0]
    1e28:	691b      	ldr	r3, [r3, #16]
    1e2a:	4718      	bx	r3
    1e2c:	2000      	movs	r0, #0
    1e2e:	4770      	bx	lr
    1e30:	f04f 30ff 	mov.w	r0, #4294967295
    1e34:	4770      	bx	lr
    1e36:	bf00      	nop
    1e38:	100003c0 	.word	0x100003c0

00001e3c <_fstat>:
    1e3c:	2802      	cmp	r0, #2
    1e3e:	b508      	push	{r3, lr}
    1e40:	d804      	bhi.n	1e4c <_fstat+0x10>
    1e42:	f44f 5300 	mov.w	r3, #8192	; 0x2000
    1e46:	604b      	str	r3, [r1, #4]
    1e48:	2000      	movs	r0, #0
    1e4a:	bd08      	pop	{r3, pc}
    1e4c:	f001 f8a2 	bl	2f94 <__errno>
    1e50:	2309      	movs	r3, #9
    1e52:	6003      	str	r3, [r0, #0]
    1e54:	f04f 30ff 	mov.w	r0, #4294967295
    1e58:	bd08      	pop	{r3, pc}
    1e5a:	bf00      	nop

00001e5c <mbed_main>:
    1e5c:	4770      	bx	lr
    1e5e:	bf00      	nop

00001e60 <mbed_sdk_init>:
    1e60:	4770      	bx	lr
    1e62:	bf00      	nop

00001e64 <__wrap_main>:
    1e64:	b508      	push	{r3, lr}
    1e66:	f7ff fffb 	bl	1e60 <mbed_sdk_init>
    1e6a:	f7ff fff7 	bl	1e5c <mbed_main>
    1e6e:	e8bd 4008 	ldmia.w	sp!, {r3, lr}
    1e72:	f7fe baa1 	b.w	3b8 <main>
    1e76:	bf00      	nop

00001e78 <_sbrk>:
    1e78:	4a07      	ldr	r2, [pc, #28]	; (1e98 <_sbrk+0x20>)
    1e7a:	6813      	ldr	r3, [r2, #0]
    1e7c:	1819      	adds	r1, r3, r0
    1e7e:	f3ef 8008 	mrs	r0, MSP
    1e82:	4281      	cmp	r1, r0
    1e84:	d202      	bcs.n	1e8c <_sbrk+0x14>
    1e86:	4618      	mov	r0, r3
    1e88:	6011      	str	r1, [r2, #0]
    1e8a:	4770      	bx	lr
    1e8c:	4b03      	ldr	r3, [pc, #12]	; (1e9c <_sbrk+0x24>)
    1e8e:	220c      	movs	r2, #12
    1e90:	601a      	str	r2, [r3, #0]
    1e92:	f04f 30ff 	mov.w	r0, #4294967295
    1e96:	4770      	bx	lr
    1e98:	100000d0 	.word	0x100000d0
    1e9c:	100004d8 	.word	0x100004d8

00001ea0 <_exit>:
    1ea0:	4c0b      	ldr	r4, [pc, #44]	; (1ed0 <_exit+0x30>)
    1ea2:	b508      	push	{r3, lr}
    1ea4:	6823      	ldr	r3, [r4, #0]
    1ea6:	4605      	mov	r5, r0
    1ea8:	6898      	ldr	r0, [r3, #8]
    1eaa:	f001 f997 	bl	31dc <fflush>
    1eae:	6823      	ldr	r3, [r4, #0]
    1eb0:	68d8      	ldr	r0, [r3, #12]
    1eb2:	f001 f993 	bl	31dc <fflush>
    1eb6:	f7fe fe3f 	bl	b38 <mbed_interface_connected>
    1eba:	b920      	cbnz	r0, 1ec6 <_exit+0x26>
    1ebc:	b905      	cbnz	r5, 1ec0 <_exit+0x20>
    1ebe:	e7fe      	b.n	1ebe <_exit+0x1e>
    1ec0:	f7fe fea6 	bl	c10 <mbed_die>
    1ec4:	e7fb      	b.n	1ebe <_exit+0x1e>
    1ec6:	f7fe fded 	bl	aa4 <semihost_exit>
    1eca:	2d00      	cmp	r5, #0
    1ecc:	d0f7      	beq.n	1ebe <_exit+0x1e>
    1ece:	e7f7      	b.n	1ec0 <_exit+0x20>
    1ed0:	10000134 	.word	0x10000134

00001ed4 <mbed::mbed_set_unbuffered_stream(__sFILE*)>:
    1ed4:	2100      	movs	r1, #0
    1ed6:	f002 bc77 	b.w	47c8 <setbuf>
    1eda:	bf00      	nop

00001edc <mbed::FilePath::FilePath(char const*)>:
    1edc:	b538      	push	{r3, r4, r5, lr}
    1ede:	2300      	movs	r3, #0
    1ee0:	6003      	str	r3, [r0, #0]
    1ee2:	6043      	str	r3, [r0, #4]
    1ee4:	780a      	ldrb	r2, [r1, #0]
    1ee6:	4604      	mov	r4, r0
    1ee8:	2a2f      	cmp	r2, #47	; 0x2f
    1eea:	d001      	beq.n	1ef0 <mbed::FilePath::FilePath(char const*)+0x14>
    1eec:	4620      	mov	r0, r4
    1eee:	bd38      	pop	{r3, r4, r5, pc}
    1ef0:	784a      	ldrb	r2, [r1, #1]
    1ef2:	2a00      	cmp	r2, #0
    1ef4:	d0fa      	beq.n	1eec <mbed::FilePath::FilePath(char const*)+0x10>
    1ef6:	1c48      	adds	r0, r1, #1
    1ef8:	6020      	str	r0, [r4, #0]
    1efa:	784d      	ldrb	r5, [r1, #1]
    1efc:	2d2f      	cmp	r5, #47	; 0x2f
    1efe:	d013      	beq.n	1f28 <mbed::FilePath::FilePath(char const*)+0x4c>
    1f00:	b185      	cbz	r5, 1f24 <mbed::FilePath::FilePath(char const*)+0x48>
    1f02:	4603      	mov	r3, r0
    1f04:	e000      	b.n	1f08 <mbed::FilePath::FilePath(char const*)+0x2c>
    1f06:	b16a      	cbz	r2, 1f24 <mbed::FilePath::FilePath(char const*)+0x48>
    1f08:	1a5d      	subs	r5, r3, r1
    1f0a:	3301      	adds	r3, #1
    1f0c:	6023      	str	r3, [r4, #0]
    1f0e:	781a      	ldrb	r2, [r3, #0]
    1f10:	2a2f      	cmp	r2, #47	; 0x2f
    1f12:	d1f8      	bne.n	1f06 <mbed::FilePath::FilePath(char const*)+0x2a>
    1f14:	4629      	mov	r1, r5
    1f16:	3301      	adds	r3, #1
    1f18:	6023      	str	r3, [r4, #0]
    1f1a:	f000 f883 	bl	2024 <mbed::FileBase::lookup(char const*, unsigned int)>
    1f1e:	6060      	str	r0, [r4, #4]
    1f20:	4620      	mov	r0, r4
    1f22:	bd38      	pop	{r3, r4, r5, pc}
    1f24:	4629      	mov	r1, r5
    1f26:	e7f8      	b.n	1f1a <mbed::FilePath::FilePath(char const*)+0x3e>
    1f28:	4619      	mov	r1, r3
    1f2a:	4603      	mov	r3, r0
    1f2c:	e7f3      	b.n	1f16 <mbed::FilePath::FilePath(char const*)+0x3a>
    1f2e:	bf00      	nop

00001f30 <mbed::FilePath::fileName()>:
    1f30:	6800      	ldr	r0, [r0, #0]
    1f32:	4770      	bx	lr

00001f34 <mbed::FilePath::fileSystem()>:
    1f34:	6843      	ldr	r3, [r0, #4]
    1f36:	b143      	cbz	r3, 1f4a <mbed::FilePath::fileSystem()+0x16>
    1f38:	b510      	push	{r4, lr}
    1f3a:	4604      	mov	r4, r0
    1f3c:	4618      	mov	r0, r3
    1f3e:	f000 f88b 	bl	2058 <mbed::FileBase::getPathType()>
    1f42:	2801      	cmp	r0, #1
    1f44:	d103      	bne.n	1f4e <mbed::FilePath::fileSystem()+0x1a>
    1f46:	6860      	ldr	r0, [r4, #4]
    1f48:	bd10      	pop	{r4, pc}
    1f4a:	2000      	movs	r0, #0
    1f4c:	4770      	bx	lr
    1f4e:	2000      	movs	r0, #0
    1f50:	bd10      	pop	{r4, pc}
    1f52:	bf00      	nop

00001f54 <mbed::FilePath::isFile()>:
    1f54:	6840      	ldr	r0, [r0, #4]
    1f56:	b130      	cbz	r0, 1f66 <mbed::FilePath::isFile()+0x12>
    1f58:	b508      	push	{r3, lr}
    1f5a:	f000 f87d 	bl	2058 <mbed::FileBase::getPathType()>
    1f5e:	fab0 f080 	clz	r0, r0
    1f62:	0940      	lsrs	r0, r0, #5
    1f64:	bd08      	pop	{r3, pc}
    1f66:	4770      	bx	lr

00001f68 <mbed::FilePath::file()>:
    1f68:	6843      	ldr	r3, [r0, #4]
    1f6a:	b14b      	cbz	r3, 1f80 <mbed::FilePath::file()+0x18>
    1f6c:	b510      	push	{r4, lr}
    1f6e:	4604      	mov	r4, r0
    1f70:	4618      	mov	r0, r3
    1f72:	f000 f871 	bl	2058 <mbed::FileBase::getPathType()>
    1f76:	b928      	cbnz	r0, 1f84 <mbed::FilePath::file()+0x1c>
    1f78:	6860      	ldr	r0, [r4, #4]
    1f7a:	b118      	cbz	r0, 1f84 <mbed::FilePath::file()+0x1c>
    1f7c:	3804      	subs	r0, #4
    1f7e:	bd10      	pop	{r4, pc}
    1f80:	2000      	movs	r0, #0
    1f82:	4770      	bx	lr
    1f84:	2000      	movs	r0, #0
    1f86:	bd10      	pop	{r4, pc}

00001f88 <mbed::FilePath::exists()>:
    1f88:	6840      	ldr	r0, [r0, #4]
    1f8a:	3000      	adds	r0, #0
    1f8c:	bf18      	it	ne
    1f8e:	2001      	movne	r0, #1
    1f90:	4770      	bx	lr
    1f92:	bf00      	nop

00001f94 <mbed::FileBase::~FileBase()>:
    1f94:	4a09      	ldr	r2, [pc, #36]	; (1fbc <mbed::FileBase::~FileBase()+0x28>)
    1f96:	6883      	ldr	r3, [r0, #8]
    1f98:	6002      	str	r2, [r0, #0]
    1f9a:	b153      	cbz	r3, 1fb2 <mbed::FileBase::~FileBase()+0x1e>
    1f9c:	4b08      	ldr	r3, [pc, #32]	; (1fc0 <mbed::FileBase::~FileBase()+0x2c>)
    1f9e:	681a      	ldr	r2, [r3, #0]
    1fa0:	4290      	cmp	r0, r2
    1fa2:	d101      	bne.n	1fa8 <mbed::FileBase::~FileBase()+0x14>
    1fa4:	e006      	b.n	1fb4 <mbed::FileBase::~FileBase()+0x20>
    1fa6:	461a      	mov	r2, r3
    1fa8:	6853      	ldr	r3, [r2, #4]
    1faa:	4298      	cmp	r0, r3
    1fac:	d1fb      	bne.n	1fa6 <mbed::FileBase::~FileBase()+0x12>
    1fae:	6843      	ldr	r3, [r0, #4]
    1fb0:	6053      	str	r3, [r2, #4]
    1fb2:	4770      	bx	lr
    1fb4:	6842      	ldr	r2, [r0, #4]
    1fb6:	601a      	str	r2, [r3, #0]
    1fb8:	4770      	bx	lr
    1fba:	bf00      	nop
    1fbc:	00006dcc 	.word	0x00006dcc
    1fc0:	100004c0 	.word	0x100004c0

00001fc4 <mbed::FileBase::~FileBase()>:
    1fc4:	4a0c      	ldr	r2, [pc, #48]	; (1ff8 <mbed::FileBase::~FileBase()+0x34>)
    1fc6:	6883      	ldr	r3, [r0, #8]
    1fc8:	b510      	push	{r4, lr}
    1fca:	4604      	mov	r4, r0
    1fcc:	6002      	str	r2, [r0, #0]
    1fce:	b153      	cbz	r3, 1fe6 <mbed::FileBase::~FileBase()+0x22>
    1fd0:	4b0a      	ldr	r3, [pc, #40]	; (1ffc <mbed::FileBase::~FileBase()+0x38>)
    1fd2:	681a      	ldr	r2, [r3, #0]
    1fd4:	4290      	cmp	r0, r2
    1fd6:	d101      	bne.n	1fdc <mbed::FileBase::~FileBase()+0x18>
    1fd8:	e00a      	b.n	1ff0 <mbed::FileBase::~FileBase()+0x2c>
    1fda:	461a      	mov	r2, r3
    1fdc:	6853      	ldr	r3, [r2, #4]
    1fde:	429c      	cmp	r4, r3
    1fe0:	d1fb      	bne.n	1fda <mbed::FileBase::~FileBase()+0x16>
    1fe2:	6863      	ldr	r3, [r4, #4]
    1fe4:	6053      	str	r3, [r2, #4]
    1fe6:	4620      	mov	r0, r4
    1fe8:	f000 f9f3 	bl	23d2 <operator delete(void*)>
    1fec:	4620      	mov	r0, r4
    1fee:	bd10      	pop	{r4, pc}
    1ff0:	6842      	ldr	r2, [r0, #4]
    1ff2:	601a      	str	r2, [r3, #0]
    1ff4:	e7f7      	b.n	1fe6 <mbed::FileBase::~FileBase()+0x22>
    1ff6:	bf00      	nop
    1ff8:	00006dcc 	.word	0x00006dcc
    1ffc:	100004c0 	.word	0x100004c0

00002000 <mbed::FileBase::FileBase(char const*, mbed::PathType)>:
    2000:	b410      	push	{r4}
    2002:	4c06      	ldr	r4, [pc, #24]	; (201c <mbed::FileBase::FileBase(char const*, mbed::PathType)+0x1c>)
    2004:	2300      	movs	r3, #0
    2006:	7302      	strb	r2, [r0, #12]
    2008:	6081      	str	r1, [r0, #8]
    200a:	6004      	str	r4, [r0, #0]
    200c:	6043      	str	r3, [r0, #4]
    200e:	b119      	cbz	r1, 2018 <mbed::FileBase::FileBase(char const*, mbed::PathType)+0x18>
    2010:	4b03      	ldr	r3, [pc, #12]	; (2020 <mbed::FileBase::FileBase(char const*, mbed::PathType)+0x20>)
    2012:	681a      	ldr	r2, [r3, #0]
    2014:	6018      	str	r0, [r3, #0]
    2016:	6042      	str	r2, [r0, #4]
    2018:	bc10      	pop	{r4}
    201a:	4770      	bx	lr
    201c:	00006dcc 	.word	0x00006dcc
    2020:	100004c0 	.word	0x100004c0

00002024 <mbed::FileBase::lookup(char const*, unsigned int)>:
    2024:	b5f8      	push	{r3, r4, r5, r6, r7, lr}
    2026:	4b0b      	ldr	r3, [pc, #44]	; (2054 <mbed::FileBase::lookup(char const*, unsigned int)+0x30>)
    2028:	681c      	ldr	r4, [r3, #0]
    202a:	b18c      	cbz	r4, 2050 <mbed::FileBase::lookup(char const*, unsigned int)+0x2c>
    202c:	4607      	mov	r7, r0
    202e:	460e      	mov	r6, r1
    2030:	68a5      	ldr	r5, [r4, #8]
    2032:	b155      	cbz	r5, 204a <mbed::FileBase::lookup(char const*, unsigned int)+0x26>
    2034:	4632      	mov	r2, r6
    2036:	4639      	mov	r1, r7
    2038:	4628      	mov	r0, r5
    203a:	f002 fcfa 	bl	4a32 <strncmp>
    203e:	b920      	cbnz	r0, 204a <mbed::FileBase::lookup(char const*, unsigned int)+0x26>
    2040:	4628      	mov	r0, r5
    2042:	f002 fcee 	bl	4a22 <strlen>
    2046:	4286      	cmp	r6, r0
    2048:	d002      	beq.n	2050 <mbed::FileBase::lookup(char const*, unsigned int)+0x2c>
    204a:	6864      	ldr	r4, [r4, #4]
    204c:	2c00      	cmp	r4, #0
    204e:	d1ef      	bne.n	2030 <mbed::FileBase::lookup(char const*, unsigned int)+0xc>
    2050:	4620      	mov	r0, r4
    2052:	bdf8      	pop	{r3, r4, r5, r6, r7, pc}
    2054:	100004c0 	.word	0x100004c0

00002058 <mbed::FileBase::getPathType()>:
    2058:	7b00      	ldrb	r0, [r0, #12]
    205a:	4770      	bx	lr

0000205c <mbed::Stream::write(void const*, unsigned int)>:
    205c:	b5f8      	push	{r3, r4, r5, r6, r7, lr}
    205e:	188e      	adds	r6, r1, r2
    2060:	42b1      	cmp	r1, r6
    2062:	460f      	mov	r7, r1
    2064:	d00e      	beq.n	2084 <mbed::Stream::write(void const*, unsigned int)+0x28>
    2066:	4605      	mov	r5, r0
    2068:	460c      	mov	r4, r1
    206a:	e001      	b.n	2070 <mbed::Stream::write(void const*, unsigned int)+0x14>
    206c:	42a6      	cmp	r6, r4
    206e:	d007      	beq.n	2080 <mbed::Stream::write(void const*, unsigned int)+0x24>
    2070:	682b      	ldr	r3, [r5, #0]
    2072:	f814 1b01 	ldrb.w	r1, [r4], #1
    2076:	6a5b      	ldr	r3, [r3, #36]	; 0x24
    2078:	4628      	mov	r0, r5
    207a:	4798      	blx	r3
    207c:	3001      	adds	r0, #1
    207e:	d1f5      	bne.n	206c <mbed::Stream::write(void const*, unsigned int)+0x10>
    2080:	1be0      	subs	r0, r4, r7
    2082:	bdf8      	pop	{r3, r4, r5, r6, r7, pc}
    2084:	460c      	mov	r4, r1
    2086:	e7fb      	b.n	2080 <mbed::Stream::write(void const*, unsigned int)+0x24>

00002088 <mbed::Stream::read(void*, unsigned int)>:
    2088:	b5f8      	push	{r3, r4, r5, r6, r7, lr}
    208a:	188e      	adds	r6, r1, r2
    208c:	42b1      	cmp	r1, r6
    208e:	460f      	mov	r7, r1
    2090:	d00e      	beq.n	20b0 <mbed::Stream::read(void*, unsigned int)+0x28>
    2092:	4605      	mov	r5, r0
    2094:	460c      	mov	r4, r1
    2096:	e003      	b.n	20a0 <mbed::Stream::read(void*, unsigned int)+0x18>
    2098:	f804 0b01 	strb.w	r0, [r4], #1
    209c:	42a6      	cmp	r6, r4
    209e:	d005      	beq.n	20ac <mbed::Stream::read(void*, unsigned int)+0x24>
    20a0:	682b      	ldr	r3, [r5, #0]
    20a2:	4628      	mov	r0, r5
    20a4:	6a9b      	ldr	r3, [r3, #40]	; 0x28
    20a6:	4798      	blx	r3
    20a8:	1c43      	adds	r3, r0, #1
    20aa:	d1f5      	bne.n	2098 <mbed::Stream::read(void*, unsigned int)+0x10>
    20ac:	1be0      	subs	r0, r4, r7
    20ae:	bdf8      	pop	{r3, r4, r5, r6, r7, pc}
    20b0:	460c      	mov	r4, r1
    20b2:	e7fb      	b.n	20ac <mbed::Stream::read(void*, unsigned int)+0x24>

000020b4 <mbed::Stream::lseek(long, int)>:
    20b4:	2000      	movs	r0, #0
    20b6:	4770      	bx	lr

000020b8 <mbed::Stream::close()>:
    20b8:	2000      	movs	r0, #0
    20ba:	4770      	bx	lr

000020bc <mbed::Stream::flen()>:
    20bc:	2000      	movs	r0, #0
    20be:	4770      	bx	lr

000020c0 <mbed::Stream::Stream(char const*)>:
    20c0:	b510      	push	{r4, lr}
    20c2:	4604      	mov	r4, r0
    20c4:	b084      	sub	sp, #16
    20c6:	f000 f937 	bl	2338 <mbed::FileLike::FileLike(char const*)>
    20ca:	4b0b      	ldr	r3, [pc, #44]	; (20f8 <mbed::Stream::Stream(char const*)+0x38>)
    20cc:	2200      	movs	r2, #0
    20ce:	f103 0108 	add.w	r1, r3, #8
    20d2:	333c      	adds	r3, #60	; 0x3c
    20d4:	e884 000a 	stmia.w	r4, {r1, r3}
    20d8:	6162      	str	r2, [r4, #20]
    20da:	a801      	add	r0, sp, #4
    20dc:	4622      	mov	r2, r4
    20de:	4907      	ldr	r1, [pc, #28]	; (20fc <mbed::Stream::Stream(char const*)+0x3c>)
    20e0:	f002 fc02 	bl	48e8 <siprintf>
    20e4:	4906      	ldr	r1, [pc, #24]	; (2100 <mbed::Stream::Stream(char const*)+0x40>)
    20e6:	a801      	add	r0, sp, #4
    20e8:	f001 f978 	bl	33dc <fopen>
    20ec:	6160      	str	r0, [r4, #20]
    20ee:	f7ff fef1 	bl	1ed4 <mbed::mbed_set_unbuffered_stream(__sFILE*)>
    20f2:	4620      	mov	r0, r4
    20f4:	b004      	add	sp, #16
    20f6:	bd10      	pop	{r4, pc}
    20f8:	00006dd4 	.word	0x00006dd4
    20fc:	00006db4 	.word	0x00006db4
    2100:	00006e18 	.word	0x00006e18

00002104 <mbed::Stream::~Stream()>:
    2104:	b510      	push	{r4, lr}
    2106:	4604      	mov	r4, r0
    2108:	4b06      	ldr	r3, [pc, #24]	; (2124 <mbed::Stream::~Stream()+0x20>)
    210a:	6940      	ldr	r0, [r0, #20]
    210c:	f103 0208 	add.w	r2, r3, #8
    2110:	333c      	adds	r3, #60	; 0x3c
    2112:	e884 000c 	stmia.w	r4, {r2, r3}
    2116:	f000 ffa9 	bl	306c <fclose>
    211a:	4620      	mov	r0, r4
    211c:	f000 f920 	bl	2360 <mbed::FileLike::~FileLike()>
    2120:	4620      	mov	r0, r4
    2122:	bd10      	pop	{r4, pc}
    2124:	00006dd4 	.word	0x00006dd4

00002128 <mbed::Stream::putc(int)>:
    2128:	b538      	push	{r3, r4, r5, lr}
    212a:	460d      	mov	r5, r1
    212c:	4604      	mov	r4, r0
    212e:	6940      	ldr	r0, [r0, #20]
    2130:	f001 f854 	bl	31dc <fflush>
    2134:	6961      	ldr	r1, [r4, #20]
    2136:	4628      	mov	r0, r5
    2138:	e8bd 4038 	ldmia.w	sp!, {r3, r4, r5, lr}
    213c:	f001 b97a 	b.w	3434 <fputc>

00002140 <mbed::Stream::printf(char const*, ...)>:
    2140:	b40e      	push	{r1, r2, r3}
    2142:	b530      	push	{r4, r5, lr}
    2144:	4604      	mov	r4, r0
    2146:	b082      	sub	sp, #8
    2148:	ab05      	add	r3, sp, #20
    214a:	f853 5b04 	ldr.w	r5, [r3], #4
    214e:	6940      	ldr	r0, [r0, #20]
    2150:	9301      	str	r3, [sp, #4]
    2152:	f001 f843 	bl	31dc <fflush>
    2156:	4629      	mov	r1, r5
    2158:	6960      	ldr	r0, [r4, #20]
    215a:	9a01      	ldr	r2, [sp, #4]
    215c:	f001 fcb8 	bl	3ad0 <vfiprintf>
    2160:	b002      	add	sp, #8
    2162:	e8bd 4030 	ldmia.w	sp!, {r4, r5, lr}
    2166:	b003      	add	sp, #12
    2168:	4770      	bx	lr
    216a:	bf00      	nop

0000216c <mbed::BusOut::~BusOut()>:
    216c:	b570      	push	{r4, r5, r6, lr}
    216e:	4606      	mov	r6, r0
    2170:	4604      	mov	r4, r0
    2172:	4b06      	ldr	r3, [pc, #24]	; (218c <mbed::BusOut::~BusOut()+0x20>)
    2174:	f100 0540 	add.w	r5, r0, #64	; 0x40
    2178:	6003      	str	r3, [r0, #0]
    217a:	f854 0f04 	ldr.w	r0, [r4, #4]!
    217e:	b108      	cbz	r0, 2184 <mbed::BusOut::~BusOut()+0x18>
    2180:	f000 f927 	bl	23d2 <operator delete(void*)>
    2184:	42ac      	cmp	r4, r5
    2186:	d1f8      	bne.n	217a <mbed::BusOut::~BusOut()+0xe>
    2188:	4630      	mov	r0, r6
    218a:	bd70      	pop	{r4, r5, r6, pc}
    218c:	00006e24 	.word	0x00006e24

00002190 <mbed::BusOut::~BusOut()>:
    2190:	b570      	push	{r4, r5, r6, lr}
    2192:	4606      	mov	r6, r0
    2194:	4604      	mov	r4, r0
    2196:	4b08      	ldr	r3, [pc, #32]	; (21b8 <mbed::BusOut::~BusOut()+0x28>)
    2198:	f100 0540 	add.w	r5, r0, #64	; 0x40
    219c:	6003      	str	r3, [r0, #0]
    219e:	f854 0f04 	ldr.w	r0, [r4, #4]!
    21a2:	b108      	cbz	r0, 21a8 <mbed::BusOut::~BusOut()+0x18>
    21a4:	f000 f915 	bl	23d2 <operator delete(void*)>
    21a8:	42ac      	cmp	r4, r5
    21aa:	d1f8      	bne.n	219e <mbed::BusOut::~BusOut()+0xe>
    21ac:	4630      	mov	r0, r6
    21ae:	f000 f910 	bl	23d2 <operator delete(void*)>
    21b2:	4630      	mov	r0, r6
    21b4:	bd70      	pop	{r4, r5, r6, pc}
    21b6:	bf00      	nop
    21b8:	00006e24 	.word	0x00006e24

000021bc <mbed::BusOut::BusOut(PinName, PinName, PinName, PinName, PinName, PinName, PinName, PinName, PinName, PinName, PinName, PinName, PinName, PinName, PinName, PinName)>:
    21bc:	e92d 4ff0 	stmdb	sp!, {r4, r5, r6, r7, r8, r9, r10, r11, lr}
    21c0:	4680      	mov	r8, r0
    21c2:	b091      	sub	sp, #68	; 0x44
    21c4:	460f      	mov	r7, r1
    21c6:	9100      	str	r1, [sp, #0]
    21c8:	492a      	ldr	r1, [pc, #168]	; (2274 <mbed::BusOut::BusOut(PinName, PinName, PinName, PinName, PinName, PinName, PinName, PinName, PinName, PinName, PinName, PinName, PinName, PinName, PinName, PinName)+0xb8>)
    21ca:	9201      	str	r2, [sp, #4]
    21cc:	9302      	str	r3, [sp, #8]
    21ce:	9a1c      	ldr	r2, [sp, #112]	; 0x70
    21d0:	9b1d      	ldr	r3, [sp, #116]	; 0x74
    21d2:	f8c8 1000 	str.w	r1, [r8]
    21d6:	991a      	ldr	r1, [sp, #104]	; 0x68
    21d8:	9205      	str	r2, [sp, #20]
    21da:	9103      	str	r1, [sp, #12]
    21dc:	9a1f      	ldr	r2, [sp, #124]	; 0x7c
    21de:	991e      	ldr	r1, [sp, #120]	; 0x78
    21e0:	9306      	str	r3, [sp, #24]
    21e2:	9b20      	ldr	r3, [sp, #128]	; 0x80
    21e4:	9107      	str	r1, [sp, #28]
    21e6:	9208      	str	r2, [sp, #32]
    21e8:	9921      	ldr	r1, [sp, #132]	; 0x84
    21ea:	9a22      	ldr	r2, [sp, #136]	; 0x88
    21ec:	9309      	str	r3, [sp, #36]	; 0x24
    21ee:	9b23      	ldr	r3, [sp, #140]	; 0x8c
    21f0:	981b      	ldr	r0, [sp, #108]	; 0x6c
    21f2:	910a      	str	r1, [sp, #40]	; 0x28
    21f4:	920b      	str	r2, [sp, #44]	; 0x2c
    21f6:	9924      	ldr	r1, [sp, #144]	; 0x90
    21f8:	9a25      	ldr	r2, [sp, #148]	; 0x94
    21fa:	930c      	str	r3, [sp, #48]	; 0x30
    21fc:	9b26      	ldr	r3, [sp, #152]	; 0x98
    21fe:	2400      	movs	r4, #0
    2200:	4626      	mov	r6, r4
    2202:	4625      	mov	r5, r4
    2204:	f8c8 4044 	str.w	r4, [r8, #68]	; 0x44
    2208:	f108 0904 	add.w	r9, r8, #4
    220c:	9004      	str	r0, [sp, #16]
    220e:	910d      	str	r1, [sp, #52]	; 0x34
    2210:	920e      	str	r2, [sp, #56]	; 0x38
    2212:	930f      	str	r3, [sp, #60]	; 0x3c
    2214:	46eb      	mov	r11, sp
    2216:	f04f 0a01 	mov.w	r10, #1
    221a:	e008      	b.n	222e <mbed::BusOut::BusOut(PinName, PinName, PinName, PinName, PinName, PinName, PinName, PinName, PinName, PinName, PinName, PinName, PinName, PinName, PinName, PinName)+0x72>
    221c:	3601      	adds	r6, #1
    221e:	2e10      	cmp	r6, #16
    2220:	f8c9 5000 	str.w	r5, [r9]
    2224:	f109 0904 	add.w	r9, r9, #4
    2228:	d01f      	beq.n	226a <mbed::BusOut::BusOut(PinName, PinName, PinName, PinName, PinName, PinName, PinName, PinName, PinName, PinName, PinName, PinName, PinName, PinName, PinName, PinName)+0xae>
    222a:	f85b 7f04 	ldr.w	r7, [r11, #4]!
    222e:	1c7b      	adds	r3, r7, #1
    2230:	f04f 0018 	mov.w	r0, #24
    2234:	d0f2      	beq.n	221c <mbed::BusOut::BusOut(PinName, PinName, PinName, PinName, PinName, PinName, PinName, PinName, PinName, PinName, PinName, PinName, PinName, PinName, PinName, PinName)+0x60>
    2236:	f000 f8ce 	bl	23d6 <operator new(unsigned int)>
    223a:	4604      	mov	r4, r0
    223c:	4639      	mov	r1, r7
    223e:	6005      	str	r5, [r0, #0]
    2240:	6045      	str	r5, [r0, #4]
    2242:	6085      	str	r5, [r0, #8]
    2244:	60c5      	str	r5, [r0, #12]
    2246:	6105      	str	r5, [r0, #16]
    2248:	6145      	str	r5, [r0, #20]
    224a:	f7fe fc89 	bl	b60 <gpio_init_out>
    224e:	f8d8 2044 	ldr.w	r2, [r8, #68]	; 0x44
    2252:	fa0a f306 	lsl.w	r3, r10, r6
    2256:	3601      	adds	r6, #1
    2258:	4313      	orrs	r3, r2
    225a:	2e10      	cmp	r6, #16
    225c:	f8c9 4000 	str.w	r4, [r9]
    2260:	f8c8 3044 	str.w	r3, [r8, #68]	; 0x44
    2264:	f109 0904 	add.w	r9, r9, #4
    2268:	d1df      	bne.n	222a <mbed::BusOut::BusOut(PinName, PinName, PinName, PinName, PinName, PinName, PinName, PinName, PinName, PinName, PinName, PinName, PinName, PinName, PinName, PinName)+0x6e>
    226a:	4640      	mov	r0, r8
    226c:	b011      	add	sp, #68	; 0x44
    226e:	e8bd 8ff0 	ldmia.w	sp!, {r4, r5, r6, r7, r8, r9, r10, r11, pc}
    2272:	bf00      	nop
    2274:	00006e24 	.word	0x00006e24

00002278 <mbed::BusOut::operator=(int)>:
    2278:	b430      	push	{r4, r5}
    227a:	4604      	mov	r4, r0
    227c:	2300      	movs	r3, #0
    227e:	f854 2f04 	ldr.w	r2, [r4, #4]!
    2282:	fa41 f503 	asr.w	r5, r1, r3
    2286:	b12a      	cbz	r2, 2294 <mbed::BusOut::operator=(int)+0x1c>
    2288:	07ed      	lsls	r5, r5, #31
    228a:	bf4c      	ite	mi
    228c:	68d5      	ldrmi	r5, [r2, #12]
    228e:	6915      	ldrpl	r5, [r2, #16]
    2290:	6852      	ldr	r2, [r2, #4]
    2292:	602a      	str	r2, [r5, #0]
    2294:	3301      	adds	r3, #1
    2296:	2b10      	cmp	r3, #16
    2298:	d1f1      	bne.n	227e <mbed::BusOut::operator=(int)+0x6>
    229a:	bc30      	pop	{r4, r5}
    229c:	4770      	bx	lr
    229e:	bf00      	nop

000022a0 <mbed::SerialBase::_irq_handler(unsigned long, SerialIrq)>:
    22a0:	1c4a      	adds	r2, r1, #1
    22a2:	eb02 0242 	add.w	r2, r2, r2, lsl #1
    22a6:	eb00 02c2 	add.w	r2, r0, r2, lsl #3
    22aa:	6893      	ldr	r3, [r2, #8]
    22ac:	b153      	cbz	r3, 22c4 <mbed::SerialBase::_irq_handler(unsigned long, SerialIrq)+0x24>
    22ae:	eb01 0141 	add.w	r1, r1, r1, lsl #1
    22b2:	00c9      	lsls	r1, r1, #3
    22b4:	1842      	adds	r2, r0, r1
    22b6:	68d2      	ldr	r2, [r2, #12]
    22b8:	b11a      	cbz	r2, 22c2 <mbed::SerialBase::_irq_handler(unsigned long, SerialIrq)+0x22>
    22ba:	4401      	add	r1, r0
    22bc:	3110      	adds	r1, #16
    22be:	4610      	mov	r0, r2
    22c0:	4718      	bx	r3
    22c2:	4770      	bx	lr
    22c4:	eb01 0341 	add.w	r3, r1, r1, lsl #1
    22c8:	eb00 01c3 	add.w	r1, r0, r3, lsl #3
    22cc:	68cb      	ldr	r3, [r1, #12]
    22ce:	2b00      	cmp	r3, #0
    22d0:	d0f7      	beq.n	22c2 <mbed::SerialBase::_irq_handler(unsigned long, SerialIrq)+0x22>
    22d2:	4718      	bx	r3

000022d4 <mbed::SerialBase::SerialBase(PinName, PinName)>:
    22d4:	b570      	push	{r4, r5, r6, lr}
    22d6:	4604      	mov	r4, r0
    22d8:	4e0b      	ldr	r6, [pc, #44]	; (2308 <mbed::SerialBase::SerialBase(PinName, PinName)+0x34>)
    22da:	2300      	movs	r3, #0
    22dc:	1d25      	adds	r5, r4, #4
    22de:	f44f 5016 	mov.w	r0, #9600	; 0x2580
    22e2:	63e0      	str	r0, [r4, #60]	; 0x3c
    22e4:	6063      	str	r3, [r4, #4]
    22e6:	4628      	mov	r0, r5
    22e8:	60a3      	str	r3, [r4, #8]
    22ea:	60e3      	str	r3, [r4, #12]
    22ec:	6223      	str	r3, [r4, #32]
    22ee:	6263      	str	r3, [r4, #36]	; 0x24
    22f0:	63a3      	str	r3, [r4, #56]	; 0x38
    22f2:	6026      	str	r6, [r4, #0]
    22f4:	f7ff fb1a 	bl	192c <serial_init>
    22f8:	4628      	mov	r0, r5
    22fa:	4622      	mov	r2, r4
    22fc:	4903      	ldr	r1, [pc, #12]	; (230c <mbed::SerialBase::SerialBase(PinName, PinName)+0x38>)
    22fe:	f7ff fa0f 	bl	1720 <serial_irq_handler>
    2302:	4620      	mov	r0, r4
    2304:	bd70      	pop	{r4, r5, r6, pc}
    2306:	bf00      	nop
    2308:	00006e34 	.word	0x00006e34
    230c:	000022a1 	.word	0x000022a1

00002310 <mbed::SerialBase::baud(int)>:
    2310:	b538      	push	{r3, r4, r5, lr}
    2312:	4604      	mov	r4, r0
    2314:	460d      	mov	r5, r1
    2316:	3004      	adds	r0, #4
    2318:	f7ff f91a 	bl	1550 <serial_baud>
    231c:	63e5      	str	r5, [r4, #60]	; 0x3c
    231e:	bd38      	pop	{r3, r4, r5, pc}

00002320 <mbed::SerialBase::_base_getc()>:
    2320:	3004      	adds	r0, #4
    2322:	f7ff ba0d 	b.w	1740 <serial_getc>
    2326:	bf00      	nop

00002328 <mbed::SerialBase::_base_putc(int)>:
    2328:	b510      	push	{r4, lr}
    232a:	460c      	mov	r4, r1
    232c:	3004      	adds	r0, #4
    232e:	f7ff fa4f 	bl	17d0 <serial_putc>
    2332:	4620      	mov	r0, r4
    2334:	bd10      	pop	{r4, pc}
    2336:	bf00      	nop

00002338 <mbed::FileLike::FileLike(char const*)>:
    2338:	b510      	push	{r4, lr}
    233a:	4604      	mov	r4, r0
    233c:	4b06      	ldr	r3, [pc, #24]	; (2358 <mbed::FileLike::FileLike(char const*)+0x20>)
    233e:	2200      	movs	r2, #0
    2340:	f840 3b04 	str.w	r3, [r0], #4
    2344:	f7ff fe5c 	bl	2000 <mbed::FileBase::FileBase(char const*, mbed::PathType)>
    2348:	4b04      	ldr	r3, [pc, #16]	; (235c <mbed::FileLike::FileLike(char const*)+0x24>)
    234a:	4620      	mov	r0, r4
    234c:	f103 0208 	add.w	r2, r3, #8
    2350:	3334      	adds	r3, #52	; 0x34
    2352:	e884 000c 	stmia.w	r4, {r2, r3}
    2356:	bd10      	pop	{r4, pc}
    2358:	00006d90 	.word	0x00006d90
    235c:	00006e3c 	.word	0x00006e3c

00002360 <mbed::FileLike::~FileLike()>:
    2360:	b510      	push	{r4, lr}
    2362:	4604      	mov	r4, r0
    2364:	4b06      	ldr	r3, [pc, #24]	; (2380 <mbed::FileLike::~FileLike()+0x20>)
    2366:	f103 0208 	add.w	r2, r3, #8
    236a:	3334      	adds	r3, #52	; 0x34
    236c:	6002      	str	r2, [r0, #0]
    236e:	f840 3f04 	str.w	r3, [r0, #4]!
    2372:	f7ff fe0f 	bl	1f94 <mbed::FileBase::~FileBase()>
    2376:	4620      	mov	r0, r4
    2378:	f7ff fc4c 	bl	1c14 <mbed::FileHandle::~FileHandle()>
    237c:	4620      	mov	r0, r4
    237e:	bd10      	pop	{r4, pc}
    2380:	00006e3c 	.word	0x00006e3c

00002384 <Reset_Handler>:
    2384:	4906      	ldr	r1, [pc, #24]	; (23a0 <Reset_Handler+0x1c>)
    2386:	4a07      	ldr	r2, [pc, #28]	; (23a4 <Reset_Handler+0x20>)
    2388:	4b07      	ldr	r3, [pc, #28]	; (23a8 <Reset_Handler+0x24>)
    238a:	429a      	cmp	r2, r3
    238c:	bfbe      	ittt	lt
    238e:	f851 0b04 	ldrlt.w	r0, [r1], #4
    2392:	f842 0b04 	strlt.w	r0, [r2], #4
    2396:	e7f8      	blt.n	238a <Reset_Handler+0x6>
    2398:	4804      	ldr	r0, [pc, #16]	; (23ac <Reset_Handler+0x28>)
    239a:	4780      	blx	r0
    239c:	4804      	ldr	r0, [pc, #16]	; (23b0 <Reset_Handler+0x2c>)
    239e:	4700      	bx	r0
    23a0:	0000716c 	.word	0x0000716c
    23a4:	100000c8 	.word	0x100000c8
    23a8:	10000180 	.word	0x10000180
    23ac:	00000d85 	.word	0x00000d85
    23b0:	00000a49 	.word	0x00000a49

000023b4 <NMI_Handler>:
    23b4:	e7fe      	b.n	23b4 <NMI_Handler>

000023b6 <HardFault_Handler>:
    23b6:	e7fe      	b.n	23b6 <HardFault_Handler>

000023b8 <MemManage_Handler>:
    23b8:	e7fe      	b.n	23b8 <MemManage_Handler>

000023ba <BusFault_Handler>:
    23ba:	e7fe      	b.n	23ba <BusFault_Handler>

000023bc <UsageFault_Handler>:
    23bc:	e7fe      	b.n	23bc <UsageFault_Handler>

000023be <SVC_Handler>:
    23be:	e7fe      	b.n	23be <SVC_Handler>

000023c0 <DebugMon_Handler>:
    23c0:	e7fe      	b.n	23c0 <DebugMon_Handler>

000023c2 <PendSV_Handler>:
    23c2:	e7fe      	b.n	23c2 <PendSV_Handler>

000023c4 <SysTick_Handler>:
    23c4:	e7fe      	b.n	23c4 <SysTick_Handler>

000023c6 <ADC_IRQHandler>:
    23c6:	e7fe      	b.n	23c6 <ADC_IRQHandler>

000023c8 <__aeabi_atexit>:
    23c8:	460b      	mov	r3, r1
    23ca:	4601      	mov	r1, r0
    23cc:	4618      	mov	r0, r3
    23ce:	f000 bdd3 	b.w	2f78 <__cxa_atexit>

000023d2 <operator delete(void*)>:
    23d2:	f7fe bb59 	b.w	a88 <__wrap_free>

000023d6 <operator new(unsigned int)>:
    23d6:	b510      	push	{r4, lr}
    23d8:	2800      	cmp	r0, #0
    23da:	bf14      	ite	ne
    23dc:	4604      	movne	r4, r0
    23de:	2401      	moveq	r4, #1
    23e0:	4620      	mov	r0, r4
    23e2:	f7fe fb4b 	bl	a7c <__wrap_malloc>
    23e6:	b930      	cbnz	r0, 23f6 <operator new(unsigned int)+0x20>
    23e8:	f000 f806 	bl	23f8 <std::get_new_handler()>
    23ec:	b908      	cbnz	r0, 23f2 <operator new(unsigned int)+0x1c>
    23ee:	f7fe fb51 	bl	a94 <abort>
    23f2:	4780      	blx	r0
    23f4:	e7f4      	b.n	23e0 <operator new(unsigned int)+0xa>
    23f6:	bd10      	pop	{r4, pc}

000023f8 <std::get_new_handler()>:
    23f8:	4b02      	ldr	r3, [pc, #8]	; (2404 <std::get_new_handler()+0xc>)
    23fa:	6818      	ldr	r0, [r3, #0]
    23fc:	f3bf 8f5f 	dmb	sy
    2400:	4770      	bx	lr
    2402:	bf00      	nop
    2404:	100004c4 	.word	0x100004c4

00002408 <__aeabi_drsub>:
    2408:	f081 4100 	eor.w	r1, r1, #2147483648	; 0x80000000
    240c:	e002      	b.n	2414 <__adddf3>
    240e:	bf00      	nop

00002410 <__aeabi_dsub>:
    2410:	f083 4300 	eor.w	r3, r3, #2147483648	; 0x80000000

00002414 <__adddf3>:
    2414:	b530      	push	{r4, r5, lr}
    2416:	ea4f 0441 	mov.w	r4, r1, lsl #1
    241a:	ea4f 0543 	mov.w	r5, r3, lsl #1
    241e:	ea94 0f05 	teq	r4, r5
    2422:	bf08      	it	eq
    2424:	ea90 0f02 	teqeq	r0, r2
    2428:	bf1f      	itttt	ne
    242a:	ea54 0c00 	orrsne.w	r12, r4, r0
    242e:	ea55 0c02 	orrsne.w	r12, r5, r2
    2432:	ea7f 5c64 	mvnsne.w	r12, r4, asr #21
    2436:	ea7f 5c65 	mvnsne.w	r12, r5, asr #21
    243a:	f000 80e2 	beq.w	2602 <__adddf3+0x1ee>
    243e:	ea4f 5454 	mov.w	r4, r4, lsr #21
    2442:	ebd4 5555 	rsbs	r5, r4, r5, lsr #21
    2446:	bfb8      	it	lt
    2448:	426d      	neglt	r5, r5
    244a:	dd0c      	ble.n	2466 <__adddf3+0x52>
    244c:	442c      	add	r4, r5
    244e:	ea80 0202 	eor.w	r2, r0, r2
    2452:	ea81 0303 	eor.w	r3, r1, r3
    2456:	ea82 0000 	eor.w	r0, r2, r0
    245a:	ea83 0101 	eor.w	r1, r3, r1
    245e:	ea80 0202 	eor.w	r2, r0, r2
    2462:	ea81 0303 	eor.w	r3, r1, r3
    2466:	2d36      	cmp	r5, #54	; 0x36
    2468:	bf88      	it	hi
    246a:	bd30      	pophi	{r4, r5, pc}
    246c:	f011 4f00 	tst.w	r1, #2147483648	; 0x80000000
    2470:	ea4f 3101 	mov.w	r1, r1, lsl #12
    2474:	f44f 1c80 	mov.w	r12, #1048576	; 0x100000
    2478:	ea4c 3111 	orr.w	r1, r12, r1, lsr #12
    247c:	d002      	beq.n	2484 <__adddf3+0x70>
    247e:	4240      	negs	r0, r0
    2480:	eb61 0141 	sbc.w	r1, r1, r1, lsl #1
    2484:	f013 4f00 	tst.w	r3, #2147483648	; 0x80000000
    2488:	ea4f 3303 	mov.w	r3, r3, lsl #12
    248c:	ea4c 3313 	orr.w	r3, r12, r3, lsr #12
    2490:	d002      	beq.n	2498 <__adddf3+0x84>
    2492:	4252      	negs	r2, r2
    2494:	eb63 0343 	sbc.w	r3, r3, r3, lsl #1
    2498:	ea94 0f05 	teq	r4, r5
    249c:	f000 80a7 	beq.w	25ee <__adddf3+0x1da>
    24a0:	f1a4 0401 	sub.w	r4, r4, #1
    24a4:	f1d5 0e20 	rsbs	lr, r5, #32
    24a8:	db0d      	blt.n	24c6 <__adddf3+0xb2>
    24aa:	fa02 fc0e 	lsl.w	r12, r2, lr
    24ae:	fa22 f205 	lsr.w	r2, r2, r5
    24b2:	1880      	adds	r0, r0, r2
    24b4:	f141 0100 	adc.w	r1, r1, #0
    24b8:	fa03 f20e 	lsl.w	r2, r3, lr
    24bc:	1880      	adds	r0, r0, r2
    24be:	fa43 f305 	asr.w	r3, r3, r5
    24c2:	4159      	adcs	r1, r3
    24c4:	e00e      	b.n	24e4 <__adddf3+0xd0>
    24c6:	f1a5 0520 	sub.w	r5, r5, #32
    24ca:	f10e 0e20 	add.w	lr, lr, #32
    24ce:	2a01      	cmp	r2, #1
    24d0:	fa03 fc0e 	lsl.w	r12, r3, lr
    24d4:	bf28      	it	cs
    24d6:	f04c 0c02 	orrcs.w	r12, r12, #2
    24da:	fa43 f305 	asr.w	r3, r3, r5
    24de:	18c0      	adds	r0, r0, r3
    24e0:	eb51 71e3 	adcs.w	r1, r1, r3, asr #31
    24e4:	f001 4500 	and.w	r5, r1, #2147483648	; 0x80000000
    24e8:	d507      	bpl.n	24fa <__adddf3+0xe6>
    24ea:	f04f 0e00 	mov.w	lr, #0
    24ee:	f1dc 0c00 	rsbs	r12, r12, #0
    24f2:	eb7e 0000 	sbcs.w	r0, lr, r0
    24f6:	eb6e 0101 	sbc.w	r1, lr, r1
    24fa:	f5b1 1f80 	cmp.w	r1, #1048576	; 0x100000
    24fe:	d31b      	bcc.n	2538 <__adddf3+0x124>
    2500:	f5b1 1f00 	cmp.w	r1, #2097152	; 0x200000
    2504:	d30c      	bcc.n	2520 <__adddf3+0x10c>
    2506:	0849      	lsrs	r1, r1, #1
    2508:	ea5f 0030 	movs.w	r0, r0, rrx
    250c:	ea4f 0c3c 	mov.w	r12, r12, rrx
    2510:	f104 0401 	add.w	r4, r4, #1
    2514:	ea4f 5244 	mov.w	r2, r4, lsl #21
    2518:	f512 0f80 	cmn.w	r2, #4194304	; 0x400000
    251c:	f080 809a 	bcs.w	2654 <__adddf3+0x240>
    2520:	f1bc 4f00 	cmp.w	r12, #2147483648	; 0x80000000
    2524:	bf08      	it	eq
    2526:	ea5f 0c50 	movseq.w	r12, r0, lsr #1
    252a:	f150 0000 	adcs.w	r0, r0, #0
    252e:	eb41 5104 	adc.w	r1, r1, r4, lsl #20
    2532:	ea41 0105 	orr.w	r1, r1, r5
    2536:	bd30      	pop	{r4, r5, pc}
    2538:	ea5f 0c4c 	movs.w	r12, r12, lsl #1
    253c:	4140      	adcs	r0, r0
    253e:	eb41 0101 	adc.w	r1, r1, r1
    2542:	f411 1f80 	tst.w	r1, #1048576	; 0x100000
    2546:	f1a4 0401 	sub.w	r4, r4, #1
    254a:	d1e9      	bne.n	2520 <__adddf3+0x10c>
    254c:	f091 0f00 	teq	r1, #0
    2550:	bf04      	itt	eq
    2552:	4601      	moveq	r1, r0
    2554:	2000      	moveq	r0, #0
    2556:	fab1 f381 	clz	r3, r1
    255a:	bf08      	it	eq
    255c:	3320      	addeq	r3, #32
    255e:	f1a3 030b 	sub.w	r3, r3, #11
    2562:	f1b3 0220 	subs.w	r2, r3, #32
    2566:	da0c      	bge.n	2582 <__adddf3+0x16e>
    2568:	320c      	adds	r2, #12
    256a:	dd08      	ble.n	257e <__adddf3+0x16a>
    256c:	f102 0c14 	add.w	r12, r2, #20
    2570:	f1c2 020c 	rsb	r2, r2, #12
    2574:	fa01 f00c 	lsl.w	r0, r1, r12
    2578:	fa21 f102 	lsr.w	r1, r1, r2
    257c:	e00c      	b.n	2598 <__adddf3+0x184>
    257e:	f102 0214 	add.w	r2, r2, #20
    2582:	bfd8      	it	le
    2584:	f1c2 0c20 	rsble	r12, r2, #32
    2588:	fa01 f102 	lsl.w	r1, r1, r2
    258c:	fa20 fc0c 	lsr.w	r12, r0, r12
    2590:	bfdc      	itt	le
    2592:	ea41 010c 	orrle.w	r1, r1, r12
    2596:	4090      	lslle	r0, r2
    2598:	1ae4      	subs	r4, r4, r3
    259a:	bfa2      	ittt	ge
    259c:	eb01 5104 	addge.w	r1, r1, r4, lsl #20
    25a0:	4329      	orrge	r1, r5
    25a2:	bd30      	popge	{r4, r5, pc}
    25a4:	ea6f 0404 	mvn.w	r4, r4
    25a8:	3c1f      	subs	r4, #31
    25aa:	da1c      	bge.n	25e6 <__adddf3+0x1d2>
    25ac:	340c      	adds	r4, #12
    25ae:	dc0e      	bgt.n	25ce <__adddf3+0x1ba>
    25b0:	f104 0414 	add.w	r4, r4, #20
    25b4:	f1c4 0220 	rsb	r2, r4, #32
    25b8:	fa20 f004 	lsr.w	r0, r0, r4
    25bc:	fa01 f302 	lsl.w	r3, r1, r2
    25c0:	ea40 0003 	orr.w	r0, r0, r3
    25c4:	fa21 f304 	lsr.w	r3, r1, r4
    25c8:	ea45 0103 	orr.w	r1, r5, r3
    25cc:	bd30      	pop	{r4, r5, pc}
    25ce:	f1c4 040c 	rsb	r4, r4, #12
    25d2:	f1c4 0220 	rsb	r2, r4, #32
    25d6:	fa20 f002 	lsr.w	r0, r0, r2
    25da:	fa01 f304 	lsl.w	r3, r1, r4
    25de:	ea40 0003 	orr.w	r0, r0, r3
    25e2:	4629      	mov	r1, r5
    25e4:	bd30      	pop	{r4, r5, pc}
    25e6:	fa21 f004 	lsr.w	r0, r1, r4
    25ea:	4629      	mov	r1, r5
    25ec:	bd30      	pop	{r4, r5, pc}
    25ee:	f094 0f00 	teq	r4, #0
    25f2:	f483 1380 	eor.w	r3, r3, #1048576	; 0x100000
    25f6:	bf06      	itte	eq
    25f8:	f481 1180 	eoreq.w	r1, r1, #1048576	; 0x100000
    25fc:	3401      	addeq	r4, #1
    25fe:	3d01      	subne	r5, #1
    2600:	e74e      	b.n	24a0 <__adddf3+0x8c>
    2602:	ea7f 5c64 	mvns.w	r12, r4, asr #21
    2606:	bf18      	it	ne
    2608:	ea7f 5c65 	mvnsne.w	r12, r5, asr #21
    260c:	d029      	beq.n	2662 <__adddf3+0x24e>
    260e:	ea94 0f05 	teq	r4, r5
    2612:	bf08      	it	eq
    2614:	ea90 0f02 	teqeq	r0, r2
    2618:	d005      	beq.n	2626 <__adddf3+0x212>
    261a:	ea54 0c00 	orrs.w	r12, r4, r0
    261e:	bf04      	itt	eq
    2620:	4619      	moveq	r1, r3
    2622:	4610      	moveq	r0, r2
    2624:	bd30      	pop	{r4, r5, pc}
    2626:	ea91 0f03 	teq	r1, r3
    262a:	bf1e      	ittt	ne
    262c:	2100      	movne	r1, #0
    262e:	2000      	movne	r0, #0
    2630:	bd30      	popne	{r4, r5, pc}
    2632:	ea5f 5c54 	movs.w	r12, r4, lsr #21
    2636:	d105      	bne.n	2644 <__adddf3+0x230>
    2638:	0040      	lsls	r0, r0, #1
    263a:	4149      	adcs	r1, r1
    263c:	bf28      	it	cs
    263e:	f041 4100 	orrcs.w	r1, r1, #2147483648	; 0x80000000
    2642:	bd30      	pop	{r4, r5, pc}
    2644:	f514 0480 	adds.w	r4, r4, #4194304	; 0x400000
    2648:	bf3c      	itt	cc
    264a:	f501 1180 	addcc.w	r1, r1, #1048576	; 0x100000
    264e:	bd30      	popcc	{r4, r5, pc}
    2650:	f001 4500 	and.w	r5, r1, #2147483648	; 0x80000000
    2654:	f045 41fe 	orr.w	r1, r5, #2130706432	; 0x7f000000
    2658:	f441 0170 	orr.w	r1, r1, #15728640	; 0xf00000
    265c:	f04f 0000 	mov.w	r0, #0
    2660:	bd30      	pop	{r4, r5, pc}
    2662:	ea7f 5c64 	mvns.w	r12, r4, asr #21
    2666:	bf1a      	itte	ne
    2668:	4619      	movne	r1, r3
    266a:	4610      	movne	r0, r2
    266c:	ea7f 5c65 	mvnseq.w	r12, r5, asr #21
    2670:	bf1c      	itt	ne
    2672:	460b      	movne	r3, r1
    2674:	4602      	movne	r2, r0
    2676:	ea50 3401 	orrs.w	r4, r0, r1, lsl #12
    267a:	bf06      	itte	eq
    267c:	ea52 3503 	orrseq.w	r5, r2, r3, lsl #12
    2680:	ea91 0f03 	teqeq	r1, r3
    2684:	f441 2100 	orrne.w	r1, r1, #524288	; 0x80000
    2688:	bd30      	pop	{r4, r5, pc}
    268a:	bf00      	nop

0000268c <__aeabi_ui2d>:
    268c:	f090 0f00 	teq	r0, #0
    2690:	bf04      	itt	eq
    2692:	2100      	moveq	r1, #0
    2694:	4770      	bxeq	lr
    2696:	b530      	push	{r4, r5, lr}
    2698:	f44f 6480 	mov.w	r4, #1024	; 0x400
    269c:	f104 0432 	add.w	r4, r4, #50	; 0x32
    26a0:	f04f 0500 	mov.w	r5, #0
    26a4:	f04f 0100 	mov.w	r1, #0
    26a8:	e750      	b.n	254c <__adddf3+0x138>
    26aa:	bf00      	nop

000026ac <__aeabi_i2d>:
    26ac:	f090 0f00 	teq	r0, #0
    26b0:	bf04      	itt	eq
    26b2:	2100      	moveq	r1, #0
    26b4:	4770      	bxeq	lr
    26b6:	b530      	push	{r4, r5, lr}
    26b8:	f44f 6480 	mov.w	r4, #1024	; 0x400
    26bc:	f104 0432 	add.w	r4, r4, #50	; 0x32
    26c0:	f010 4500 	ands.w	r5, r0, #2147483648	; 0x80000000
    26c4:	bf48      	it	mi
    26c6:	4240      	negmi	r0, r0
    26c8:	f04f 0100 	mov.w	r1, #0
    26cc:	e73e      	b.n	254c <__adddf3+0x138>
    26ce:	bf00      	nop

000026d0 <__aeabi_f2d>:
    26d0:	0042      	lsls	r2, r0, #1
    26d2:	ea4f 01e2 	mov.w	r1, r2, asr #3
    26d6:	ea4f 0131 	mov.w	r1, r1, rrx
    26da:	ea4f 7002 	mov.w	r0, r2, lsl #28
    26de:	bf1f      	itttt	ne
    26e0:	f012 437f 	andsne.w	r3, r2, #4278190080	; 0xff000000
    26e4:	f093 4f7f 	teqne	r3, #4278190080	; 0xff000000
    26e8:	f081 5160 	eorne.w	r1, r1, #939524096	; 0x38000000
    26ec:	4770      	bxne	lr
    26ee:	f092 0f00 	teq	r2, #0
    26f2:	bf14      	ite	ne
    26f4:	f093 4f7f 	teqne	r3, #4278190080	; 0xff000000
    26f8:	4770      	bxeq	lr
    26fa:	b530      	push	{r4, r5, lr}
    26fc:	f44f 7460 	mov.w	r4, #896	; 0x380
    2700:	f001 4500 	and.w	r5, r1, #2147483648	; 0x80000000
    2704:	f021 4100 	bic.w	r1, r1, #2147483648	; 0x80000000
    2708:	e720      	b.n	254c <__adddf3+0x138>
    270a:	bf00      	nop

0000270c <__aeabi_ul2d>:
    270c:	ea50 0201 	orrs.w	r2, r0, r1
    2710:	bf08      	it	eq
    2712:	4770      	bxeq	lr
    2714:	b530      	push	{r4, r5, lr}
    2716:	f04f 0500 	mov.w	r5, #0
    271a:	e00a      	b.n	2732 <__aeabi_l2d+0x16>

0000271c <__aeabi_l2d>:
    271c:	ea50 0201 	orrs.w	r2, r0, r1
    2720:	bf08      	it	eq
    2722:	4770      	bxeq	lr
    2724:	b530      	push	{r4, r5, lr}
    2726:	f011 4500 	ands.w	r5, r1, #2147483648	; 0x80000000
    272a:	d502      	bpl.n	2732 <__aeabi_l2d+0x16>
    272c:	4240      	negs	r0, r0
    272e:	eb61 0141 	sbc.w	r1, r1, r1, lsl #1
    2732:	f44f 6480 	mov.w	r4, #1024	; 0x400
    2736:	f104 0432 	add.w	r4, r4, #50	; 0x32
    273a:	ea5f 5c91 	movs.w	r12, r1, lsr #22
    273e:	f43f aedc 	beq.w	24fa <__adddf3+0xe6>
    2742:	f04f 0203 	mov.w	r2, #3
    2746:	ea5f 0cdc 	movs.w	r12, r12, lsr #3
    274a:	bf18      	it	ne
    274c:	3203      	addne	r2, #3
    274e:	ea5f 0cdc 	movs.w	r12, r12, lsr #3
    2752:	bf18      	it	ne
    2754:	3203      	addne	r2, #3
    2756:	eb02 02dc 	add.w	r2, r2, r12, lsr #3
    275a:	f1c2 0320 	rsb	r3, r2, #32
    275e:	fa00 fc03 	lsl.w	r12, r0, r3
    2762:	fa20 f002 	lsr.w	r0, r0, r2
    2766:	fa01 fe03 	lsl.w	lr, r1, r3
    276a:	ea40 000e 	orr.w	r0, r0, lr
    276e:	fa21 f102 	lsr.w	r1, r1, r2
    2772:	4414      	add	r4, r2
    2774:	e6c1      	b.n	24fa <__adddf3+0xe6>
    2776:	bf00      	nop

00002778 <__aeabi_dmul>:
    2778:	b570      	push	{r4, r5, r6, lr}
    277a:	f04f 0cff 	mov.w	r12, #255	; 0xff
    277e:	f44c 6ce0 	orr.w	r12, r12, #1792	; 0x700
    2782:	ea1c 5411 	ands.w	r4, r12, r1, lsr #20
    2786:	bf1d      	ittte	ne
    2788:	ea1c 5513 	andsne.w	r5, r12, r3, lsr #20
    278c:	ea94 0f0c 	teqne	r4, r12
    2790:	ea95 0f0c 	teqne	r5, r12
    2794:	f000 f8de 	bleq	2954 <__aeabi_dmul+0x1dc>
    2798:	442c      	add	r4, r5
    279a:	ea81 0603 	eor.w	r6, r1, r3
    279e:	ea21 514c 	bic.w	r1, r1, r12, lsl #21
    27a2:	ea23 534c 	bic.w	r3, r3, r12, lsl #21
    27a6:	ea50 3501 	orrs.w	r5, r0, r1, lsl #12
    27aa:	bf18      	it	ne
    27ac:	ea52 3503 	orrsne.w	r5, r2, r3, lsl #12
    27b0:	f441 1180 	orr.w	r1, r1, #1048576	; 0x100000
    27b4:	f443 1380 	orr.w	r3, r3, #1048576	; 0x100000
    27b8:	d038      	beq.n	282c <__aeabi_dmul+0xb4>
    27ba:	fba0 ce02 	umull	r12, lr, r0, r2
    27be:	f04f 0500 	mov.w	r5, #0
    27c2:	fbe1 e502 	umlal	lr, r5, r1, r2
    27c6:	f006 4200 	and.w	r2, r6, #2147483648	; 0x80000000
    27ca:	fbe0 e503 	umlal	lr, r5, r0, r3
    27ce:	f04f 0600 	mov.w	r6, #0
    27d2:	fbe1 5603 	umlal	r5, r6, r1, r3
    27d6:	f09c 0f00 	teq	r12, #0
    27da:	bf18      	it	ne
    27dc:	f04e 0e01 	orrne.w	lr, lr, #1
    27e0:	f1a4 04ff 	sub.w	r4, r4, #255	; 0xff
    27e4:	f5b6 7f00 	cmp.w	r6, #512	; 0x200
    27e8:	f564 7440 	sbc.w	r4, r4, #768	; 0x300
    27ec:	d204      	bcs.n	27f8 <__aeabi_dmul+0x80>
    27ee:	ea5f 0e4e 	movs.w	lr, lr, lsl #1
    27f2:	416d      	adcs	r5, r5
    27f4:	eb46 0606 	adc.w	r6, r6, r6
    27f8:	ea42 21c6 	orr.w	r1, r2, r6, lsl #11
    27fc:	ea41 5155 	orr.w	r1, r1, r5, lsr #21
    2800:	ea4f 20c5 	mov.w	r0, r5, lsl #11
    2804:	ea40 505e 	orr.w	r0, r0, lr, lsr #21
    2808:	ea4f 2ece 	mov.w	lr, lr, lsl #11
    280c:	f1b4 0cfd 	subs.w	r12, r4, #253	; 0xfd
    2810:	bf88      	it	hi
    2812:	f5bc 6fe0 	cmphi.w	r12, #1792	; 0x700
    2816:	d81e      	bhi.n	2856 <__aeabi_dmul+0xde>
    2818:	f1be 4f00 	cmp.w	lr, #2147483648	; 0x80000000
    281c:	bf08      	it	eq
    281e:	ea5f 0e50 	movseq.w	lr, r0, lsr #1
    2822:	f150 0000 	adcs.w	r0, r0, #0
    2826:	eb41 5104 	adc.w	r1, r1, r4, lsl #20
    282a:	bd70      	pop	{r4, r5, r6, pc}
    282c:	f006 4600 	and.w	r6, r6, #2147483648	; 0x80000000
    2830:	ea46 0101 	orr.w	r1, r6, r1
    2834:	ea40 0002 	orr.w	r0, r0, r2
    2838:	ea81 0103 	eor.w	r1, r1, r3
    283c:	ebb4 045c 	subs.w	r4, r4, r12, lsr #1
    2840:	bfc2      	ittt	gt
    2842:	ebd4 050c 	rsbsgt	r5, r4, r12
    2846:	ea41 5104 	orrgt.w	r1, r1, r4, lsl #20
    284a:	bd70      	popgt	{r4, r5, r6, pc}
    284c:	f441 1180 	orr.w	r1, r1, #1048576	; 0x100000
    2850:	f04f 0e00 	mov.w	lr, #0
    2854:	3c01      	subs	r4, #1
    2856:	f300 80ab 	bgt.w	29b0 <__aeabi_dmul+0x238>
    285a:	f114 0f36 	cmn.w	r4, #54	; 0x36
    285e:	bfde      	ittt	le
    2860:	2000      	movle	r0, #0
    2862:	f001 4100 	andle.w	r1, r1, #2147483648	; 0x80000000
    2866:	bd70      	pople	{r4, r5, r6, pc}
    2868:	f1c4 0400 	rsb	r4, r4, #0
    286c:	3c20      	subs	r4, #32
    286e:	da35      	bge.n	28dc <__aeabi_dmul+0x164>
    2870:	340c      	adds	r4, #12
    2872:	dc1b      	bgt.n	28ac <__aeabi_dmul+0x134>
    2874:	f104 0414 	add.w	r4, r4, #20
    2878:	f1c4 0520 	rsb	r5, r4, #32
    287c:	fa00 f305 	lsl.w	r3, r0, r5
    2880:	fa20 f004 	lsr.w	r0, r0, r4
    2884:	fa01 f205 	lsl.w	r2, r1, r5
    2888:	ea40 0002 	orr.w	r0, r0, r2
    288c:	f001 4200 	and.w	r2, r1, #2147483648	; 0x80000000
    2890:	f021 4100 	bic.w	r1, r1, #2147483648	; 0x80000000
    2894:	eb10 70d3 	adds.w	r0, r0, r3, lsr #31
    2898:	fa21 f604 	lsr.w	r6, r1, r4
    289c:	eb42 0106 	adc.w	r1, r2, r6
    28a0:	ea5e 0e43 	orrs.w	lr, lr, r3, lsl #1
    28a4:	bf08      	it	eq
    28a6:	ea20 70d3 	biceq.w	r0, r0, r3, lsr #31
    28aa:	bd70      	pop	{r4, r5, r6, pc}
    28ac:	f1c4 040c 	rsb	r4, r4, #12
    28b0:	f1c4 0520 	rsb	r5, r4, #32
    28b4:	fa00 f304 	lsl.w	r3, r0, r4
    28b8:	fa20 f005 	lsr.w	r0, r0, r5
    28bc:	fa01 f204 	lsl.w	r2, r1, r4
    28c0:	ea40 0002 	orr.w	r0, r0, r2
    28c4:	f001 4100 	and.w	r1, r1, #2147483648	; 0x80000000
    28c8:	eb10 70d3 	adds.w	r0, r0, r3, lsr #31
    28cc:	f141 0100 	adc.w	r1, r1, #0
    28d0:	ea5e 0e43 	orrs.w	lr, lr, r3, lsl #1
    28d4:	bf08      	it	eq
    28d6:	ea20 70d3 	biceq.w	r0, r0, r3, lsr #31
    28da:	bd70      	pop	{r4, r5, r6, pc}
    28dc:	f1c4 0520 	rsb	r5, r4, #32
    28e0:	fa00 f205 	lsl.w	r2, r0, r5
    28e4:	ea4e 0e02 	orr.w	lr, lr, r2
    28e8:	fa20 f304 	lsr.w	r3, r0, r4
    28ec:	fa01 f205 	lsl.w	r2, r1, r5
    28f0:	ea43 0302 	orr.w	r3, r3, r2
    28f4:	fa21 f004 	lsr.w	r0, r1, r4
    28f8:	f001 4100 	and.w	r1, r1, #2147483648	; 0x80000000
    28fc:	fa21 f204 	lsr.w	r2, r1, r4
    2900:	ea20 0002 	bic.w	r0, r0, r2
    2904:	eb00 70d3 	add.w	r0, r0, r3, lsr #31
    2908:	ea5e 0e43 	orrs.w	lr, lr, r3, lsl #1
    290c:	bf08      	it	eq
    290e:	ea20 70d3 	biceq.w	r0, r0, r3, lsr #31
    2912:	bd70      	pop	{r4, r5, r6, pc}
    2914:	f094 0f00 	teq	r4, #0
    2918:	d10f      	bne.n	293a <__aeabi_dmul+0x1c2>
    291a:	f001 4600 	and.w	r6, r1, #2147483648	; 0x80000000
    291e:	0040      	lsls	r0, r0, #1
    2920:	eb41 0101 	adc.w	r1, r1, r1
    2924:	f411 1f80 	tst.w	r1, #1048576	; 0x100000
    2928:	bf08      	it	eq
    292a:	3c01      	subeq	r4, #1
    292c:	d0f7      	beq.n	291e <__aeabi_dmul+0x1a6>
    292e:	ea41 0106 	orr.w	r1, r1, r6
    2932:	f095 0f00 	teq	r5, #0
    2936:	bf18      	it	ne
    2938:	4770      	bxne	lr
    293a:	f003 4600 	and.w	r6, r3, #2147483648	; 0x80000000
    293e:	0052      	lsls	r2, r2, #1
    2940:	eb43 0303 	adc.w	r3, r3, r3
    2944:	f413 1f80 	tst.w	r3, #1048576	; 0x100000
    2948:	bf08      	it	eq
    294a:	3d01      	subeq	r5, #1
    294c:	d0f7      	beq.n	293e <__aeabi_dmul+0x1c6>
    294e:	ea43 0306 	orr.w	r3, r3, r6
    2952:	4770      	bx	lr
    2954:	ea94 0f0c 	teq	r4, r12
    2958:	ea0c 5513 	and.w	r5, r12, r3, lsr #20
    295c:	bf18      	it	ne
    295e:	ea95 0f0c 	teqne	r5, r12
    2962:	d00c      	beq.n	297e <__aeabi_dmul+0x206>
    2964:	ea50 0641 	orrs.w	r6, r0, r1, lsl #1
    2968:	bf18      	it	ne
    296a:	ea52 0643 	orrsne.w	r6, r2, r3, lsl #1
    296e:	d1d1      	bne.n	2914 <__aeabi_dmul+0x19c>
    2970:	ea81 0103 	eor.w	r1, r1, r3
    2974:	f001 4100 	and.w	r1, r1, #2147483648	; 0x80000000
    2978:	f04f 0000 	mov.w	r0, #0
    297c:	bd70      	pop	{r4, r5, r6, pc}
    297e:	ea50 0641 	orrs.w	r6, r0, r1, lsl #1
    2982:	bf06      	itte	eq
    2984:	4610      	moveq	r0, r2
    2986:	4619      	moveq	r1, r3
    2988:	ea52 0643 	orrsne.w	r6, r2, r3, lsl #1
    298c:	d019      	beq.n	29c2 <__aeabi_dmul+0x24a>
    298e:	ea94 0f0c 	teq	r4, r12
    2992:	d102      	bne.n	299a <__aeabi_dmul+0x222>
    2994:	ea50 3601 	orrs.w	r6, r0, r1, lsl #12
    2998:	d113      	bne.n	29c2 <__aeabi_dmul+0x24a>
    299a:	ea95 0f0c 	teq	r5, r12
    299e:	d105      	bne.n	29ac <__aeabi_dmul+0x234>
    29a0:	ea52 3603 	orrs.w	r6, r2, r3, lsl #12
    29a4:	bf1c      	itt	ne
    29a6:	4610      	movne	r0, r2
    29a8:	4619      	movne	r1, r3
    29aa:	d10a      	bne.n	29c2 <__aeabi_dmul+0x24a>
    29ac:	ea81 0103 	eor.w	r1, r1, r3
    29b0:	f001 4100 	and.w	r1, r1, #2147483648	; 0x80000000
    29b4:	f041 41fe 	orr.w	r1, r1, #2130706432	; 0x7f000000
    29b8:	f441 0170 	orr.w	r1, r1, #15728640	; 0xf00000
    29bc:	f04f 0000 	mov.w	r0, #0
    29c0:	bd70      	pop	{r4, r5, r6, pc}
    29c2:	f041 41fe 	orr.w	r1, r1, #2130706432	; 0x7f000000
    29c6:	f441 0178 	orr.w	r1, r1, #16252928	; 0xf80000
    29ca:	bd70      	pop	{r4, r5, r6, pc}

000029cc <__aeabi_ddiv>:
    29cc:	b570      	push	{r4, r5, r6, lr}
    29ce:	f04f 0cff 	mov.w	r12, #255	; 0xff
    29d2:	f44c 6ce0 	orr.w	r12, r12, #1792	; 0x700
    29d6:	ea1c 5411 	ands.w	r4, r12, r1, lsr #20
    29da:	bf1d      	ittte	ne
    29dc:	ea1c 5513 	andsne.w	r5, r12, r3, lsr #20
    29e0:	ea94 0f0c 	teqne	r4, r12
    29e4:	ea95 0f0c 	teqne	r5, r12
    29e8:	f000 f8a7 	bleq	2b3a <__aeabi_ddiv+0x16e>
    29ec:	eba4 0405 	sub.w	r4, r4, r5
    29f0:	ea81 0e03 	eor.w	lr, r1, r3
    29f4:	ea52 3503 	orrs.w	r5, r2, r3, lsl #12
    29f8:	ea4f 3101 	mov.w	r1, r1, lsl #12
    29fc:	f000 8088 	beq.w	2b10 <__aeabi_ddiv+0x144>
    2a00:	ea4f 3303 	mov.w	r3, r3, lsl #12
    2a04:	f04f 5580 	mov.w	r5, #268435456	; 0x10000000
    2a08:	ea45 1313 	orr.w	r3, r5, r3, lsr #4
    2a0c:	ea43 6312 	orr.w	r3, r3, r2, lsr #24
    2a10:	ea4f 2202 	mov.w	r2, r2, lsl #8
    2a14:	ea45 1511 	orr.w	r5, r5, r1, lsr #4
    2a18:	ea45 6510 	orr.w	r5, r5, r0, lsr #24
    2a1c:	ea4f 2600 	mov.w	r6, r0, lsl #8
    2a20:	f00e 4100 	and.w	r1, lr, #2147483648	; 0x80000000
    2a24:	429d      	cmp	r5, r3
    2a26:	bf08      	it	eq
    2a28:	4296      	cmpeq	r6, r2
    2a2a:	f144 04fd 	adc.w	r4, r4, #253	; 0xfd
    2a2e:	f504 7440 	add.w	r4, r4, #768	; 0x300
    2a32:	d202      	bcs.n	2a3a <__aeabi_ddiv+0x6e>
    2a34:	085b      	lsrs	r3, r3, #1
    2a36:	ea4f 0232 	mov.w	r2, r2, rrx
    2a3a:	1ab6      	subs	r6, r6, r2
    2a3c:	eb65 0503 	sbc.w	r5, r5, r3
    2a40:	085b      	lsrs	r3, r3, #1
    2a42:	ea4f 0232 	mov.w	r2, r2, rrx
    2a46:	f44f 1080 	mov.w	r0, #1048576	; 0x100000
    2a4a:	f44f 2c00 	mov.w	r12, #524288	; 0x80000
    2a4e:	ebb6 0e02 	subs.w	lr, r6, r2
    2a52:	eb75 0e03 	sbcs.w	lr, r5, r3
    2a56:	bf22      	ittt	cs
    2a58:	1ab6      	subcs	r6, r6, r2
    2a5a:	4675      	movcs	r5, lr
    2a5c:	ea40 000c 	orrcs.w	r0, r0, r12
    2a60:	085b      	lsrs	r3, r3, #1
    2a62:	ea4f 0232 	mov.w	r2, r2, rrx
    2a66:	ebb6 0e02 	subs.w	lr, r6, r2
    2a6a:	eb75 0e03 	sbcs.w	lr, r5, r3
    2a6e:	bf22      	ittt	cs
    2a70:	1ab6      	subcs	r6, r6, r2
    2a72:	4675      	movcs	r5, lr
    2a74:	ea40 005c 	orrcs.w	r0, r0, r12, lsr #1
    2a78:	085b      	lsrs	r3, r3, #1
    2a7a:	ea4f 0232 	mov.w	r2, r2, rrx
    2a7e:	ebb6 0e02 	subs.w	lr, r6, r2
    2a82:	eb75 0e03 	sbcs.w	lr, r5, r3
    2a86:	bf22      	ittt	cs
    2a88:	1ab6      	subcs	r6, r6, r2
    2a8a:	4675      	movcs	r5, lr
    2a8c:	ea40 009c 	orrcs.w	r0, r0, r12, lsr #2
    2a90:	085b      	lsrs	r3, r3, #1
    2a92:	ea4f 0232 	mov.w	r2, r2, rrx
    2a96:	ebb6 0e02 	subs.w	lr, r6, r2
    2a9a:	eb75 0e03 	sbcs.w	lr, r5, r3
    2a9e:	bf22      	ittt	cs
    2aa0:	1ab6      	subcs	r6, r6, r2
    2aa2:	4675      	movcs	r5, lr
    2aa4:	ea40 00dc 	orrcs.w	r0, r0, r12, lsr #3
    2aa8:	ea55 0e06 	orrs.w	lr, r5, r6
    2aac:	d018      	beq.n	2ae0 <__aeabi_ddiv+0x114>
    2aae:	ea4f 1505 	mov.w	r5, r5, lsl #4
    2ab2:	ea45 7516 	orr.w	r5, r5, r6, lsr #28
    2ab6:	ea4f 1606 	mov.w	r6, r6, lsl #4
    2aba:	ea4f 03c3 	mov.w	r3, r3, lsl #3
    2abe:	ea43 7352 	orr.w	r3, r3, r2, lsr #29
    2ac2:	ea4f 02c2 	mov.w	r2, r2, lsl #3
    2ac6:	ea5f 1c1c 	movs.w	r12, r12, lsr #4
    2aca:	d1c0      	bne.n	2a4e <__aeabi_ddiv+0x82>
    2acc:	f411 1f80 	tst.w	r1, #1048576	; 0x100000
    2ad0:	d10b      	bne.n	2aea <__aeabi_ddiv+0x11e>
    2ad2:	ea41 0100 	orr.w	r1, r1, r0
    2ad6:	f04f 0000 	mov.w	r0, #0
    2ada:	f04f 4c00 	mov.w	r12, #2147483648	; 0x80000000
    2ade:	e7b6      	b.n	2a4e <__aeabi_ddiv+0x82>
    2ae0:	f411 1f80 	tst.w	r1, #1048576	; 0x100000
    2ae4:	bf04      	itt	eq
    2ae6:	4301      	orreq	r1, r0
    2ae8:	2000      	moveq	r0, #0
    2aea:	f1b4 0cfd 	subs.w	r12, r4, #253	; 0xfd
    2aee:	bf88      	it	hi
    2af0:	f5bc 6fe0 	cmphi.w	r12, #1792	; 0x700
    2af4:	f63f aeaf 	bhi.w	2856 <__aeabi_dmul+0xde>
    2af8:	ebb5 0c03 	subs.w	r12, r5, r3
    2afc:	bf04      	itt	eq
    2afe:	ebb6 0c02 	subseq.w	r12, r6, r2
    2b02:	ea5f 0c50 	movseq.w	r12, r0, lsr #1
    2b06:	f150 0000 	adcs.w	r0, r0, #0
    2b0a:	eb41 5104 	adc.w	r1, r1, r4, lsl #20
    2b0e:	bd70      	pop	{r4, r5, r6, pc}
    2b10:	f00e 4e00 	and.w	lr, lr, #2147483648	; 0x80000000
    2b14:	ea4e 3111 	orr.w	r1, lr, r1, lsr #12
    2b18:	eb14 045c 	adds.w	r4, r4, r12, lsr #1
    2b1c:	bfc2      	ittt	gt
    2b1e:	ebd4 050c 	rsbsgt	r5, r4, r12
    2b22:	ea41 5104 	orrgt.w	r1, r1, r4, lsl #20
    2b26:	bd70      	popgt	{r4, r5, r6, pc}
    2b28:	f441 1180 	orr.w	r1, r1, #1048576	; 0x100000
    2b2c:	f04f 0e00 	mov.w	lr, #0
    2b30:	3c01      	subs	r4, #1
    2b32:	e690      	b.n	2856 <__aeabi_dmul+0xde>
    2b34:	ea45 0e06 	orr.w	lr, r5, r6
    2b38:	e68d      	b.n	2856 <__aeabi_dmul+0xde>
    2b3a:	ea0c 5513 	and.w	r5, r12, r3, lsr #20
    2b3e:	ea94 0f0c 	teq	r4, r12
    2b42:	bf08      	it	eq
    2b44:	ea95 0f0c 	teqeq	r5, r12
    2b48:	f43f af3b 	beq.w	29c2 <__aeabi_dmul+0x24a>
    2b4c:	ea94 0f0c 	teq	r4, r12
    2b50:	d10a      	bne.n	2b68 <__aeabi_ddiv+0x19c>
    2b52:	ea50 3401 	orrs.w	r4, r0, r1, lsl #12
    2b56:	f47f af34 	bne.w	29c2 <__aeabi_dmul+0x24a>
    2b5a:	ea95 0f0c 	teq	r5, r12
    2b5e:	f47f af25 	bne.w	29ac <__aeabi_dmul+0x234>
    2b62:	4610      	mov	r0, r2
    2b64:	4619      	mov	r1, r3
    2b66:	e72c      	b.n	29c2 <__aeabi_dmul+0x24a>
    2b68:	ea95 0f0c 	teq	r5, r12
    2b6c:	d106      	bne.n	2b7c <__aeabi_ddiv+0x1b0>
    2b6e:	ea52 3503 	orrs.w	r5, r2, r3, lsl #12
    2b72:	f43f aefd 	beq.w	2970 <__aeabi_dmul+0x1f8>
    2b76:	4610      	mov	r0, r2
    2b78:	4619      	mov	r1, r3
    2b7a:	e722      	b.n	29c2 <__aeabi_dmul+0x24a>
    2b7c:	ea50 0641 	orrs.w	r6, r0, r1, lsl #1
    2b80:	bf18      	it	ne
    2b82:	ea52 0643 	orrsne.w	r6, r2, r3, lsl #1
    2b86:	f47f aec5 	bne.w	2914 <__aeabi_dmul+0x19c>
    2b8a:	ea50 0441 	orrs.w	r4, r0, r1, lsl #1
    2b8e:	f47f af0d 	bne.w	29ac <__aeabi_dmul+0x234>
    2b92:	ea52 0543 	orrs.w	r5, r2, r3, lsl #1
    2b96:	f47f aeeb 	bne.w	2970 <__aeabi_dmul+0x1f8>
    2b9a:	e712      	b.n	29c2 <__aeabi_dmul+0x24a>

00002b9c <__aeabi_d2iz>:
    2b9c:	ea4f 0241 	mov.w	r2, r1, lsl #1
    2ba0:	f512 1200 	adds.w	r2, r2, #2097152	; 0x200000
    2ba4:	d215      	bcs.n	2bd2 <__aeabi_d2iz+0x36>
    2ba6:	d511      	bpl.n	2bcc <__aeabi_d2iz+0x30>
    2ba8:	f46f 7378 	mvn.w	r3, #992	; 0x3e0
    2bac:	ebb3 5262 	subs.w	r2, r3, r2, asr #21
    2bb0:	d912      	bls.n	2bd8 <__aeabi_d2iz+0x3c>
    2bb2:	ea4f 23c1 	mov.w	r3, r1, lsl #11
    2bb6:	f043 4300 	orr.w	r3, r3, #2147483648	; 0x80000000
    2bba:	ea43 5350 	orr.w	r3, r3, r0, lsr #21
    2bbe:	f011 4f00 	tst.w	r1, #2147483648	; 0x80000000
    2bc2:	fa23 f002 	lsr.w	r0, r3, r2
    2bc6:	bf18      	it	ne
    2bc8:	4240      	negne	r0, r0
    2bca:	4770      	bx	lr
    2bcc:	f04f 0000 	mov.w	r0, #0
    2bd0:	4770      	bx	lr
    2bd2:	ea50 3001 	orrs.w	r0, r0, r1, lsl #12
    2bd6:	d105      	bne.n	2be4 <__aeabi_d2iz+0x48>
    2bd8:	f011 4000 	ands.w	r0, r1, #2147483648	; 0x80000000
    2bdc:	bf08      	it	eq
    2bde:	f06f 4000 	mvneq.w	r0, #2147483648	; 0x80000000
    2be2:	4770      	bx	lr
    2be4:	f04f 0000 	mov.w	r0, #0
    2be8:	4770      	bx	lr
    2bea:	bf00      	nop

00002bec <__aeabi_d2f>:
    2bec:	ea4f 0241 	mov.w	r2, r1, lsl #1
    2bf0:	f1b2 43e0 	subs.w	r3, r2, #1879048192	; 0x70000000
    2bf4:	bf24      	itt	cs
    2bf6:	f5b3 1c00 	subscs.w	r12, r3, #2097152	; 0x200000
    2bfa:	f1dc 5cfe 	rsbscs	r12, r12, #532676608	; 0x1fc00000
    2bfe:	d90d      	bls.n	2c1c <__aeabi_d2f+0x30>
    2c00:	f001 4c00 	and.w	r12, r1, #2147483648	; 0x80000000
    2c04:	ea4f 02c0 	mov.w	r2, r0, lsl #3
    2c08:	ea4c 7050 	orr.w	r0, r12, r0, lsr #29
    2c0c:	f1b2 4f00 	cmp.w	r2, #2147483648	; 0x80000000
    2c10:	eb40 0083 	adc.w	r0, r0, r3, lsl #2
    2c14:	bf08      	it	eq
    2c16:	f020 0001 	biceq.w	r0, r0, #1
    2c1a:	4770      	bx	lr
    2c1c:	f011 4f80 	tst.w	r1, #1073741824	; 0x40000000
    2c20:	d121      	bne.n	2c66 <__aeabi_d2f+0x7a>
    2c22:	f113 7238 	adds.w	r2, r3, #48234496	; 0x2e00000
    2c26:	bfbc      	itt	lt
    2c28:	f001 4000 	andlt.w	r0, r1, #2147483648	; 0x80000000
    2c2c:	4770      	bxlt	lr
    2c2e:	f441 1180 	orr.w	r1, r1, #1048576	; 0x100000
    2c32:	ea4f 5252 	mov.w	r2, r2, lsr #21
    2c36:	f1c2 0218 	rsb	r2, r2, #24
    2c3a:	f1c2 0c20 	rsb	r12, r2, #32
    2c3e:	fa10 f30c 	lsls.w	r3, r0, r12
    2c42:	fa20 f002 	lsr.w	r0, r0, r2
    2c46:	bf18      	it	ne
    2c48:	f040 0001 	orrne.w	r0, r0, #1
    2c4c:	ea4f 23c1 	mov.w	r3, r1, lsl #11
    2c50:	ea4f 23d3 	mov.w	r3, r3, lsr #11
    2c54:	fa03 fc0c 	lsl.w	r12, r3, r12
    2c58:	ea40 000c 	orr.w	r0, r0, r12
    2c5c:	fa23 f302 	lsr.w	r3, r3, r2
    2c60:	ea4f 0343 	mov.w	r3, r3, lsl #1
    2c64:	e7cc      	b.n	2c00 <__aeabi_d2f+0x14>
    2c66:	ea7f 5362 	mvns.w	r3, r2, asr #21
    2c6a:	d107      	bne.n	2c7c <__aeabi_d2f+0x90>
    2c6c:	ea50 3301 	orrs.w	r3, r0, r1, lsl #12
    2c70:	bf1e      	ittt	ne
    2c72:	f04f 40fe 	movne.w	r0, #2130706432	; 0x7f000000
    2c76:	f440 0040 	orrne.w	r0, r0, #12582912	; 0xc00000
    2c7a:	4770      	bxne	lr
    2c7c:	f001 4000 	and.w	r0, r1, #2147483648	; 0x80000000
    2c80:	f040 40fe 	orr.w	r0, r0, #2130706432	; 0x7f000000
    2c84:	f440 0000 	orr.w	r0, r0, #8388608	; 0x800000
    2c88:	4770      	bx	lr
    2c8a:	bf00      	nop

00002c8c <__aeabi_fmul>:
    2c8c:	f04f 0cff 	mov.w	r12, #255	; 0xff
    2c90:	ea1c 52d0 	ands.w	r2, r12, r0, lsr #23
    2c94:	bf1e      	ittt	ne
    2c96:	ea1c 53d1 	andsne.w	r3, r12, r1, lsr #23
    2c9a:	ea92 0f0c 	teqne	r2, r12
    2c9e:	ea93 0f0c 	teqne	r3, r12
    2ca2:	d06f      	beq.n	2d84 <__aeabi_fmul+0xf8>
    2ca4:	441a      	add	r2, r3
    2ca6:	ea80 0c01 	eor.w	r12, r0, r1
    2caa:	0240      	lsls	r0, r0, #9
    2cac:	bf18      	it	ne
    2cae:	ea5f 2141 	movsne.w	r1, r1, lsl #9
    2cb2:	d01e      	beq.n	2cf2 <__aeabi_fmul+0x66>
    2cb4:	f04f 6300 	mov.w	r3, #134217728	; 0x8000000
    2cb8:	ea43 1050 	orr.w	r0, r3, r0, lsr #5
    2cbc:	ea43 1151 	orr.w	r1, r3, r1, lsr #5
    2cc0:	fba0 3101 	umull	r3, r1, r0, r1
    2cc4:	f00c 4000 	and.w	r0, r12, #2147483648	; 0x80000000
    2cc8:	f5b1 0f00 	cmp.w	r1, #8388608	; 0x800000
    2ccc:	bf3e      	ittt	cc
    2cce:	0049      	lslcc	r1, r1, #1
    2cd0:	ea41 71d3 	orrcc.w	r1, r1, r3, lsr #31
    2cd4:	005b      	lslcc	r3, r3, #1
    2cd6:	ea40 0001 	orr.w	r0, r0, r1
    2cda:	f162 027f 	sbc.w	r2, r2, #127	; 0x7f
    2cde:	2afd      	cmp	r2, #253	; 0xfd
    2ce0:	d81d      	bhi.n	2d1e <__aeabi_fmul+0x92>
    2ce2:	f1b3 4f00 	cmp.w	r3, #2147483648	; 0x80000000
    2ce6:	eb40 50c2 	adc.w	r0, r0, r2, lsl #23
    2cea:	bf08      	it	eq
    2cec:	f020 0001 	biceq.w	r0, r0, #1
    2cf0:	4770      	bx	lr
    2cf2:	f090 0f00 	teq	r0, #0
    2cf6:	f00c 4c00 	and.w	r12, r12, #2147483648	; 0x80000000
    2cfa:	bf08      	it	eq
    2cfc:	0249      	lsleq	r1, r1, #9
    2cfe:	ea4c 2050 	orr.w	r0, r12, r0, lsr #9
    2d02:	ea40 2051 	orr.w	r0, r0, r1, lsr #9
    2d06:	3a7f      	subs	r2, #127	; 0x7f
    2d08:	bfc2      	ittt	gt
    2d0a:	f1d2 03ff 	rsbsgt	r3, r2, #255	; 0xff
    2d0e:	ea40 50c2 	orrgt.w	r0, r0, r2, lsl #23
    2d12:	4770      	bxgt	lr
    2d14:	f440 0000 	orr.w	r0, r0, #8388608	; 0x800000
    2d18:	f04f 0300 	mov.w	r3, #0
    2d1c:	3a01      	subs	r2, #1
    2d1e:	dc5d      	bgt.n	2ddc <__aeabi_fmul+0x150>
    2d20:	f112 0f19 	cmn.w	r2, #25
    2d24:	bfdc      	itt	le
    2d26:	f000 4000 	andle.w	r0, r0, #2147483648	; 0x80000000
    2d2a:	4770      	bxle	lr
    2d2c:	f1c2 0200 	rsb	r2, r2, #0
    2d30:	0041      	lsls	r1, r0, #1
    2d32:	fa21 f102 	lsr.w	r1, r1, r2
    2d36:	f1c2 0220 	rsb	r2, r2, #32
    2d3a:	fa00 fc02 	lsl.w	r12, r0, r2
    2d3e:	ea5f 0031 	movs.w	r0, r1, rrx
    2d42:	f140 0000 	adc.w	r0, r0, #0
    2d46:	ea53 034c 	orrs.w	r3, r3, r12, lsl #1
    2d4a:	bf08      	it	eq
    2d4c:	ea20 70dc 	biceq.w	r0, r0, r12, lsr #31
    2d50:	4770      	bx	lr
    2d52:	f092 0f00 	teq	r2, #0
    2d56:	f000 4c00 	and.w	r12, r0, #2147483648	; 0x80000000
    2d5a:	bf02      	ittt	eq
    2d5c:	0040      	lsleq	r0, r0, #1
    2d5e:	f410 0f00 	tsteq.w	r0, #8388608	; 0x800000
    2d62:	3a01      	subeq	r2, #1
    2d64:	d0f9      	beq.n	2d5a <__aeabi_fmul+0xce>
    2d66:	ea40 000c 	orr.w	r0, r0, r12
    2d6a:	f093 0f00 	teq	r3, #0
    2d6e:	f001 4c00 	and.w	r12, r1, #2147483648	; 0x80000000
    2d72:	bf02      	ittt	eq
    2d74:	0049      	lsleq	r1, r1, #1
    2d76:	f411 0f00 	tsteq.w	r1, #8388608	; 0x800000
    2d7a:	3b01      	subeq	r3, #1
    2d7c:	d0f9      	beq.n	2d72 <__aeabi_fmul+0xe6>
    2d7e:	ea41 010c 	orr.w	r1, r1, r12
    2d82:	e78f      	b.n	2ca4 <__aeabi_fmul+0x18>
    2d84:	ea0c 53d1 	and.w	r3, r12, r1, lsr #23
    2d88:	ea92 0f0c 	teq	r2, r12
    2d8c:	bf18      	it	ne
    2d8e:	ea93 0f0c 	teqne	r3, r12
    2d92:	d00a      	beq.n	2daa <__aeabi_fmul+0x11e>
    2d94:	f030 4c00 	bics.w	r12, r0, #2147483648	; 0x80000000
    2d98:	bf18      	it	ne
    2d9a:	f031 4c00 	bicsne.w	r12, r1, #2147483648	; 0x80000000
    2d9e:	d1d8      	bne.n	2d52 <__aeabi_fmul+0xc6>
    2da0:	ea80 0001 	eor.w	r0, r0, r1
    2da4:	f000 4000 	and.w	r0, r0, #2147483648	; 0x80000000
    2da8:	4770      	bx	lr
    2daa:	f090 0f00 	teq	r0, #0
    2dae:	bf17      	itett	ne
    2db0:	f090 4f00 	teqne	r0, #2147483648	; 0x80000000
    2db4:	4608      	moveq	r0, r1
    2db6:	f091 0f00 	teqne	r1, #0
    2dba:	f091 4f00 	teqne	r1, #2147483648	; 0x80000000
    2dbe:	d014      	beq.n	2dea <__aeabi_fmul+0x15e>
    2dc0:	ea92 0f0c 	teq	r2, r12
    2dc4:	d101      	bne.n	2dca <__aeabi_fmul+0x13e>
    2dc6:	0242      	lsls	r2, r0, #9
    2dc8:	d10f      	bne.n	2dea <__aeabi_fmul+0x15e>
    2dca:	ea93 0f0c 	teq	r3, r12
    2dce:	d103      	bne.n	2dd8 <__aeabi_fmul+0x14c>
    2dd0:	024b      	lsls	r3, r1, #9
    2dd2:	bf18      	it	ne
    2dd4:	4608      	movne	r0, r1
    2dd6:	d108      	bne.n	2dea <__aeabi_fmul+0x15e>
    2dd8:	ea80 0001 	eor.w	r0, r0, r1
    2ddc:	f000 4000 	and.w	r0, r0, #2147483648	; 0x80000000
    2de0:	f040 40fe 	orr.w	r0, r0, #2130706432	; 0x7f000000
    2de4:	f440 0000 	orr.w	r0, r0, #8388608	; 0x800000
    2de8:	4770      	bx	lr
    2dea:	f040 40fe 	orr.w	r0, r0, #2130706432	; 0x7f000000
    2dee:	f440 0040 	orr.w	r0, r0, #12582912	; 0xc00000
    2df2:	4770      	bx	lr

00002df4 <__aeabi_fdiv>:
    2df4:	f04f 0cff 	mov.w	r12, #255	; 0xff
    2df8:	ea1c 52d0 	ands.w	r2, r12, r0, lsr #23
    2dfc:	bf1e      	ittt	ne
    2dfe:	ea1c 53d1 	andsne.w	r3, r12, r1, lsr #23
    2e02:	ea92 0f0c 	teqne	r2, r12
    2e06:	ea93 0f0c 	teqne	r3, r12
    2e0a:	d069      	beq.n	2ee0 <__aeabi_fdiv+0xec>
    2e0c:	eba2 0203 	sub.w	r2, r2, r3
    2e10:	ea80 0c01 	eor.w	r12, r0, r1
    2e14:	0249      	lsls	r1, r1, #9
    2e16:	ea4f 2040 	mov.w	r0, r0, lsl #9
    2e1a:	d037      	beq.n	2e8c <__aeabi_fdiv+0x98>
    2e1c:	f04f 5380 	mov.w	r3, #268435456	; 0x10000000
    2e20:	ea43 1111 	orr.w	r1, r3, r1, lsr #4
    2e24:	ea43 1310 	orr.w	r3, r3, r0, lsr #4
    2e28:	f00c 4000 	and.w	r0, r12, #2147483648	; 0x80000000
    2e2c:	428b      	cmp	r3, r1
    2e2e:	bf38      	it	cc
    2e30:	005b      	lslcc	r3, r3, #1
    2e32:	f142 027d 	adc.w	r2, r2, #125	; 0x7d
    2e36:	f44f 0c00 	mov.w	r12, #8388608	; 0x800000
    2e3a:	428b      	cmp	r3, r1
    2e3c:	bf24      	itt	cs
    2e3e:	1a5b      	subcs	r3, r3, r1
    2e40:	ea40 000c 	orrcs.w	r0, r0, r12
    2e44:	ebb3 0f51 	cmp.w	r3, r1, lsr #1
    2e48:	bf24      	itt	cs
    2e4a:	eba3 0351 	subcs.w	r3, r3, r1, lsr #1
    2e4e:	ea40 005c 	orrcs.w	r0, r0, r12, lsr #1
    2e52:	ebb3 0f91 	cmp.w	r3, r1, lsr #2
    2e56:	bf24      	itt	cs
    2e58:	eba3 0391 	subcs.w	r3, r3, r1, lsr #2
    2e5c:	ea40 009c 	orrcs.w	r0, r0, r12, lsr #2
    2e60:	ebb3 0fd1 	cmp.w	r3, r1, lsr #3
    2e64:	bf24      	itt	cs
    2e66:	eba3 03d1 	subcs.w	r3, r3, r1, lsr #3
    2e6a:	ea40 00dc 	orrcs.w	r0, r0, r12, lsr #3
    2e6e:	011b      	lsls	r3, r3, #4
    2e70:	bf18      	it	ne
    2e72:	ea5f 1c1c 	movsne.w	r12, r12, lsr #4
    2e76:	d1e0      	bne.n	2e3a <__aeabi_fdiv+0x46>
    2e78:	2afd      	cmp	r2, #253	; 0xfd
    2e7a:	f63f af50 	bhi.w	2d1e <__aeabi_fmul+0x92>
    2e7e:	428b      	cmp	r3, r1
    2e80:	eb40 50c2 	adc.w	r0, r0, r2, lsl #23
    2e84:	bf08      	it	eq
    2e86:	f020 0001 	biceq.w	r0, r0, #1
    2e8a:	4770      	bx	lr
    2e8c:	f00c 4c00 	and.w	r12, r12, #2147483648	; 0x80000000
    2e90:	ea4c 2050 	orr.w	r0, r12, r0, lsr #9
    2e94:	327f      	adds	r2, #127	; 0x7f
    2e96:	bfc2      	ittt	gt
    2e98:	f1d2 03ff 	rsbsgt	r3, r2, #255	; 0xff
    2e9c:	ea40 50c2 	orrgt.w	r0, r0, r2, lsl #23
    2ea0:	4770      	bxgt	lr
    2ea2:	f440 0000 	orr.w	r0, r0, #8388608	; 0x800000
    2ea6:	f04f 0300 	mov.w	r3, #0
    2eaa:	3a01      	subs	r2, #1
    2eac:	e737      	b.n	2d1e <__aeabi_fmul+0x92>
    2eae:	f092 0f00 	teq	r2, #0
    2eb2:	f000 4c00 	and.w	r12, r0, #2147483648	; 0x80000000
    2eb6:	bf02      	ittt	eq
    2eb8:	0040      	lsleq	r0, r0, #1
    2eba:	f410 0f00 	tsteq.w	r0, #8388608	; 0x800000
    2ebe:	3a01      	subeq	r2, #1
    2ec0:	d0f9      	beq.n	2eb6 <__aeabi_fdiv+0xc2>
    2ec2:	ea40 000c 	orr.w	r0, r0, r12
    2ec6:	f093 0f00 	teq	r3, #0
    2eca:	f001 4c00 	and.w	r12, r1, #2147483648	; 0x80000000
    2ece:	bf02      	ittt	eq
    2ed0:	0049      	lsleq	r1, r1, #1
    2ed2:	f411 0f00 	tsteq.w	r1, #8388608	; 0x800000
    2ed6:	3b01      	subeq	r3, #1
    2ed8:	d0f9      	beq.n	2ece <__aeabi_fdiv+0xda>
    2eda:	ea41 010c 	orr.w	r1, r1, r12
    2ede:	e795      	b.n	2e0c <__aeabi_fdiv+0x18>
    2ee0:	ea0c 53d1 	and.w	r3, r12, r1, lsr #23
    2ee4:	ea92 0f0c 	teq	r2, r12
    2ee8:	d108      	bne.n	2efc <__aeabi_fdiv+0x108>
    2eea:	0242      	lsls	r2, r0, #9
    2eec:	f47f af7d 	bne.w	2dea <__aeabi_fmul+0x15e>
    2ef0:	ea93 0f0c 	teq	r3, r12
    2ef4:	f47f af70 	bne.w	2dd8 <__aeabi_fmul+0x14c>
    2ef8:	4608      	mov	r0, r1
    2efa:	e776      	b.n	2dea <__aeabi_fmul+0x15e>
    2efc:	ea93 0f0c 	teq	r3, r12
    2f00:	d104      	bne.n	2f0c <__aeabi_fdiv+0x118>
    2f02:	024b      	lsls	r3, r1, #9
    2f04:	f43f af4c 	beq.w	2da0 <__aeabi_fmul+0x114>
    2f08:	4608      	mov	r0, r1
    2f0a:	e76e      	b.n	2dea <__aeabi_fmul+0x15e>
    2f0c:	f030 4c00 	bics.w	r12, r0, #2147483648	; 0x80000000
    2f10:	bf18      	it	ne
    2f12:	f031 4c00 	bicsne.w	r12, r1, #2147483648	; 0x80000000
    2f16:	d1ca      	bne.n	2eae <__aeabi_fdiv+0xba>
    2f18:	f030 4200 	bics.w	r2, r0, #2147483648	; 0x80000000
    2f1c:	f47f af5c 	bne.w	2dd8 <__aeabi_fmul+0x14c>
    2f20:	f031 4300 	bics.w	r3, r1, #2147483648	; 0x80000000
    2f24:	f47f af3c 	bne.w	2da0 <__aeabi_fmul+0x114>
    2f28:	e75f      	b.n	2dea <__aeabi_fmul+0x15e>
    2f2a:	bf00      	nop

00002f2c <__aeabi_f2iz>:
    2f2c:	ea4f 0240 	mov.w	r2, r0, lsl #1
    2f30:	f1b2 4ffe 	cmp.w	r2, #2130706432	; 0x7f000000
    2f34:	d30f      	bcc.n	2f56 <__aeabi_f2iz+0x2a>
    2f36:	f04f 039e 	mov.w	r3, #158	; 0x9e
    2f3a:	ebb3 6212 	subs.w	r2, r3, r2, lsr #24
    2f3e:	d90d      	bls.n	2f5c <__aeabi_f2iz+0x30>
    2f40:	ea4f 2300 	mov.w	r3, r0, lsl #8
    2f44:	f043 4300 	orr.w	r3, r3, #2147483648	; 0x80000000
    2f48:	f010 4f00 	tst.w	r0, #2147483648	; 0x80000000
    2f4c:	fa23 f002 	lsr.w	r0, r3, r2
    2f50:	bf18      	it	ne
    2f52:	4240      	negne	r0, r0
    2f54:	4770      	bx	lr
    2f56:	f04f 0000 	mov.w	r0, #0
    2f5a:	4770      	bx	lr
    2f5c:	f112 0f61 	cmn.w	r2, #97	; 0x61
    2f60:	d101      	bne.n	2f66 <__aeabi_f2iz+0x3a>
    2f62:	0242      	lsls	r2, r0, #9
    2f64:	d105      	bne.n	2f72 <__aeabi_f2iz+0x46>
    2f66:	f010 4000 	ands.w	r0, r0, #2147483648	; 0x80000000
    2f6a:	bf08      	it	eq
    2f6c:	f06f 4000 	mvneq.w	r0, #2147483648	; 0x80000000
    2f70:	4770      	bx	lr
    2f72:	f04f 0000 	mov.w	r0, #0
    2f76:	4770      	bx	lr

00002f78 <__cxa_atexit>:
    2f78:	b510      	push	{r4, lr}
    2f7a:	4c05      	ldr	r4, [pc, #20]	; (2f90 <__cxa_atexit+0x18>)
    2f7c:	4613      	mov	r3, r2
    2f7e:	b12c      	cbz	r4, 2f8c <__cxa_atexit+0x14>
    2f80:	460a      	mov	r2, r1
    2f82:	4601      	mov	r1, r0
    2f84:	2002      	movs	r0, #2
    2f86:	f3af 8000 	nop.w
    2f8a:	bd10      	pop	{r4, pc}
    2f8c:	4620      	mov	r0, r4
    2f8e:	bd10      	pop	{r4, pc}
    2f90:	00000000 	.word	0x00000000

00002f94 <__errno>:
    2f94:	4b01      	ldr	r3, [pc, #4]	; (2f9c <__errno+0x8>)
    2f96:	6818      	ldr	r0, [r3, #0]
    2f98:	4770      	bx	lr
    2f9a:	bf00      	nop
    2f9c:	10000134 	.word	0x10000134

00002fa0 <exit>:
    2fa0:	b508      	push	{r3, lr}
    2fa2:	4b07      	ldr	r3, [pc, #28]	; (2fc0 <exit+0x20>)
    2fa4:	4604      	mov	r4, r0
    2fa6:	b113      	cbz	r3, 2fae <exit+0xe>
    2fa8:	2100      	movs	r1, #0
    2faa:	f3af 8000 	nop.w
    2fae:	4b05      	ldr	r3, [pc, #20]	; (2fc4 <exit+0x24>)
    2fb0:	6818      	ldr	r0, [r3, #0]
    2fb2:	6a83      	ldr	r3, [r0, #40]	; 0x28
    2fb4:	b103      	cbz	r3, 2fb8 <exit+0x18>
    2fb6:	4798      	blx	r3
    2fb8:	4620      	mov	r0, r4
    2fba:	f7fe ff71 	bl	1ea0 <_exit>
    2fbe:	bf00      	nop
    2fc0:	00000000 	.word	0x00000000
    2fc4:	00006edc 	.word	0x00006edc

00002fc8 <_fclose_r>:
    2fc8:	b570      	push	{r4, r5, r6, lr}
    2fca:	4605      	mov	r5, r0
    2fcc:	460c      	mov	r4, r1
    2fce:	b909      	cbnz	r1, 2fd4 <_fclose_r+0xc>
    2fd0:	2000      	movs	r0, #0
    2fd2:	bd70      	pop	{r4, r5, r6, pc}
    2fd4:	b118      	cbz	r0, 2fde <_fclose_r+0x16>
    2fd6:	6983      	ldr	r3, [r0, #24]
    2fd8:	b90b      	cbnz	r3, 2fde <_fclose_r+0x16>
    2fda:	f000 f951 	bl	3280 <__sinit>
    2fde:	4b20      	ldr	r3, [pc, #128]	; (3060 <_fclose_r+0x98>)
    2fe0:	429c      	cmp	r4, r3
    2fe2:	d101      	bne.n	2fe8 <_fclose_r+0x20>
    2fe4:	686c      	ldr	r4, [r5, #4]
    2fe6:	e008      	b.n	2ffa <_fclose_r+0x32>
    2fe8:	4b1e      	ldr	r3, [pc, #120]	; (3064 <_fclose_r+0x9c>)
    2fea:	429c      	cmp	r4, r3
    2fec:	d101      	bne.n	2ff2 <_fclose_r+0x2a>
    2fee:	68ac      	ldr	r4, [r5, #8]
    2ff0:	e003      	b.n	2ffa <_fclose_r+0x32>
    2ff2:	4b1d      	ldr	r3, [pc, #116]	; (3068 <_fclose_r+0xa0>)
    2ff4:	429c      	cmp	r4, r3
    2ff6:	bf08      	it	eq
    2ff8:	68ec      	ldreq	r4, [r5, #12]
    2ffa:	f9b4 300c 	ldrsh.w	r3, [r4, #12]
    2ffe:	2b00      	cmp	r3, #0
    3000:	d0e6      	beq.n	2fd0 <_fclose_r+0x8>
    3002:	4621      	mov	r1, r4
    3004:	4628      	mov	r0, r5
    3006:	f000 f839 	bl	307c <__sflush_r>
    300a:	6b23      	ldr	r3, [r4, #48]	; 0x30
    300c:	4606      	mov	r6, r0
    300e:	b133      	cbz	r3, 301e <_fclose_r+0x56>
    3010:	6a21      	ldr	r1, [r4, #32]
    3012:	4628      	mov	r0, r5
    3014:	4798      	blx	r3
    3016:	2800      	cmp	r0, #0
    3018:	bfb8      	it	lt
    301a:	f04f 36ff 	movlt.w	r6, #4294967295
    301e:	89a3      	ldrh	r3, [r4, #12]
    3020:	061b      	lsls	r3, r3, #24
    3022:	d503      	bpl.n	302c <_fclose_r+0x64>
    3024:	6921      	ldr	r1, [r4, #16]
    3026:	4628      	mov	r0, r5
    3028:	f000 fb76 	bl	3718 <_free_r>
    302c:	6b61      	ldr	r1, [r4, #52]	; 0x34
    302e:	b141      	cbz	r1, 3042 <_fclose_r+0x7a>
    3030:	f104 0344 	add.w	r3, r4, #68	; 0x44
    3034:	4299      	cmp	r1, r3
    3036:	d002      	beq.n	303e <_fclose_r+0x76>
    3038:	4628      	mov	r0, r5
    303a:	f000 fb6d 	bl	3718 <_free_r>
    303e:	2300      	movs	r3, #0
    3040:	6363      	str	r3, [r4, #52]	; 0x34
    3042:	6ca1      	ldr	r1, [r4, #72]	; 0x48
    3044:	b121      	cbz	r1, 3050 <_fclose_r+0x88>
    3046:	4628      	mov	r0, r5
    3048:	f000 fb66 	bl	3718 <_free_r>
    304c:	2300      	movs	r3, #0
    304e:	64a3      	str	r3, [r4, #72]	; 0x48
    3050:	f000 f982 	bl	3358 <__sfp_lock_acquire>
    3054:	2300      	movs	r3, #0
    3056:	81a3      	strh	r3, [r4, #12]
    3058:	f000 f97f 	bl	335a <__sfp_lock_release>
    305c:	4630      	mov	r0, r6
    305e:	bd70      	pop	{r4, r5, r6, pc}
    3060:	00006e78 	.word	0x00006e78
    3064:	00006e98 	.word	0x00006e98
    3068:	00006eb8 	.word	0x00006eb8

0000306c <fclose>:
    306c:	4b02      	ldr	r3, [pc, #8]	; (3078 <fclose+0xc>)
    306e:	4601      	mov	r1, r0
    3070:	6818      	ldr	r0, [r3, #0]
    3072:	f7ff bfa9 	b.w	2fc8 <_fclose_r>
    3076:	bf00      	nop
    3078:	10000134 	.word	0x10000134

0000307c <__sflush_r>:
    307c:	898a      	ldrh	r2, [r1, #12]
    307e:	e92d 41f0 	stmdb	sp!, {r4, r5, r6, r7, r8, lr}
    3082:	4605      	mov	r5, r0
    3084:	0710      	lsls	r0, r2, #28
    3086:	460c      	mov	r4, r1
    3088:	d459      	bmi.n	313e <__sflush_r+0xc2>
    308a:	684b      	ldr	r3, [r1, #4]
    308c:	2b00      	cmp	r3, #0
    308e:	dc02      	bgt.n	3096 <__sflush_r+0x1a>
    3090:	6c0b      	ldr	r3, [r1, #64]	; 0x40
    3092:	2b00      	cmp	r3, #0
    3094:	dd17      	ble.n	30c6 <__sflush_r+0x4a>
    3096:	6ae6      	ldr	r6, [r4, #44]	; 0x2c
    3098:	b1ae      	cbz	r6, 30c6 <__sflush_r+0x4a>
    309a:	f402 5280 	and.w	r2, r2, #4096	; 0x1000
    309e:	2300      	movs	r3, #0
    30a0:	b292      	uxth	r2, r2
    30a2:	682f      	ldr	r7, [r5, #0]
    30a4:	602b      	str	r3, [r5, #0]
    30a6:	b10a      	cbz	r2, 30ac <__sflush_r+0x30>
    30a8:	6d60      	ldr	r0, [r4, #84]	; 0x54
    30aa:	e015      	b.n	30d8 <__sflush_r+0x5c>
    30ac:	6a21      	ldr	r1, [r4, #32]
    30ae:	2301      	movs	r3, #1
    30b0:	4628      	mov	r0, r5
    30b2:	47b0      	blx	r6
    30b4:	1c41      	adds	r1, r0, #1
    30b6:	d10f      	bne.n	30d8 <__sflush_r+0x5c>
    30b8:	682b      	ldr	r3, [r5, #0]
    30ba:	b16b      	cbz	r3, 30d8 <__sflush_r+0x5c>
    30bc:	2b1d      	cmp	r3, #29
    30be:	d001      	beq.n	30c4 <__sflush_r+0x48>
    30c0:	2b16      	cmp	r3, #22
    30c2:	d103      	bne.n	30cc <__sflush_r+0x50>
    30c4:	602f      	str	r7, [r5, #0]
    30c6:	2000      	movs	r0, #0
    30c8:	e8bd 81f0 	ldmia.w	sp!, {r4, r5, r6, r7, r8, pc}
    30cc:	89a3      	ldrh	r3, [r4, #12]
    30ce:	f043 0340 	orr.w	r3, r3, #64	; 0x40
    30d2:	81a3      	strh	r3, [r4, #12]
    30d4:	e8bd 81f0 	ldmia.w	sp!, {r4, r5, r6, r7, r8, pc}
    30d8:	89a3      	ldrh	r3, [r4, #12]
    30da:	075a      	lsls	r2, r3, #29
    30dc:	d505      	bpl.n	30ea <__sflush_r+0x6e>
    30de:	6863      	ldr	r3, [r4, #4]
    30e0:	1ac0      	subs	r0, r0, r3
    30e2:	6b63      	ldr	r3, [r4, #52]	; 0x34
    30e4:	b10b      	cbz	r3, 30ea <__sflush_r+0x6e>
    30e6:	6c23      	ldr	r3, [r4, #64]	; 0x40
    30e8:	1ac0      	subs	r0, r0, r3
    30ea:	2300      	movs	r3, #0
    30ec:	4602      	mov	r2, r0
    30ee:	6ae6      	ldr	r6, [r4, #44]	; 0x2c
    30f0:	6a21      	ldr	r1, [r4, #32]
    30f2:	4628      	mov	r0, r5
    30f4:	47b0      	blx	r6
    30f6:	1c43      	adds	r3, r0, #1
    30f8:	89a3      	ldrh	r3, [r4, #12]
    30fa:	d106      	bne.n	310a <__sflush_r+0x8e>
    30fc:	6829      	ldr	r1, [r5, #0]
    30fe:	291d      	cmp	r1, #29
    3100:	d839      	bhi.n	3176 <__sflush_r+0xfa>
    3102:	4a20      	ldr	r2, [pc, #128]	; (3184 <__sflush_r+0x108>)
    3104:	40ca      	lsrs	r2, r1
    3106:	07d6      	lsls	r6, r2, #31
    3108:	d535      	bpl.n	3176 <__sflush_r+0xfa>
    310a:	2200      	movs	r2, #0
    310c:	6062      	str	r2, [r4, #4]
    310e:	6922      	ldr	r2, [r4, #16]
    3110:	04d9      	lsls	r1, r3, #19
    3112:	6022      	str	r2, [r4, #0]
    3114:	d504      	bpl.n	3120 <__sflush_r+0xa4>
    3116:	1c42      	adds	r2, r0, #1
    3118:	d101      	bne.n	311e <__sflush_r+0xa2>
    311a:	682b      	ldr	r3, [r5, #0]
    311c:	b903      	cbnz	r3, 3120 <__sflush_r+0xa4>
    311e:	6560      	str	r0, [r4, #84]	; 0x54
    3120:	6b61      	ldr	r1, [r4, #52]	; 0x34
    3122:	602f      	str	r7, [r5, #0]
    3124:	2900      	cmp	r1, #0
    3126:	d0ce      	beq.n	30c6 <__sflush_r+0x4a>
    3128:	f104 0344 	add.w	r3, r4, #68	; 0x44
    312c:	4299      	cmp	r1, r3
    312e:	d002      	beq.n	3136 <__sflush_r+0xba>
    3130:	4628      	mov	r0, r5
    3132:	f000 faf1 	bl	3718 <_free_r>
    3136:	2000      	movs	r0, #0
    3138:	6360      	str	r0, [r4, #52]	; 0x34
    313a:	e8bd 81f0 	ldmia.w	sp!, {r4, r5, r6, r7, r8, pc}
    313e:	690f      	ldr	r7, [r1, #16]
    3140:	2f00      	cmp	r7, #0
    3142:	d0c0      	beq.n	30c6 <__sflush_r+0x4a>
    3144:	0793      	lsls	r3, r2, #30
    3146:	680e      	ldr	r6, [r1, #0]
    3148:	bf0c      	ite	eq
    314a:	694b      	ldreq	r3, [r1, #20]
    314c:	2300      	movne	r3, #0
    314e:	ebc7 0806 	rsb	r8, r7, r6
    3152:	600f      	str	r7, [r1, #0]
    3154:	608b      	str	r3, [r1, #8]
    3156:	e002      	b.n	315e <__sflush_r+0xe2>
    3158:	4407      	add	r7, r0
    315a:	ebc0 0808 	rsb	r8, r0, r8
    315e:	f1b8 0f00 	cmp.w	r8, #0
    3162:	ddb0      	ble.n	30c6 <__sflush_r+0x4a>
    3164:	4643      	mov	r3, r8
    3166:	463a      	mov	r2, r7
    3168:	6a21      	ldr	r1, [r4, #32]
    316a:	4628      	mov	r0, r5
    316c:	6aa6      	ldr	r6, [r4, #40]	; 0x28
    316e:	47b0      	blx	r6
    3170:	2800      	cmp	r0, #0
    3172:	dcf1      	bgt.n	3158 <__sflush_r+0xdc>
    3174:	89a3      	ldrh	r3, [r4, #12]
    3176:	f043 0340 	orr.w	r3, r3, #64	; 0x40
    317a:	81a3      	strh	r3, [r4, #12]
    317c:	f04f 30ff 	mov.w	r0, #4294967295
    3180:	e8bd 81f0 	ldmia.w	sp!, {r4, r5, r6, r7, r8, pc}
    3184:	20400001 	.word	0x20400001

00003188 <_fflush_r>:
    3188:	b538      	push	{r3, r4, r5, lr}
    318a:	690b      	ldr	r3, [r1, #16]
    318c:	4605      	mov	r5, r0
    318e:	460c      	mov	r4, r1
    3190:	b1db      	cbz	r3, 31ca <_fflush_r+0x42>
    3192:	b118      	cbz	r0, 319c <_fflush_r+0x14>
    3194:	6983      	ldr	r3, [r0, #24]
    3196:	b90b      	cbnz	r3, 319c <_fflush_r+0x14>
    3198:	f000 f872 	bl	3280 <__sinit>
    319c:	4b0c      	ldr	r3, [pc, #48]	; (31d0 <_fflush_r+0x48>)
    319e:	429c      	cmp	r4, r3
    31a0:	d101      	bne.n	31a6 <_fflush_r+0x1e>
    31a2:	686c      	ldr	r4, [r5, #4]
    31a4:	e008      	b.n	31b8 <_fflush_r+0x30>
    31a6:	4b0b      	ldr	r3, [pc, #44]	; (31d4 <_fflush_r+0x4c>)
    31a8:	429c      	cmp	r4, r3
    31aa:	d101      	bne.n	31b0 <_fflush_r+0x28>
    31ac:	68ac      	ldr	r4, [r5, #8]
    31ae:	e003      	b.n	31b8 <_fflush_r+0x30>
    31b0:	4b09      	ldr	r3, [pc, #36]	; (31d8 <_fflush_r+0x50>)
    31b2:	429c      	cmp	r4, r3
    31b4:	bf08      	it	eq
    31b6:	68ec      	ldreq	r4, [r5, #12]
    31b8:	f9b4 300c 	ldrsh.w	r3, [r4, #12]
    31bc:	b12b      	cbz	r3, 31ca <_fflush_r+0x42>
    31be:	4621      	mov	r1, r4
    31c0:	4628      	mov	r0, r5
    31c2:	e8bd 4038 	ldmia.w	sp!, {r3, r4, r5, lr}
    31c6:	f7ff bf59 	b.w	307c <__sflush_r>
    31ca:	2000      	movs	r0, #0
    31cc:	bd38      	pop	{r3, r4, r5, pc}
    31ce:	bf00      	nop
    31d0:	00006e78 	.word	0x00006e78
    31d4:	00006e98 	.word	0x00006e98
    31d8:	00006eb8 	.word	0x00006eb8

000031dc <fflush>:
    31dc:	4601      	mov	r1, r0
    31de:	b920      	cbnz	r0, 31ea <fflush+0xe>
    31e0:	4b04      	ldr	r3, [pc, #16]	; (31f4 <fflush+0x18>)
    31e2:	4905      	ldr	r1, [pc, #20]	; (31f8 <fflush+0x1c>)
    31e4:	6818      	ldr	r0, [r3, #0]
    31e6:	f000 b9bb 	b.w	3560 <_fwalk_reent>
    31ea:	4b04      	ldr	r3, [pc, #16]	; (31fc <fflush+0x20>)
    31ec:	6818      	ldr	r0, [r3, #0]
    31ee:	f7ff bfcb 	b.w	3188 <_fflush_r>
    31f2:	bf00      	nop
    31f4:	00006edc 	.word	0x00006edc
    31f8:	00003189 	.word	0x00003189
    31fc:	10000134 	.word	0x10000134

00003200 <_cleanup_r>:
    3200:	4901      	ldr	r1, [pc, #4]	; (3208 <_cleanup_r+0x8>)
    3202:	f000 b9ad 	b.w	3560 <_fwalk_reent>
    3206:	bf00      	nop
    3208:	00003189 	.word	0x00003189

0000320c <std.isra.0>:
    320c:	b510      	push	{r4, lr}
    320e:	4604      	mov	r4, r0
    3210:	2300      	movs	r3, #0
    3212:	6003      	str	r3, [r0, #0]
    3214:	6043      	str	r3, [r0, #4]
    3216:	6083      	str	r3, [r0, #8]
    3218:	8181      	strh	r1, [r0, #12]
    321a:	6643      	str	r3, [r0, #100]	; 0x64
    321c:	81c2      	strh	r2, [r0, #14]
    321e:	6103      	str	r3, [r0, #16]
    3220:	6143      	str	r3, [r0, #20]
    3222:	6183      	str	r3, [r0, #24]
    3224:	4619      	mov	r1, r3
    3226:	2208      	movs	r2, #8
    3228:	305c      	adds	r0, #92	; 0x5c
    322a:	f000 fa6d 	bl	3708 <memset>
    322e:	4b05      	ldr	r3, [pc, #20]	; (3244 <std.isra.0+0x38>)
    3230:	6224      	str	r4, [r4, #32]
    3232:	6263      	str	r3, [r4, #36]	; 0x24
    3234:	4b04      	ldr	r3, [pc, #16]	; (3248 <std.isra.0+0x3c>)
    3236:	62a3      	str	r3, [r4, #40]	; 0x28
    3238:	4b04      	ldr	r3, [pc, #16]	; (324c <std.isra.0+0x40>)
    323a:	62e3      	str	r3, [r4, #44]	; 0x2c
    323c:	4b04      	ldr	r3, [pc, #16]	; (3250 <std.isra.0+0x44>)
    323e:	6323      	str	r3, [r4, #48]	; 0x30
    3240:	bd10      	pop	{r4, pc}
    3242:	bf00      	nop
    3244:	00004985 	.word	0x00004985
    3248:	000049ab 	.word	0x000049ab
    324c:	000049e3 	.word	0x000049e3
    3250:	00004a07 	.word	0x00004a07

00003254 <__sfmoreglue>:
    3254:	b570      	push	{r4, r5, r6, lr}
    3256:	2368      	movs	r3, #104	; 0x68
    3258:	1e4d      	subs	r5, r1, #1
    325a:	435d      	muls	r5, r3
    325c:	460e      	mov	r6, r1
    325e:	f105 0174 	add.w	r1, r5, #116	; 0x74
    3262:	f000 fa9d 	bl	37a0 <_malloc_r>
    3266:	4604      	mov	r4, r0
    3268:	b140      	cbz	r0, 327c <__sfmoreglue+0x28>
    326a:	2100      	movs	r1, #0
    326c:	e880 0042 	stmia.w	r0, {r1, r6}
    3270:	300c      	adds	r0, #12
    3272:	60a0      	str	r0, [r4, #8]
    3274:	f105 0268 	add.w	r2, r5, #104	; 0x68
    3278:	f000 fa46 	bl	3708 <memset>
    327c:	4620      	mov	r0, r4
    327e:	bd70      	pop	{r4, r5, r6, pc}

00003280 <__sinit>:
    3280:	6983      	ldr	r3, [r0, #24]
    3282:	b510      	push	{r4, lr}
    3284:	4604      	mov	r4, r0
    3286:	bb33      	cbnz	r3, 32d6 <__sinit+0x56>
    3288:	6483      	str	r3, [r0, #72]	; 0x48
    328a:	64c3      	str	r3, [r0, #76]	; 0x4c
    328c:	6503      	str	r3, [r0, #80]	; 0x50
    328e:	4b12      	ldr	r3, [pc, #72]	; (32d8 <__sinit+0x58>)
    3290:	4a12      	ldr	r2, [pc, #72]	; (32dc <__sinit+0x5c>)
    3292:	681b      	ldr	r3, [r3, #0]
    3294:	6282      	str	r2, [r0, #40]	; 0x28
    3296:	4298      	cmp	r0, r3
    3298:	bf04      	itt	eq
    329a:	2301      	moveq	r3, #1
    329c:	6183      	streq	r3, [r0, #24]
    329e:	f000 f81f 	bl	32e0 <__sfp>
    32a2:	6060      	str	r0, [r4, #4]
    32a4:	4620      	mov	r0, r4
    32a6:	f000 f81b 	bl	32e0 <__sfp>
    32aa:	60a0      	str	r0, [r4, #8]
    32ac:	4620      	mov	r0, r4
    32ae:	f000 f817 	bl	32e0 <__sfp>
    32b2:	2200      	movs	r2, #0
    32b4:	60e0      	str	r0, [r4, #12]
    32b6:	2104      	movs	r1, #4
    32b8:	6860      	ldr	r0, [r4, #4]
    32ba:	f7ff ffa7 	bl	320c <std.isra.0>
    32be:	2201      	movs	r2, #1
    32c0:	2109      	movs	r1, #9
    32c2:	68a0      	ldr	r0, [r4, #8]
    32c4:	f7ff ffa2 	bl	320c <std.isra.0>
    32c8:	2202      	movs	r2, #2
    32ca:	2112      	movs	r1, #18
    32cc:	68e0      	ldr	r0, [r4, #12]
    32ce:	f7ff ff9d 	bl	320c <std.isra.0>
    32d2:	2301      	movs	r3, #1
    32d4:	61a3      	str	r3, [r4, #24]
    32d6:	bd10      	pop	{r4, pc}
    32d8:	00006edc 	.word	0x00006edc
    32dc:	00003201 	.word	0x00003201

000032e0 <__sfp>:
    32e0:	b5f8      	push	{r3, r4, r5, r6, r7, lr}
    32e2:	4b1c      	ldr	r3, [pc, #112]	; (3354 <__sfp+0x74>)
    32e4:	4607      	mov	r7, r0
    32e6:	681e      	ldr	r6, [r3, #0]
    32e8:	69b3      	ldr	r3, [r6, #24]
    32ea:	b913      	cbnz	r3, 32f2 <__sfp+0x12>
    32ec:	4630      	mov	r0, r6
    32ee:	f7ff ffc7 	bl	3280 <__sinit>
    32f2:	3648      	adds	r6, #72	; 0x48
    32f4:	68b4      	ldr	r4, [r6, #8]
    32f6:	6873      	ldr	r3, [r6, #4]
    32f8:	3b01      	subs	r3, #1
    32fa:	d404      	bmi.n	3306 <__sfp+0x26>
    32fc:	f9b4 500c 	ldrsh.w	r5, [r4, #12]
    3300:	b17d      	cbz	r5, 3322 <__sfp+0x42>
    3302:	3468      	adds	r4, #104	; 0x68
    3304:	e7f8      	b.n	32f8 <__sfp+0x18>
    3306:	6833      	ldr	r3, [r6, #0]
    3308:	b10b      	cbz	r3, 330e <__sfp+0x2e>
    330a:	6836      	ldr	r6, [r6, #0]
    330c:	e7f2      	b.n	32f4 <__sfp+0x14>
    330e:	2104      	movs	r1, #4
    3310:	4638      	mov	r0, r7
    3312:	f7ff ff9f 	bl	3254 <__sfmoreglue>
    3316:	6030      	str	r0, [r6, #0]
    3318:	2800      	cmp	r0, #0
    331a:	d1f6      	bne.n	330a <__sfp+0x2a>
    331c:	230c      	movs	r3, #12
    331e:	603b      	str	r3, [r7, #0]
    3320:	bdf8      	pop	{r3, r4, r5, r6, r7, pc}
    3322:	f64f 73ff 	movw	r3, #65535	; 0xffff
    3326:	81e3      	strh	r3, [r4, #14]
    3328:	2301      	movs	r3, #1
    332a:	81a3      	strh	r3, [r4, #12]
    332c:	6665      	str	r5, [r4, #100]	; 0x64
    332e:	6025      	str	r5, [r4, #0]
    3330:	60a5      	str	r5, [r4, #8]
    3332:	6065      	str	r5, [r4, #4]
    3334:	6125      	str	r5, [r4, #16]
    3336:	6165      	str	r5, [r4, #20]
    3338:	61a5      	str	r5, [r4, #24]
    333a:	2208      	movs	r2, #8
    333c:	4629      	mov	r1, r5
    333e:	f104 005c 	add.w	r0, r4, #92	; 0x5c
    3342:	f000 f9e1 	bl	3708 <memset>
    3346:	6365      	str	r5, [r4, #52]	; 0x34
    3348:	63a5      	str	r5, [r4, #56]	; 0x38
    334a:	64a5      	str	r5, [r4, #72]	; 0x48
    334c:	64e5      	str	r5, [r4, #76]	; 0x4c
    334e:	4620      	mov	r0, r4
    3350:	bdf8      	pop	{r3, r4, r5, r6, r7, pc}
    3352:	bf00      	nop
    3354:	00006edc 	.word	0x00006edc

00003358 <__sfp_lock_acquire>:
    3358:	4770      	bx	lr

0000335a <__sfp_lock_release>:
    335a:	4770      	bx	lr

0000335c <_fopen_r>:
    335c:	b5f7      	push	{r0, r1, r2, r4, r5, r6, r7, lr}
    335e:	460f      	mov	r7, r1
    3360:	4611      	mov	r1, r2
    3362:	aa01      	add	r2, sp, #4
    3364:	4605      	mov	r5, r0
    3366:	f002 fbbf 	bl	5ae8 <__sflags>
    336a:	4606      	mov	r6, r0
    336c:	b908      	cbnz	r0, 3372 <_fopen_r+0x16>
    336e:	2000      	movs	r0, #0
    3370:	e029      	b.n	33c6 <_fopen_r+0x6a>
    3372:	4628      	mov	r0, r5
    3374:	f7ff ffb4 	bl	32e0 <__sfp>
    3378:	4604      	mov	r4, r0
    337a:	2800      	cmp	r0, #0
    337c:	d0f7      	beq.n	336e <_fopen_r+0x12>
    337e:	f44f 73db 	mov.w	r3, #438	; 0x1b6
    3382:	9a01      	ldr	r2, [sp, #4]
    3384:	4639      	mov	r1, r7
    3386:	4628      	mov	r0, r5
    3388:	f001 f968 	bl	465c <_open_r>
    338c:	2800      	cmp	r0, #0
    338e:	da06      	bge.n	339e <_fopen_r+0x42>
    3390:	2500      	movs	r5, #0
    3392:	f7ff ffe1 	bl	3358 <__sfp_lock_acquire>
    3396:	81a5      	strh	r5, [r4, #12]
    3398:	f7ff ffdf 	bl	335a <__sfp_lock_release>
    339c:	e7e7      	b.n	336e <_fopen_r+0x12>
    339e:	4b0b      	ldr	r3, [pc, #44]	; (33cc <_fopen_r+0x70>)
    33a0:	81e0      	strh	r0, [r4, #14]
    33a2:	6263      	str	r3, [r4, #36]	; 0x24
    33a4:	4b0a      	ldr	r3, [pc, #40]	; (33d0 <_fopen_r+0x74>)
    33a6:	81a6      	strh	r6, [r4, #12]
    33a8:	62a3      	str	r3, [r4, #40]	; 0x28
    33aa:	4b0a      	ldr	r3, [pc, #40]	; (33d4 <_fopen_r+0x78>)
    33ac:	6224      	str	r4, [r4, #32]
    33ae:	62e3      	str	r3, [r4, #44]	; 0x2c
    33b0:	4b09      	ldr	r3, [pc, #36]	; (33d8 <_fopen_r+0x7c>)
    33b2:	6323      	str	r3, [r4, #48]	; 0x30
    33b4:	05f3      	lsls	r3, r6, #23
    33b6:	d505      	bpl.n	33c4 <_fopen_r+0x68>
    33b8:	2302      	movs	r3, #2
    33ba:	2200      	movs	r2, #0
    33bc:	4621      	mov	r1, r4
    33be:	4628      	mov	r0, r5
    33c0:	f000 f840 	bl	3444 <_fseek_r>
    33c4:	4620      	mov	r0, r4
    33c6:	b003      	add	sp, #12
    33c8:	bdf0      	pop	{r4, r5, r6, r7, pc}
    33ca:	bf00      	nop
    33cc:	00004985 	.word	0x00004985
    33d0:	000049ab 	.word	0x000049ab
    33d4:	000049e3 	.word	0x000049e3
    33d8:	00004a07 	.word	0x00004a07

000033dc <fopen>:
    33dc:	4b02      	ldr	r3, [pc, #8]	; (33e8 <fopen+0xc>)
    33de:	460a      	mov	r2, r1
    33e0:	4601      	mov	r1, r0
    33e2:	6818      	ldr	r0, [r3, #0]
    33e4:	f7ff bfba 	b.w	335c <_fopen_r>
    33e8:	10000134 	.word	0x10000134

000033ec <_fputc_r>:
    33ec:	b570      	push	{r4, r5, r6, lr}
    33ee:	460e      	mov	r6, r1
    33f0:	4614      	mov	r4, r2
    33f2:	4605      	mov	r5, r0
    33f4:	b118      	cbz	r0, 33fe <_fputc_r+0x12>
    33f6:	6983      	ldr	r3, [r0, #24]
    33f8:	b90b      	cbnz	r3, 33fe <_fputc_r+0x12>
    33fa:	f7ff ff41 	bl	3280 <__sinit>
    33fe:	4b0a      	ldr	r3, [pc, #40]	; (3428 <_fputc_r+0x3c>)
    3400:	429c      	cmp	r4, r3
    3402:	d101      	bne.n	3408 <_fputc_r+0x1c>
    3404:	686c      	ldr	r4, [r5, #4]
    3406:	e008      	b.n	341a <_fputc_r+0x2e>
    3408:	4b08      	ldr	r3, [pc, #32]	; (342c <_fputc_r+0x40>)
    340a:	429c      	cmp	r4, r3
    340c:	d101      	bne.n	3412 <_fputc_r+0x26>
    340e:	68ac      	ldr	r4, [r5, #8]
    3410:	e003      	b.n	341a <_fputc_r+0x2e>
    3412:	4b07      	ldr	r3, [pc, #28]	; (3430 <_fputc_r+0x44>)
    3414:	429c      	cmp	r4, r3
    3416:	bf08      	it	eq
    3418:	68ec      	ldreq	r4, [r5, #12]
    341a:	4622      	mov	r2, r4
    341c:	4631      	mov	r1, r6
    341e:	4628      	mov	r0, r5
    3420:	e8bd 4070 	ldmia.w	sp!, {r4, r5, r6, lr}
    3424:	f001 b92c 	b.w	4680 <_putc_r>
    3428:	00006e78 	.word	0x00006e78
    342c:	00006e98 	.word	0x00006e98
    3430:	00006eb8 	.word	0x00006eb8

00003434 <fputc>:
    3434:	4b02      	ldr	r3, [pc, #8]	; (3440 <fputc+0xc>)
    3436:	460a      	mov	r2, r1
    3438:	4601      	mov	r1, r0
    343a:	6818      	ldr	r0, [r3, #0]
    343c:	f7ff bfd6 	b.w	33ec <_fputc_r>
    3440:	10000134 	.word	0x10000134

00003444 <_fseek_r>:
    3444:	f000 b800 	b.w	3448 <_fseeko_r>

00003448 <_fseeko_r>:
    3448:	e92d 43f8 	stmdb	sp!, {r3, r4, r5, r6, r7, r8, r9, lr}
    344c:	460c      	mov	r4, r1
    344e:	4690      	mov	r8, r2
    3450:	461e      	mov	r6, r3
    3452:	4605      	mov	r5, r0
    3454:	b118      	cbz	r0, 345e <_fseeko_r+0x16>
    3456:	6983      	ldr	r3, [r0, #24]
    3458:	b90b      	cbnz	r3, 345e <_fseeko_r+0x16>
    345a:	f7ff ff11 	bl	3280 <__sinit>
    345e:	4b3d      	ldr	r3, [pc, #244]	; (3554 <_fseeko_r+0x10c>)
    3460:	429c      	cmp	r4, r3
    3462:	d101      	bne.n	3468 <_fseeko_r+0x20>
    3464:	686c      	ldr	r4, [r5, #4]
    3466:	e008      	b.n	347a <_fseeko_r+0x32>
    3468:	4b3b      	ldr	r3, [pc, #236]	; (3558 <_fseeko_r+0x110>)
    346a:	429c      	cmp	r4, r3
    346c:	d101      	bne.n	3472 <_fseeko_r+0x2a>
    346e:	68ac      	ldr	r4, [r5, #8]
    3470:	e003      	b.n	347a <_fseeko_r+0x32>
    3472:	4b3a      	ldr	r3, [pc, #232]	; (355c <_fseeko_r+0x114>)
    3474:	429c      	cmp	r4, r3
    3476:	bf08      	it	eq
    3478:	68ec      	ldreq	r4, [r5, #12]
    347a:	89a3      	ldrh	r3, [r4, #12]
    347c:	f403 7384 	and.w	r3, r3, #264	; 0x108
    3480:	f5b3 7f84 	cmp.w	r3, #264	; 0x108
    3484:	d103      	bne.n	348e <_fseeko_r+0x46>
    3486:	4621      	mov	r1, r4
    3488:	4628      	mov	r0, r5
    348a:	f7ff fe7d 	bl	3188 <_fflush_r>
    348e:	6ae7      	ldr	r7, [r4, #44]	; 0x2c
    3490:	b90f      	cbnz	r7, 3496 <_fseeko_r+0x4e>
    3492:	231d      	movs	r3, #29
    3494:	e02b      	b.n	34ee <_fseeko_r+0xa6>
    3496:	2e01      	cmp	r6, #1
    3498:	d004      	beq.n	34a4 <_fseeko_r+0x5c>
    349a:	2e02      	cmp	r6, #2
    349c:	d02b      	beq.n	34f6 <_fseeko_r+0xae>
    349e:	b356      	cbz	r6, 34f6 <_fseeko_r+0xae>
    34a0:	2316      	movs	r3, #22
    34a2:	e024      	b.n	34ee <_fseeko_r+0xa6>
    34a4:	4621      	mov	r1, r4
    34a6:	4628      	mov	r0, r5
    34a8:	f7ff fe6e 	bl	3188 <_fflush_r>
    34ac:	89a2      	ldrh	r2, [r4, #12]
    34ae:	f402 5280 	and.w	r2, r2, #4096	; 0x1000
    34b2:	b292      	uxth	r2, r2
    34b4:	b10a      	cbz	r2, 34ba <_fseeko_r+0x72>
    34b6:	6d60      	ldr	r0, [r4, #84]	; 0x54
    34b8:	e005      	b.n	34c6 <_fseeko_r+0x7e>
    34ba:	6a21      	ldr	r1, [r4, #32]
    34bc:	4633      	mov	r3, r6
    34be:	4628      	mov	r0, r5
    34c0:	47b8      	blx	r7
    34c2:	1c41      	adds	r1, r0, #1
    34c4:	d014      	beq.n	34f0 <_fseeko_r+0xa8>
    34c6:	89a3      	ldrh	r3, [r4, #12]
    34c8:	075a      	lsls	r2, r3, #29
    34ca:	d506      	bpl.n	34da <_fseeko_r+0x92>
    34cc:	6863      	ldr	r3, [r4, #4]
    34ce:	1ac0      	subs	r0, r0, r3
    34d0:	6b63      	ldr	r3, [r4, #52]	; 0x34
    34d2:	b14b      	cbz	r3, 34e8 <_fseeko_r+0xa0>
    34d4:	6c23      	ldr	r3, [r4, #64]	; 0x40
    34d6:	1ac0      	subs	r0, r0, r3
    34d8:	e006      	b.n	34e8 <_fseeko_r+0xa0>
    34da:	071b      	lsls	r3, r3, #28
    34dc:	d504      	bpl.n	34e8 <_fseeko_r+0xa0>
    34de:	6823      	ldr	r3, [r4, #0]
    34e0:	b113      	cbz	r3, 34e8 <_fseeko_r+0xa0>
    34e2:	6922      	ldr	r2, [r4, #16]
    34e4:	1a9b      	subs	r3, r3, r2
    34e6:	4418      	add	r0, r3
    34e8:	4480      	add	r8, r0
    34ea:	2600      	movs	r6, #0
    34ec:	e003      	b.n	34f6 <_fseeko_r+0xae>
    34ee:	602b      	str	r3, [r5, #0]
    34f0:	f04f 39ff 	mov.w	r9, #4294967295
    34f4:	e02b      	b.n	354e <_fseeko_r+0x106>
    34f6:	6923      	ldr	r3, [r4, #16]
    34f8:	b91b      	cbnz	r3, 3502 <_fseeko_r+0xba>
    34fa:	4621      	mov	r1, r4
    34fc:	4628      	mov	r0, r5
    34fe:	f000 f873 	bl	35e8 <__smakebuf_r>
    3502:	4621      	mov	r1, r4
    3504:	4628      	mov	r0, r5
    3506:	f7ff fe3f 	bl	3188 <_fflush_r>
    350a:	4681      	mov	r9, r0
    350c:	2800      	cmp	r0, #0
    350e:	d1ef      	bne.n	34f0 <_fseeko_r+0xa8>
    3510:	4633      	mov	r3, r6
    3512:	4642      	mov	r2, r8
    3514:	6a21      	ldr	r1, [r4, #32]
    3516:	4628      	mov	r0, r5
    3518:	47b8      	blx	r7
    351a:	3001      	adds	r0, #1
    351c:	d0e8      	beq.n	34f0 <_fseeko_r+0xa8>
    351e:	6b61      	ldr	r1, [r4, #52]	; 0x34
    3520:	b141      	cbz	r1, 3534 <_fseeko_r+0xec>
    3522:	f104 0344 	add.w	r3, r4, #68	; 0x44
    3526:	4299      	cmp	r1, r3
    3528:	d002      	beq.n	3530 <_fseeko_r+0xe8>
    352a:	4628      	mov	r0, r5
    352c:	f000 f8f4 	bl	3718 <_free_r>
    3530:	2300      	movs	r3, #0
    3532:	6363      	str	r3, [r4, #52]	; 0x34
    3534:	6923      	ldr	r3, [r4, #16]
    3536:	2100      	movs	r1, #0
    3538:	6023      	str	r3, [r4, #0]
    353a:	89a3      	ldrh	r3, [r4, #12]
    353c:	6061      	str	r1, [r4, #4]
    353e:	f423 6302 	bic.w	r3, r3, #2080	; 0x820
    3542:	81a3      	strh	r3, [r4, #12]
    3544:	2208      	movs	r2, #8
    3546:	f104 005c 	add.w	r0, r4, #92	; 0x5c
    354a:	f000 f8dd 	bl	3708 <memset>
    354e:	4648      	mov	r0, r9
    3550:	e8bd 83f8 	ldmia.w	sp!, {r3, r4, r5, r6, r7, r8, r9, pc}
    3554:	00006e78 	.word	0x00006e78
    3558:	00006e98 	.word	0x00006e98
    355c:	00006eb8 	.word	0x00006eb8

00003560 <_fwalk_reent>:
    3560:	e92d 43f8 	stmdb	sp!, {r3, r4, r5, r6, r7, r8, r9, lr}
    3564:	4680      	mov	r8, r0
    3566:	4689      	mov	r9, r1
    3568:	f100 0448 	add.w	r4, r0, #72	; 0x48
    356c:	2600      	movs	r6, #0
    356e:	b194      	cbz	r4, 3596 <_fwalk_reent+0x36>
    3570:	68a5      	ldr	r5, [r4, #8]
    3572:	6867      	ldr	r7, [r4, #4]
    3574:	3f01      	subs	r7, #1
    3576:	d40c      	bmi.n	3592 <_fwalk_reent+0x32>
    3578:	89ab      	ldrh	r3, [r5, #12]
    357a:	2b01      	cmp	r3, #1
    357c:	d907      	bls.n	358e <_fwalk_reent+0x2e>
    357e:	f9b5 300e 	ldrsh.w	r3, [r5, #14]
    3582:	3301      	adds	r3, #1
    3584:	d003      	beq.n	358e <_fwalk_reent+0x2e>
    3586:	4629      	mov	r1, r5
    3588:	4640      	mov	r0, r8
    358a:	47c8      	blx	r9
    358c:	4306      	orrs	r6, r0
    358e:	3568      	adds	r5, #104	; 0x68
    3590:	e7f0      	b.n	3574 <_fwalk_reent+0x14>
    3592:	6824      	ldr	r4, [r4, #0]
    3594:	e7eb      	b.n	356e <_fwalk_reent+0xe>
    3596:	4630      	mov	r0, r6
    3598:	e8bd 83f8 	ldmia.w	sp!, {r3, r4, r5, r6, r7, r8, r9, pc}

0000359c <__libc_init_array>:
    359c:	4b0e      	ldr	r3, [pc, #56]	; (35d8 <__libc_init_array+0x3c>)
    359e:	b570      	push	{r4, r5, r6, lr}
    35a0:	461e      	mov	r6, r3
    35a2:	4c0e      	ldr	r4, [pc, #56]	; (35dc <__libc_init_array+0x40>)
    35a4:	2500      	movs	r5, #0
    35a6:	1ae4      	subs	r4, r4, r3
    35a8:	10a4      	asrs	r4, r4, #2
    35aa:	42a5      	cmp	r5, r4
    35ac:	d004      	beq.n	35b8 <__libc_init_array+0x1c>
    35ae:	f856 3025 	ldr.w	r3, [r6, r5, lsl #2]
    35b2:	4798      	blx	r3
    35b4:	3501      	adds	r5, #1
    35b6:	e7f8      	b.n	35aa <__libc_init_array+0xe>
    35b8:	f003 f9ac 	bl	6914 <_init>
    35bc:	4b08      	ldr	r3, [pc, #32]	; (35e0 <__libc_init_array+0x44>)
    35be:	4c09      	ldr	r4, [pc, #36]	; (35e4 <__libc_init_array+0x48>)
    35c0:	461e      	mov	r6, r3
    35c2:	1ae4      	subs	r4, r4, r3
    35c4:	10a4      	asrs	r4, r4, #2
    35c6:	2500      	movs	r5, #0
    35c8:	42a5      	cmp	r5, r4
    35ca:	d004      	beq.n	35d6 <__libc_init_array+0x3a>
    35cc:	f856 3025 	ldr.w	r3, [r6, r5, lsl #2]
    35d0:	4798      	blx	r3
    35d2:	3501      	adds	r5, #1
    35d4:	e7f8      	b.n	35c8 <__libc_init_array+0x2c>
    35d6:	bd70      	pop	{r4, r5, r6, pc}
    35d8:	10000174 	.word	0x10000174
    35dc:	10000174 	.word	0x10000174
    35e0:	10000174 	.word	0x10000174
    35e4:	1000017c 	.word	0x1000017c

000035e8 <__smakebuf_r>:
    35e8:	b5f0      	push	{r4, r5, r6, r7, lr}
    35ea:	898b      	ldrh	r3, [r1, #12]
    35ec:	b091      	sub	sp, #68	; 0x44
    35ee:	079d      	lsls	r5, r3, #30
    35f0:	4606      	mov	r6, r0
    35f2:	460c      	mov	r4, r1
    35f4:	d425      	bmi.n	3642 <__smakebuf_r+0x5a>
    35f6:	f9b1 100e 	ldrsh.w	r1, [r1, #14]
    35fa:	2900      	cmp	r1, #0
    35fc:	da08      	bge.n	3610 <__smakebuf_r+0x28>
    35fe:	89a3      	ldrh	r3, [r4, #12]
    3600:	2500      	movs	r5, #0
    3602:	f013 0f80 	tst.w	r3, #128	; 0x80
    3606:	bf14      	ite	ne
    3608:	2740      	movne	r7, #64	; 0x40
    360a:	f44f 6780 	moveq.w	r7, #1024	; 0x400
    360e:	e00d      	b.n	362c <__smakebuf_r+0x44>
    3610:	aa01      	add	r2, sp, #4
    3612:	f002 faa1 	bl	5b58 <_fstat_r>
    3616:	2800      	cmp	r0, #0
    3618:	dbf1      	blt.n	35fe <__smakebuf_r+0x16>
    361a:	9d02      	ldr	r5, [sp, #8]
    361c:	f44f 6780 	mov.w	r7, #1024	; 0x400
    3620:	f405 4570 	and.w	r5, r5, #61440	; 0xf000
    3624:	f5a5 5100 	sub.w	r1, r5, #8192	; 0x2000
    3628:	424d      	negs	r5, r1
    362a:	414d      	adcs	r5, r1
    362c:	4639      	mov	r1, r7
    362e:	4630      	mov	r0, r6
    3630:	f000 f8b6 	bl	37a0 <_malloc_r>
    3634:	b960      	cbnz	r0, 3650 <__smakebuf_r+0x68>
    3636:	89a3      	ldrh	r3, [r4, #12]
    3638:	059a      	lsls	r2, r3, #22
    363a:	d41d      	bmi.n	3678 <__smakebuf_r+0x90>
    363c:	f043 0302 	orr.w	r3, r3, #2
    3640:	81a3      	strh	r3, [r4, #12]
    3642:	f104 0347 	add.w	r3, r4, #71	; 0x47
    3646:	6023      	str	r3, [r4, #0]
    3648:	6123      	str	r3, [r4, #16]
    364a:	2301      	movs	r3, #1
    364c:	6163      	str	r3, [r4, #20]
    364e:	e013      	b.n	3678 <__smakebuf_r+0x90>
    3650:	4b0a      	ldr	r3, [pc, #40]	; (367c <__smakebuf_r+0x94>)
    3652:	62b3      	str	r3, [r6, #40]	; 0x28
    3654:	89a3      	ldrh	r3, [r4, #12]
    3656:	6020      	str	r0, [r4, #0]
    3658:	f043 0380 	orr.w	r3, r3, #128	; 0x80
    365c:	81a3      	strh	r3, [r4, #12]
    365e:	6120      	str	r0, [r4, #16]
    3660:	6167      	str	r7, [r4, #20]
    3662:	b14d      	cbz	r5, 3678 <__smakebuf_r+0x90>
    3664:	f9b4 100e 	ldrsh.w	r1, [r4, #14]
    3668:	4630      	mov	r0, r6
    366a:	f002 fa87 	bl	5b7c <_isatty_r>
    366e:	b118      	cbz	r0, 3678 <__smakebuf_r+0x90>
    3670:	89a3      	ldrh	r3, [r4, #12]
    3672:	f043 0301 	orr.w	r3, r3, #1
    3676:	81a3      	strh	r3, [r4, #12]
    3678:	b011      	add	sp, #68	; 0x44
    367a:	bdf0      	pop	{r4, r5, r6, r7, pc}
    367c:	00003201 	.word	0x00003201

00003680 <malloc>:
    3680:	4b02      	ldr	r3, [pc, #8]	; (368c <malloc+0xc>)
    3682:	4601      	mov	r1, r0
    3684:	6818      	ldr	r0, [r3, #0]
    3686:	f000 b88b 	b.w	37a0 <_malloc_r>
    368a:	bf00      	nop
    368c:	10000134 	.word	0x10000134

00003690 <free>:
    3690:	4b02      	ldr	r3, [pc, #8]	; (369c <free+0xc>)
    3692:	4601      	mov	r1, r0
    3694:	6818      	ldr	r0, [r3, #0]
    3696:	f000 b83f 	b.w	3718 <_free_r>
    369a:	bf00      	nop
    369c:	10000134 	.word	0x10000134

000036a0 <memchr>:
    36a0:	b510      	push	{r4, lr}
    36a2:	b2c9      	uxtb	r1, r1
    36a4:	4402      	add	r2, r0
    36a6:	4290      	cmp	r0, r2
    36a8:	4603      	mov	r3, r0
    36aa:	d005      	beq.n	36b8 <memchr+0x18>
    36ac:	781c      	ldrb	r4, [r3, #0]
    36ae:	3001      	adds	r0, #1
    36b0:	428c      	cmp	r4, r1
    36b2:	d1f8      	bne.n	36a6 <memchr+0x6>
    36b4:	4618      	mov	r0, r3
    36b6:	bd10      	pop	{r4, pc}
    36b8:	2000      	movs	r0, #0
    36ba:	bd10      	pop	{r4, pc}

000036bc <memcpy>:
    36bc:	b510      	push	{r4, lr}
    36be:	1e43      	subs	r3, r0, #1
    36c0:	440a      	add	r2, r1
    36c2:	4291      	cmp	r1, r2
    36c4:	d004      	beq.n	36d0 <memcpy+0x14>
    36c6:	f811 4b01 	ldrb.w	r4, [r1], #1
    36ca:	f803 4f01 	strb.w	r4, [r3, #1]!
    36ce:	e7f8      	b.n	36c2 <memcpy+0x6>
    36d0:	bd10      	pop	{r4, pc}

000036d2 <memmove>:
    36d2:	4288      	cmp	r0, r1
    36d4:	b510      	push	{r4, lr}
    36d6:	eb01 0302 	add.w	r3, r1, r2
    36da:	d801      	bhi.n	36e0 <memmove+0xe>
    36dc:	1e42      	subs	r2, r0, #1
    36de:	e00b      	b.n	36f8 <memmove+0x26>
    36e0:	4298      	cmp	r0, r3
    36e2:	d2fb      	bcs.n	36dc <memmove+0xa>
    36e4:	1881      	adds	r1, r0, r2
    36e6:	1ad2      	subs	r2, r2, r3
    36e8:	42d3      	cmn	r3, r2
    36ea:	d004      	beq.n	36f6 <memmove+0x24>
    36ec:	f813 4d01 	ldrb.w	r4, [r3, #-1]!
    36f0:	f801 4d01 	strb.w	r4, [r1, #-1]!
    36f4:	e7f8      	b.n	36e8 <memmove+0x16>
    36f6:	bd10      	pop	{r4, pc}
    36f8:	4299      	cmp	r1, r3
    36fa:	d004      	beq.n	3706 <memmove+0x34>
    36fc:	f811 4b01 	ldrb.w	r4, [r1], #1
    3700:	f802 4f01 	strb.w	r4, [r2, #1]!
    3704:	e7f8      	b.n	36f8 <memmove+0x26>
    3706:	bd10      	pop	{r4, pc}

00003708 <memset>:
    3708:	4603      	mov	r3, r0
    370a:	4402      	add	r2, r0
    370c:	4293      	cmp	r3, r2
    370e:	d002      	beq.n	3716 <memset+0xe>
    3710:	f803 1b01 	strb.w	r1, [r3], #1
    3714:	e7fa      	b.n	370c <memset+0x4>
    3716:	4770      	bx	lr

00003718 <_free_r>:
    3718:	b530      	push	{r4, r5, lr}
    371a:	2900      	cmp	r1, #0
    371c:	d03c      	beq.n	3798 <_free_r+0x80>
    371e:	f851 2c04 	ldr.w	r2, [r1, #-4]
    3722:	1f0b      	subs	r3, r1, #4
    3724:	491d      	ldr	r1, [pc, #116]	; (379c <_free_r+0x84>)
    3726:	2a00      	cmp	r2, #0
    3728:	bfb8      	it	lt
    372a:	189b      	addlt	r3, r3, r2
    372c:	680a      	ldr	r2, [r1, #0]
    372e:	460c      	mov	r4, r1
    3730:	b912      	cbnz	r2, 3738 <_free_r+0x20>
    3732:	605a      	str	r2, [r3, #4]
    3734:	600b      	str	r3, [r1, #0]
    3736:	bd30      	pop	{r4, r5, pc}
    3738:	429a      	cmp	r2, r3
    373a:	d90d      	bls.n	3758 <_free_r+0x40>
    373c:	6819      	ldr	r1, [r3, #0]
    373e:	1858      	adds	r0, r3, r1
    3740:	4282      	cmp	r2, r0
    3742:	bf01      	itttt	eq
    3744:	6810      	ldreq	r0, [r2, #0]
    3746:	6852      	ldreq	r2, [r2, #4]
    3748:	1809      	addeq	r1, r1, r0
    374a:	6019      	streq	r1, [r3, #0]
    374c:	605a      	str	r2, [r3, #4]
    374e:	6023      	str	r3, [r4, #0]
    3750:	bd30      	pop	{r4, r5, pc}
    3752:	4299      	cmp	r1, r3
    3754:	d803      	bhi.n	375e <_free_r+0x46>
    3756:	460a      	mov	r2, r1
    3758:	6851      	ldr	r1, [r2, #4]
    375a:	2900      	cmp	r1, #0
    375c:	d1f9      	bne.n	3752 <_free_r+0x3a>
    375e:	6814      	ldr	r4, [r2, #0]
    3760:	1915      	adds	r5, r2, r4
    3762:	429d      	cmp	r5, r3
    3764:	d10a      	bne.n	377c <_free_r+0x64>
    3766:	681b      	ldr	r3, [r3, #0]
    3768:	4423      	add	r3, r4
    376a:	18d0      	adds	r0, r2, r3
    376c:	4281      	cmp	r1, r0
    376e:	6013      	str	r3, [r2, #0]
    3770:	d112      	bne.n	3798 <_free_r+0x80>
    3772:	6808      	ldr	r0, [r1, #0]
    3774:	4403      	add	r3, r0
    3776:	6013      	str	r3, [r2, #0]
    3778:	684b      	ldr	r3, [r1, #4]
    377a:	e00c      	b.n	3796 <_free_r+0x7e>
    377c:	d902      	bls.n	3784 <_free_r+0x6c>
    377e:	230c      	movs	r3, #12
    3780:	6003      	str	r3, [r0, #0]
    3782:	bd30      	pop	{r4, r5, pc}
    3784:	6818      	ldr	r0, [r3, #0]
    3786:	181c      	adds	r4, r3, r0
    3788:	42a1      	cmp	r1, r4
    378a:	bf01      	itttt	eq
    378c:	680c      	ldreq	r4, [r1, #0]
    378e:	6849      	ldreq	r1, [r1, #4]
    3790:	1900      	addeq	r0, r0, r4
    3792:	6018      	streq	r0, [r3, #0]
    3794:	6059      	str	r1, [r3, #4]
    3796:	6053      	str	r3, [r2, #4]
    3798:	bd30      	pop	{r4, r5, pc}
    379a:	bf00      	nop
    379c:	100004cc 	.word	0x100004cc

000037a0 <_malloc_r>:
    37a0:	b570      	push	{r4, r5, r6, lr}
    37a2:	1ccd      	adds	r5, r1, #3
    37a4:	f025 0503 	bic.w	r5, r5, #3
    37a8:	3508      	adds	r5, #8
    37aa:	2d0c      	cmp	r5, #12
    37ac:	bf38      	it	cc
    37ae:	250c      	movcc	r5, #12
    37b0:	2d00      	cmp	r5, #0
    37b2:	4606      	mov	r6, r0
    37b4:	da03      	bge.n	37be <_malloc_r+0x1e>
    37b6:	230c      	movs	r3, #12
    37b8:	6033      	str	r3, [r6, #0]
    37ba:	2000      	movs	r0, #0
    37bc:	bd70      	pop	{r4, r5, r6, pc}
    37be:	42a9      	cmp	r1, r5
    37c0:	d8f9      	bhi.n	37b6 <_malloc_r+0x16>
    37c2:	4b1f      	ldr	r3, [pc, #124]	; (3840 <_malloc_r+0xa0>)
    37c4:	681c      	ldr	r4, [r3, #0]
    37c6:	461a      	mov	r2, r3
    37c8:	4621      	mov	r1, r4
    37ca:	b1a1      	cbz	r1, 37f6 <_malloc_r+0x56>
    37cc:	680b      	ldr	r3, [r1, #0]
    37ce:	1b5b      	subs	r3, r3, r5
    37d0:	d40e      	bmi.n	37f0 <_malloc_r+0x50>
    37d2:	2b0b      	cmp	r3, #11
    37d4:	d903      	bls.n	37de <_malloc_r+0x3e>
    37d6:	600b      	str	r3, [r1, #0]
    37d8:	18cc      	adds	r4, r1, r3
    37da:	50cd      	str	r5, [r1, r3]
    37dc:	e01e      	b.n	381c <_malloc_r+0x7c>
    37de:	428c      	cmp	r4, r1
    37e0:	bf0b      	itete	eq
    37e2:	6863      	ldreq	r3, [r4, #4]
    37e4:	684b      	ldrne	r3, [r1, #4]
    37e6:	6013      	streq	r3, [r2, #0]
    37e8:	6063      	strne	r3, [r4, #4]
    37ea:	bf18      	it	ne
    37ec:	460c      	movne	r4, r1
    37ee:	e015      	b.n	381c <_malloc_r+0x7c>
    37f0:	460c      	mov	r4, r1
    37f2:	6849      	ldr	r1, [r1, #4]
    37f4:	e7e9      	b.n	37ca <_malloc_r+0x2a>
    37f6:	4c13      	ldr	r4, [pc, #76]	; (3844 <_malloc_r+0xa4>)
    37f8:	6823      	ldr	r3, [r4, #0]
    37fa:	b91b      	cbnz	r3, 3804 <_malloc_r+0x64>
    37fc:	4630      	mov	r0, r6
    37fe:	f000 ffa3 	bl	4748 <_sbrk_r>
    3802:	6020      	str	r0, [r4, #0]
    3804:	4629      	mov	r1, r5
    3806:	4630      	mov	r0, r6
    3808:	f000 ff9e 	bl	4748 <_sbrk_r>
    380c:	1c43      	adds	r3, r0, #1
    380e:	d0d2      	beq.n	37b6 <_malloc_r+0x16>
    3810:	1cc4      	adds	r4, r0, #3
    3812:	f024 0403 	bic.w	r4, r4, #3
    3816:	42a0      	cmp	r0, r4
    3818:	d10a      	bne.n	3830 <_malloc_r+0x90>
    381a:	6025      	str	r5, [r4, #0]
    381c:	f104 000b 	add.w	r0, r4, #11
    3820:	1d23      	adds	r3, r4, #4
    3822:	f020 0007 	bic.w	r0, r0, #7
    3826:	1ac3      	subs	r3, r0, r3
    3828:	d009      	beq.n	383e <_malloc_r+0x9e>
    382a:	425a      	negs	r2, r3
    382c:	50e2      	str	r2, [r4, r3]
    382e:	bd70      	pop	{r4, r5, r6, pc}
    3830:	1a21      	subs	r1, r4, r0
    3832:	4630      	mov	r0, r6
    3834:	f000 ff88 	bl	4748 <_sbrk_r>
    3838:	3001      	adds	r0, #1
    383a:	d1ee      	bne.n	381a <_malloc_r+0x7a>
    383c:	e7bb      	b.n	37b6 <_malloc_r+0x16>
    383e:	bd70      	pop	{r4, r5, r6, pc}
    3840:	100004cc 	.word	0x100004cc
    3844:	100004c8 	.word	0x100004c8

00003848 <__sfputc_r>:
    3848:	6893      	ldr	r3, [r2, #8]
    384a:	b410      	push	{r4}
    384c:	3b01      	subs	r3, #1
    384e:	2b00      	cmp	r3, #0
    3850:	6093      	str	r3, [r2, #8]
    3852:	da08      	bge.n	3866 <__sfputc_r+0x1e>
    3854:	6994      	ldr	r4, [r2, #24]
    3856:	42a3      	cmp	r3, r4
    3858:	db02      	blt.n	3860 <__sfputc_r+0x18>
    385a:	b2cb      	uxtb	r3, r1
    385c:	2b0a      	cmp	r3, #10
    385e:	d102      	bne.n	3866 <__sfputc_r+0x1e>
    3860:	bc10      	pop	{r4}
    3862:	f001 ba39 	b.w	4cd8 <__swbuf_r>
    3866:	6813      	ldr	r3, [r2, #0]
    3868:	1c58      	adds	r0, r3, #1
    386a:	6010      	str	r0, [r2, #0]
    386c:	7019      	strb	r1, [r3, #0]
    386e:	b2c8      	uxtb	r0, r1
    3870:	bc10      	pop	{r4}
    3872:	4770      	bx	lr

00003874 <__sfputs_r>:
    3874:	b5f8      	push	{r3, r4, r5, r6, r7, lr}
    3876:	4606      	mov	r6, r0
    3878:	460f      	mov	r7, r1
    387a:	4614      	mov	r4, r2
    387c:	18d5      	adds	r5, r2, r3
    387e:	42ac      	cmp	r4, r5
    3880:	d008      	beq.n	3894 <__sfputs_r+0x20>
    3882:	463a      	mov	r2, r7
    3884:	f814 1b01 	ldrb.w	r1, [r4], #1
    3888:	4630      	mov	r0, r6
    388a:	f7ff ffdd 	bl	3848 <__sfputc_r>
    388e:	1c43      	adds	r3, r0, #1
    3890:	d1f5      	bne.n	387e <__sfputs_r+0xa>
    3892:	e000      	b.n	3896 <__sfputs_r+0x22>
    3894:	2000      	movs	r0, #0
    3896:	bdf8      	pop	{r3, r4, r5, r6, r7, pc}

00003898 <_vfiprintf_r>:
    3898:	e92d 4ff0 	stmdb	sp!, {r4, r5, r6, r7, r8, r9, r10, r11, lr}
    389c:	b09d      	sub	sp, #116	; 0x74
    389e:	460c      	mov	r4, r1
    38a0:	4617      	mov	r7, r2
    38a2:	9303      	str	r3, [sp, #12]
    38a4:	4606      	mov	r6, r0
    38a6:	b118      	cbz	r0, 38b0 <_vfiprintf_r+0x18>
    38a8:	6983      	ldr	r3, [r0, #24]
    38aa:	b90b      	cbnz	r3, 38b0 <_vfiprintf_r+0x18>
    38ac:	f7ff fce8 	bl	3280 <__sinit>
    38b0:	4b7f      	ldr	r3, [pc, #508]	; (3ab0 <_vfiprintf_r+0x218>)
    38b2:	429c      	cmp	r4, r3
    38b4:	d101      	bne.n	38ba <_vfiprintf_r+0x22>
    38b6:	6874      	ldr	r4, [r6, #4]
    38b8:	e008      	b.n	38cc <_vfiprintf_r+0x34>
    38ba:	4b7e      	ldr	r3, [pc, #504]	; (3ab4 <_vfiprintf_r+0x21c>)
    38bc:	429c      	cmp	r4, r3
    38be:	d101      	bne.n	38c4 <_vfiprintf_r+0x2c>
    38c0:	68b4      	ldr	r4, [r6, #8]
    38c2:	e003      	b.n	38cc <_vfiprintf_r+0x34>
    38c4:	4b7c      	ldr	r3, [pc, #496]	; (3ab8 <_vfiprintf_r+0x220>)
    38c6:	429c      	cmp	r4, r3
    38c8:	bf08      	it	eq
    38ca:	68f4      	ldreq	r4, [r6, #12]
    38cc:	89a3      	ldrh	r3, [r4, #12]
    38ce:	0718      	lsls	r0, r3, #28
    38d0:	d50c      	bpl.n	38ec <_vfiprintf_r+0x54>
    38d2:	6923      	ldr	r3, [r4, #16]
    38d4:	b153      	cbz	r3, 38ec <_vfiprintf_r+0x54>
    38d6:	2300      	movs	r3, #0
    38d8:	9309      	str	r3, [sp, #36]	; 0x24
    38da:	2320      	movs	r3, #32
    38dc:	f88d 3029 	strb.w	r3, [sp, #41]	; 0x29
    38e0:	2330      	movs	r3, #48	; 0x30
    38e2:	f88d 302a 	strb.w	r3, [sp, #42]	; 0x2a
    38e6:	f8df b1d4 	ldr.w	r11, [pc, #468]	; 3abc <_vfiprintf_r+0x224>
    38ea:	e044      	b.n	3976 <_vfiprintf_r+0xde>
    38ec:	4621      	mov	r1, r4
    38ee:	4630      	mov	r0, r6
    38f0:	f001 fa58 	bl	4da4 <__swsetup_r>
    38f4:	2800      	cmp	r0, #0
    38f6:	d0ee      	beq.n	38d6 <_vfiprintf_r+0x3e>
    38f8:	f04f 30ff 	mov.w	r0, #4294967295
    38fc:	e0d5      	b.n	3aaa <_vfiprintf_r+0x212>
    38fe:	9a03      	ldr	r2, [sp, #12]
    3900:	1d11      	adds	r1, r2, #4
    3902:	6812      	ldr	r2, [r2, #0]
    3904:	9103      	str	r1, [sp, #12]
    3906:	2a00      	cmp	r2, #0
    3908:	f280 808c 	bge.w	3a24 <_vfiprintf_r+0x18c>
    390c:	4252      	negs	r2, r2
    390e:	f043 0002 	orr.w	r0, r3, #2
    3912:	9207      	str	r2, [sp, #28]
    3914:	9004      	str	r0, [sp, #16]
    3916:	f898 3000 	ldrb.w	r3, [r8]
    391a:	2b2e      	cmp	r3, #46	; 0x2e
    391c:	f000 8084 	beq.w	3a28 <_vfiprintf_r+0x190>
    3920:	2203      	movs	r2, #3
    3922:	f898 1000 	ldrb.w	r1, [r8]
    3926:	4865      	ldr	r0, [pc, #404]	; (3abc <_vfiprintf_r+0x224>)
    3928:	f7ff feba 	bl	36a0 <memchr>
    392c:	b148      	cbz	r0, 3942 <_vfiprintf_r+0xaa>
    392e:	2340      	movs	r3, #64	; 0x40
    3930:	ebcb 0000 	rsb	r0, r11, r0
    3934:	fa03 f000 	lsl.w	r0, r3, r0
    3938:	9b04      	ldr	r3, [sp, #16]
    393a:	f108 0801 	add.w	r8, r8, #1
    393e:	4318      	orrs	r0, r3
    3940:	9004      	str	r0, [sp, #16]
    3942:	f898 1000 	ldrb.w	r1, [r8]
    3946:	2206      	movs	r2, #6
    3948:	485d      	ldr	r0, [pc, #372]	; (3ac0 <_vfiprintf_r+0x228>)
    394a:	f108 0701 	add.w	r7, r8, #1
    394e:	f88d 1028 	strb.w	r1, [sp, #40]	; 0x28
    3952:	f7ff fea5 	bl	36a0 <memchr>
    3956:	2800      	cmp	r0, #0
    3958:	f000 8095 	beq.w	3a86 <_vfiprintf_r+0x1ee>
    395c:	4b59      	ldr	r3, [pc, #356]	; (3ac4 <_vfiprintf_r+0x22c>)
    395e:	2b00      	cmp	r3, #0
    3960:	f040 8088 	bne.w	3a74 <_vfiprintf_r+0x1dc>
    3964:	9b03      	ldr	r3, [sp, #12]
    3966:	3307      	adds	r3, #7
    3968:	f023 0307 	bic.w	r3, r3, #7
    396c:	3308      	adds	r3, #8
    396e:	9303      	str	r3, [sp, #12]
    3970:	9b09      	ldr	r3, [sp, #36]	; 0x24
    3972:	4453      	add	r3, r10
    3974:	9309      	str	r3, [sp, #36]	; 0x24
    3976:	46b8      	mov	r8, r7
    3978:	4645      	mov	r5, r8
    397a:	f815 3b01 	ldrb.w	r3, [r5], #1
    397e:	b91b      	cbnz	r3, 3988 <_vfiprintf_r+0xf0>
    3980:	ebb8 0907 	subs.w	r9, r8, r7
    3984:	d00f      	beq.n	39a6 <_vfiprintf_r+0x10e>
    3986:	e003      	b.n	3990 <_vfiprintf_r+0xf8>
    3988:	2b25      	cmp	r3, #37	; 0x25
    398a:	d0f9      	beq.n	3980 <_vfiprintf_r+0xe8>
    398c:	46a8      	mov	r8, r5
    398e:	e7f3      	b.n	3978 <_vfiprintf_r+0xe0>
    3990:	464b      	mov	r3, r9
    3992:	463a      	mov	r2, r7
    3994:	4621      	mov	r1, r4
    3996:	4630      	mov	r0, r6
    3998:	f7ff ff6c 	bl	3874 <__sfputs_r>
    399c:	3001      	adds	r0, #1
    399e:	d07f      	beq.n	3aa0 <_vfiprintf_r+0x208>
    39a0:	9b09      	ldr	r3, [sp, #36]	; 0x24
    39a2:	444b      	add	r3, r9
    39a4:	9309      	str	r3, [sp, #36]	; 0x24
    39a6:	f898 3000 	ldrb.w	r3, [r8]
    39aa:	2b00      	cmp	r3, #0
    39ac:	d078      	beq.n	3aa0 <_vfiprintf_r+0x208>
    39ae:	2300      	movs	r3, #0
    39b0:	f04f 32ff 	mov.w	r2, #4294967295
    39b4:	9304      	str	r3, [sp, #16]
    39b6:	9307      	str	r3, [sp, #28]
    39b8:	9205      	str	r2, [sp, #20]
    39ba:	9306      	str	r3, [sp, #24]
    39bc:	f88d 3053 	strb.w	r3, [sp, #83]	; 0x53
    39c0:	931a      	str	r3, [sp, #104]	; 0x68
    39c2:	2701      	movs	r7, #1
    39c4:	2205      	movs	r2, #5
    39c6:	7829      	ldrb	r1, [r5, #0]
    39c8:	483f      	ldr	r0, [pc, #252]	; (3ac8 <_vfiprintf_r+0x230>)
    39ca:	f7ff fe69 	bl	36a0 <memchr>
    39ce:	f105 0801 	add.w	r8, r5, #1
    39d2:	9b04      	ldr	r3, [sp, #16]
    39d4:	b138      	cbz	r0, 39e6 <_vfiprintf_r+0x14e>
    39d6:	4a3c      	ldr	r2, [pc, #240]	; (3ac8 <_vfiprintf_r+0x230>)
    39d8:	4645      	mov	r5, r8
    39da:	1a80      	subs	r0, r0, r2
    39dc:	fa07 f000 	lsl.w	r0, r7, r0
    39e0:	4318      	orrs	r0, r3
    39e2:	9004      	str	r0, [sp, #16]
    39e4:	e7ee      	b.n	39c4 <_vfiprintf_r+0x12c>
    39e6:	06d9      	lsls	r1, r3, #27
    39e8:	bf44      	itt	mi
    39ea:	2220      	movmi	r2, #32
    39ec:	f88d 2053 	strbmi.w	r2, [sp, #83]	; 0x53
    39f0:	071a      	lsls	r2, r3, #28
    39f2:	bf44      	itt	mi
    39f4:	222b      	movmi	r2, #43	; 0x2b
    39f6:	f88d 2053 	strbmi.w	r2, [sp, #83]	; 0x53
    39fa:	782a      	ldrb	r2, [r5, #0]
    39fc:	2a2a      	cmp	r2, #42	; 0x2a
    39fe:	f43f af7e 	beq.w	38fe <_vfiprintf_r+0x66>
    3a02:	9a07      	ldr	r2, [sp, #28]
    3a04:	2100      	movs	r1, #0
    3a06:	200a      	movs	r0, #10
    3a08:	46a8      	mov	r8, r5
    3a0a:	f898 3000 	ldrb.w	r3, [r8]
    3a0e:	3501      	adds	r5, #1
    3a10:	3b30      	subs	r3, #48	; 0x30
    3a12:	2b09      	cmp	r3, #9
    3a14:	d803      	bhi.n	3a1e <_vfiprintf_r+0x186>
    3a16:	fb00 3202 	mla	r2, r0, r2, r3
    3a1a:	2101      	movs	r1, #1
    3a1c:	e7f4      	b.n	3a08 <_vfiprintf_r+0x170>
    3a1e:	2900      	cmp	r1, #0
    3a20:	f43f af79 	beq.w	3916 <_vfiprintf_r+0x7e>
    3a24:	9207      	str	r2, [sp, #28]
    3a26:	e776      	b.n	3916 <_vfiprintf_r+0x7e>
    3a28:	f898 3001 	ldrb.w	r3, [r8, #1]
    3a2c:	2b2a      	cmp	r3, #42	; 0x2a
    3a2e:	d10b      	bne.n	3a48 <_vfiprintf_r+0x1b0>
    3a30:	9b03      	ldr	r3, [sp, #12]
    3a32:	f108 0802 	add.w	r8, r8, #2
    3a36:	1d1a      	adds	r2, r3, #4
    3a38:	681b      	ldr	r3, [r3, #0]
    3a3a:	9203      	str	r2, [sp, #12]
    3a3c:	2b00      	cmp	r3, #0
    3a3e:	bfb8      	it	lt
    3a40:	f04f 33ff 	movlt.w	r3, #4294967295
    3a44:	9305      	str	r3, [sp, #20]
    3a46:	e76b      	b.n	3920 <_vfiprintf_r+0x88>
    3a48:	2300      	movs	r3, #0
    3a4a:	4619      	mov	r1, r3
    3a4c:	9305      	str	r3, [sp, #20]
    3a4e:	f108 0001 	add.w	r0, r8, #1
    3a52:	250a      	movs	r5, #10
    3a54:	4680      	mov	r8, r0
    3a56:	f898 2000 	ldrb.w	r2, [r8]
    3a5a:	3001      	adds	r0, #1
    3a5c:	3a30      	subs	r2, #48	; 0x30
    3a5e:	2a09      	cmp	r2, #9
    3a60:	d803      	bhi.n	3a6a <_vfiprintf_r+0x1d2>
    3a62:	fb05 2101 	mla	r1, r5, r1, r2
    3a66:	2301      	movs	r3, #1
    3a68:	e7f4      	b.n	3a54 <_vfiprintf_r+0x1bc>
    3a6a:	2b00      	cmp	r3, #0
    3a6c:	f43f af58 	beq.w	3920 <_vfiprintf_r+0x88>
    3a70:	9105      	str	r1, [sp, #20]
    3a72:	e755      	b.n	3920 <_vfiprintf_r+0x88>
    3a74:	ab03      	add	r3, sp, #12
    3a76:	9300      	str	r3, [sp, #0]
    3a78:	4622      	mov	r2, r4
    3a7a:	4b14      	ldr	r3, [pc, #80]	; (3acc <_vfiprintf_r+0x234>)
