
LPC1768/MidTerm.elf:     file format elf32-littlearm
architecture: arm, flags 0x00000112:
EXEC_P, HAS_SYMS, D_PAGED
start address 0x000031e1


Disassembly of section .text:

00000000 <__isr_vector>:
       0:	10008000 	.word	0x10008000
       4:	000031e1 	.word	0x000031e1
       8:	00003211 	.word	0x00003211
       c:	00003213 	.word	0x00003213
      10:	00003215 	.word	0x00003215
      14:	00003217 	.word	0x00003217
      18:	00003219 	.word	0x00003219
	...
      2c:	0000321b 	.word	0x0000321b
      30:	0000321d 	.word	0x0000321d
      34:	00000000 	.word	0x00000000
      38:	0000321f 	.word	0x0000321f
      3c:	00003221 	.word	0x00003221
      40:	00003223 	.word	0x00003223
      44:	00003223 	.word	0x00003223
      48:	00003223 	.word	0x00003223
      4c:	00003223 	.word	0x00003223
      50:	00003223 	.word	0x00003223
      54:	00003223 	.word	0x00003223
      58:	00003223 	.word	0x00003223
      5c:	00003223 	.word	0x00003223
      60:	00003223 	.word	0x00003223
      64:	00003223 	.word	0x00003223
      68:	00003223 	.word	0x00003223
      6c:	00003223 	.word	0x00003223
      70:	00003223 	.word	0x00003223
      74:	00003223 	.word	0x00003223
      78:	00003223 	.word	0x00003223
      7c:	00003223 	.word	0x00003223
      80:	00003223 	.word	0x00003223
      84:	00003223 	.word	0x00003223
      88:	00003223 	.word	0x00003223
      8c:	00003223 	.word	0x00003223
      90:	00003223 	.word	0x00003223
      94:	00003223 	.word	0x00003223
      98:	00003223 	.word	0x00003223
      9c:	00003223 	.word	0x00003223
      a0:	00003223 	.word	0x00003223
      a4:	00003223 	.word	0x00003223
      a8:	00003223 	.word	0x00003223
      ac:	00003223 	.word	0x00003223
      b0:	00003223 	.word	0x00003223
      b4:	00003223 	.word	0x00003223
      b8:	00003223 	.word	0x00003223
      bc:	00003223 	.word	0x00003223
      c0:	00003223 	.word	0x00003223
      c4:	00003223 	.word	0x00003223
      c8:	00003223 	.word	0x00003223

000000cc <deregister_tm_clones>:
      cc:	4b04      	ldr	r3, [pc, #16]	; (e0 <deregister_tm_clones+0x14>)
      ce:	4805      	ldr	r0, [pc, #20]	; (e4 <deregister_tm_clones+0x18>)
      d0:	1a1b      	subs	r3, r3, r0
      d2:	2b06      	cmp	r3, #6
      d4:	d902      	bls.n	dc <deregister_tm_clones+0x10>
      d6:	4b04      	ldr	r3, [pc, #16]	; (e8 <deregister_tm_clones+0x1c>)
      d8:	b103      	cbz	r3, dc <deregister_tm_clones+0x10>
      da:	4718      	bx	r3
      dc:	4770      	bx	lr
      de:	bf00      	nop
      e0:	1000018b 	.word	0x1000018b
      e4:	10000188 	.word	0x10000188
      e8:	00000000 	.word	0x00000000

000000ec <register_tm_clones>:
      ec:	4905      	ldr	r1, [pc, #20]	; (104 <register_tm_clones+0x18>)
      ee:	4806      	ldr	r0, [pc, #24]	; (108 <register_tm_clones+0x1c>)
      f0:	1a09      	subs	r1, r1, r0
      f2:	1089      	asrs	r1, r1, #2
      f4:	eb01 71d1 	add.w	r1, r1, r1, lsr #31
      f8:	1049      	asrs	r1, r1, #1
      fa:	d002      	beq.n	102 <register_tm_clones+0x16>
      fc:	4b03      	ldr	r3, [pc, #12]	; (10c <register_tm_clones+0x20>)
      fe:	b103      	cbz	r3, 102 <register_tm_clones+0x16>
     100:	4718      	bx	r3
     102:	4770      	bx	lr
     104:	10000188 	.word	0x10000188
     108:	10000188 	.word	0x10000188
     10c:	00000000 	.word	0x00000000

00000110 <__do_global_dtors_aux>:
     110:	b510      	push	{r4, lr}
     112:	4c06      	ldr	r4, [pc, #24]	; (12c <__do_global_dtors_aux+0x1c>)
     114:	7823      	ldrb	r3, [r4, #0]
     116:	b943      	cbnz	r3, 12a <__do_global_dtors_aux+0x1a>
     118:	f7ff ffd8 	bl	cc <deregister_tm_clones>
     11c:	4b04      	ldr	r3, [pc, #16]	; (130 <__do_global_dtors_aux+0x20>)
     11e:	b113      	cbz	r3, 126 <__do_global_dtors_aux+0x16>
     120:	4804      	ldr	r0, [pc, #16]	; (134 <__do_global_dtors_aux+0x24>)
     122:	f3af 8000 	nop.w
     126:	2301      	movs	r3, #1
     128:	7023      	strb	r3, [r4, #0]
     12a:	bd10      	pop	{r4, pc}
     12c:	10000188 	.word	0x10000188
     130:	00000000 	.word	0x00000000
     134:	00008980 	.word	0x00008980

00000138 <frame_dummy>:
     138:	b508      	push	{r3, lr}
     13a:	4b08      	ldr	r3, [pc, #32]	; (15c <frame_dummy+0x24>)
     13c:	b11b      	cbz	r3, 146 <frame_dummy+0xe>
     13e:	4908      	ldr	r1, [pc, #32]	; (160 <frame_dummy+0x28>)
     140:	4808      	ldr	r0, [pc, #32]	; (164 <frame_dummy+0x2c>)
     142:	f3af 8000 	nop.w
     146:	4808      	ldr	r0, [pc, #32]	; (168 <frame_dummy+0x30>)
     148:	6803      	ldr	r3, [r0, #0]
     14a:	b913      	cbnz	r3, 152 <frame_dummy+0x1a>
     14c:	e8bd 4008 	ldmia.w	sp!, {r3, lr}
     150:	e7cc      	b.n	ec <register_tm_clones>
     152:	4b06      	ldr	r3, [pc, #24]	; (16c <frame_dummy+0x34>)
     154:	2b00      	cmp	r3, #0
     156:	d0f9      	beq.n	14c <frame_dummy+0x14>
     158:	4798      	blx	r3
     15a:	e7f7      	b.n	14c <frame_dummy+0x14>
     15c:	00000000 	.word	0x00000000
     160:	1000018c 	.word	0x1000018c
     164:	00008980 	.word	0x00008980
     168:	10000188 	.word	0x10000188
     16c:	00000000 	.word	0x00000000

00000170 <TextLCD::columns()>:
     170:	2010      	movs	r0, #16
     172:	4770      	bx	lr

00000174 <TextLCD::rows()>:
     174:	2002      	movs	r0, #2
     176:	4770      	bx	lr

00000178 <TextLCD::writeByte(int)>:
     178:	b5f8      	push	{r3, r4, r5, r6, r7, lr}
     17a:	4604      	mov	r4, r0
     17c:	460e      	mov	r6, r1
     17e:	4d12      	ldr	r5, [pc, #72]	; (1c8 <TextLCD::writeByte(int)+0x50>)
     180:	f100 076c 	add.w	r7, r0, #108	; 0x6c
     184:	1109      	asrs	r1, r1, #4
     186:	4638      	mov	r0, r7
     188:	f002 fe9c 	bl	2ec4 <mbed::BusOut::operator=(int)>
     18c:	4628      	mov	r0, r5
     18e:	f000 ff67 	bl	1060 <wait>
     192:	6e63      	ldr	r3, [r4, #100]	; 0x64
     194:	6da2      	ldr	r2, [r4, #88]	; 0x58
     196:	4628      	mov	r0, r5
     198:	601a      	str	r2, [r3, #0]
     19a:	f000 ff61 	bl	1060 <wait>
     19e:	6e23      	ldr	r3, [r4, #96]	; 0x60
     1a0:	6da2      	ldr	r2, [r4, #88]	; 0x58
     1a2:	4631      	mov	r1, r6
     1a4:	601a      	str	r2, [r3, #0]
     1a6:	4638      	mov	r0, r7
     1a8:	f002 fe8c 	bl	2ec4 <mbed::BusOut::operator=(int)>
     1ac:	4628      	mov	r0, r5
     1ae:	f000 ff57 	bl	1060 <wait>
     1b2:	6e63      	ldr	r3, [r4, #100]	; 0x64
     1b4:	6da2      	ldr	r2, [r4, #88]	; 0x58
     1b6:	4628      	mov	r0, r5
     1b8:	601a      	str	r2, [r3, #0]
     1ba:	f000 ff51 	bl	1060 <wait>
     1be:	6e23      	ldr	r3, [r4, #96]	; 0x60
     1c0:	6da2      	ldr	r2, [r4, #88]	; 0x58
     1c2:	601a      	str	r2, [r3, #0]
     1c4:	bdf8      	pop	{r3, r4, r5, r6, r7, pc}
     1c6:	bf00      	nop
     1c8:	3827c5ac 	.word	0x3827c5ac

000001cc <TextLCD::TextLCD(PinName, PinName, PinName, PinName, PinName, PinName, PinName, char const*)>:
     1cc:	e92d 43f0 	stmdb	sp!, {r4, r5, r6, r7, r8, r9, lr}
     1d0:	4604      	mov	r4, r0
     1d2:	4691      	mov	r9, r2
     1d4:	4688      	mov	r8, r1
     1d6:	461f      	mov	r7, r3
     1d8:	b08f      	sub	sp, #60	; 0x3c
     1da:	4d39      	ldr	r5, [pc, #228]	; (2c0 <TextLCD::TextLCD(PinName, PinName, PinName, PinName, PinName, PinName, PinName, char const*)+0xf4>)
     1dc:	991a      	ldr	r1, [sp, #104]	; 0x68
     1de:	9e19      	ldr	r6, [sp, #100]	; 0x64
     1e0:	f000 fe58 	bl	e94 <TextDisplay::TextDisplay(char const*)>
     1e4:	f104 0024 	add.w	r0, r4, #36	; 0x24
     1e8:	6025      	str	r5, [r4, #0]
     1ea:	f105 0350 	add.w	r3, r5, #80	; 0x50
     1ee:	2500      	movs	r5, #0
     1f0:	6063      	str	r3, [r4, #4]
     1f2:	6265      	str	r5, [r4, #36]	; 0x24
     1f4:	4649      	mov	r1, r9
     1f6:	6045      	str	r5, [r0, #4]
     1f8:	6085      	str	r5, [r0, #8]
     1fa:	60c5      	str	r5, [r0, #12]
     1fc:	6105      	str	r5, [r0, #16]
     1fe:	6145      	str	r5, [r0, #20]
     200:	f000 ff70 	bl	10e4 <gpio_init_out>
     204:	f104 003c 	add.w	r0, r4, #60	; 0x3c
     208:	63e5      	str	r5, [r4, #60]	; 0x3c
     20a:	4641      	mov	r1, r8
     20c:	6045      	str	r5, [r0, #4]
     20e:	6085      	str	r5, [r0, #8]
     210:	60c5      	str	r5, [r0, #12]
     212:	6105      	str	r5, [r0, #16]
     214:	6145      	str	r5, [r0, #20]
     216:	f000 ff65 	bl	10e4 <gpio_init_out>
     21a:	f104 0054 	add.w	r0, r4, #84	; 0x54
     21e:	6565      	str	r5, [r4, #84]	; 0x54
     220:	4639      	mov	r1, r7
     222:	6045      	str	r5, [r0, #4]
     224:	6085      	str	r5, [r0, #8]
     226:	60c5      	str	r5, [r0, #12]
     228:	6105      	str	r5, [r0, #16]
     22a:	6145      	str	r5, [r0, #20]
     22c:	f000 ff5a 	bl	10e4 <gpio_init_out>
     230:	f04f 35ff 	mov.w	r5, #4294967295
     234:	9600      	str	r6, [sp, #0]
     236:	a916      	add	r1, sp, #88	; 0x58
     238:	c90e      	ldmia	r1, {r1, r2, r3}
     23a:	f104 006c 	add.w	r0, r4, #108	; 0x6c
     23e:	950c      	str	r5, [sp, #48]	; 0x30
     240:	950b      	str	r5, [sp, #44]	; 0x2c
     242:	950a      	str	r5, [sp, #40]	; 0x28
     244:	9509      	str	r5, [sp, #36]	; 0x24
     246:	9508      	str	r5, [sp, #32]
     248:	9507      	str	r5, [sp, #28]
     24a:	9506      	str	r5, [sp, #24]
     24c:	9505      	str	r5, [sp, #20]
     24e:	9504      	str	r5, [sp, #16]
     250:	9503      	str	r5, [sp, #12]
     252:	9502      	str	r5, [sp, #8]
     254:	9501      	str	r5, [sp, #4]
     256:	f002 fdd7 	bl	2e08 <mbed::BusOut::BusOut(PinName, PinName, PinName, PinName, PinName, PinName, PinName, PinName, PinName, PinName, PinName, PinName, PinName, PinName, PinName, PinName)>
     25a:	6b63      	ldr	r3, [r4, #52]	; 0x34
     25c:	6aa1      	ldr	r1, [r4, #40]	; 0x28
     25e:	6e22      	ldr	r2, [r4, #96]	; 0x60
     260:	6019      	str	r1, [r3, #0]
     262:	6da1      	ldr	r1, [r4, #88]	; 0x58
     264:	6ce3      	ldr	r3, [r4, #76]	; 0x4c
     266:	6011      	str	r1, [r2, #0]
     268:	6c22      	ldr	r2, [r4, #64]	; 0x40
     26a:	2503      	movs	r5, #3
     26c:	601a      	str	r2, [r3, #0]
     26e:	2103      	movs	r1, #3
     270:	4620      	mov	r0, r4
     272:	f7ff ff81 	bl	178 <TextLCD::writeByte(int)>
     276:	4813      	ldr	r0, [pc, #76]	; (2c4 <TextLCD::TextLCD(PinName, PinName, PinName, PinName, PinName, PinName, PinName, char const*)+0xf8>)
     278:	f000 fef2 	bl	1060 <wait>
     27c:	3d01      	subs	r5, #1
     27e:	d1f6      	bne.n	26e <TextLCD::TextLCD(PinName, PinName, PinName, PinName, PinName, PinName, PinName, char const*)+0xa2>
     280:	4620      	mov	r0, r4
     282:	2102      	movs	r1, #2
     284:	f7ff ff78 	bl	178 <TextLCD::writeByte(int)>
     288:	6ce3      	ldr	r3, [r4, #76]	; 0x4c
     28a:	6c22      	ldr	r2, [r4, #64]	; 0x40
     28c:	4620      	mov	r0, r4
     28e:	601a      	str	r2, [r3, #0]
     290:	2128      	movs	r1, #40	; 0x28
     292:	f7ff ff71 	bl	178 <TextLCD::writeByte(int)>
     296:	6ce3      	ldr	r3, [r4, #76]	; 0x4c
     298:	6c22      	ldr	r2, [r4, #64]	; 0x40
     29a:	4620      	mov	r0, r4
     29c:	601a      	str	r2, [r3, #0]
     29e:	210c      	movs	r1, #12
     2a0:	f7ff ff6a 	bl	178 <TextLCD::writeByte(int)>
     2a4:	6ce3      	ldr	r3, [r4, #76]	; 0x4c
     2a6:	6c22      	ldr	r2, [r4, #64]	; 0x40
     2a8:	2106      	movs	r1, #6
     2aa:	601a      	str	r2, [r3, #0]
     2ac:	4620      	mov	r0, r4
     2ae:	f7ff ff63 	bl	178 <TextLCD::writeByte(int)>
     2b2:	4620      	mov	r0, r4
     2b4:	f000 fdc6 	bl	e44 <TextDisplay::cls()>
     2b8:	4620      	mov	r0, r4
     2ba:	b00f      	add	sp, #60	; 0x3c
     2bc:	e8bd 83f0 	ldmia.w	sp!, {r4, r5, r6, r7, r8, r9, pc}
     2c0:	00007cb0 	.word	0x00007cb0
     2c4:	3ad6f545 	.word	0x3ad6f545

000002c8 <TextLCD::character(int, int, int)>:
     2c8:	b570      	push	{r4, r5, r6, lr}
     2ca:	4604      	mov	r4, r0
     2cc:	461d      	mov	r5, r3
     2ce:	6c06      	ldr	r6, [r0, #64]	; 0x40
     2d0:	eb02 0282 	add.w	r2, r2, r2, lsl #2
     2d4:	6cc3      	ldr	r3, [r0, #76]	; 0x4c
     2d6:	eb01 01c2 	add.w	r1, r1, r2, lsl #3
     2da:	3180      	adds	r1, #128	; 0x80
     2dc:	601e      	str	r6, [r3, #0]
     2de:	f7ff ff4b 	bl	178 <TextLCD::writeByte(int)>
     2e2:	6c20      	ldr	r0, [r4, #64]	; 0x40
     2e4:	6ca2      	ldr	r2, [r4, #72]	; 0x48
     2e6:	4629      	mov	r1, r5
     2e8:	6010      	str	r0, [r2, #0]
     2ea:	4620      	mov	r0, r4
     2ec:	e8bd 4070 	ldmia.w	sp!, {r4, r5, r6, lr}
     2f0:	f7ff bf42 	b.w	178 <TextLCD::writeByte(int)>

000002f4 <TextLCD::~TextLCD()>:
     2f4:	b510      	push	{r4, lr}
     2f6:	4604      	mov	r4, r0
     2f8:	4b09      	ldr	r3, [pc, #36]	; (320 <TextLCD::~TextLCD()+0x2c>)
     2fa:	306c      	adds	r0, #108	; 0x6c
     2fc:	f103 0208 	add.w	r2, r3, #8
     300:	3358      	adds	r3, #88	; 0x58
     302:	e884 000c 	stmia.w	r4, {r2, r3}
     306:	f002 fd57 	bl	2db8 <mbed::BusOut::~BusOut()>
     30a:	4b06      	ldr	r3, [pc, #24]	; (324 <TextLCD::~TextLCD()+0x30>)
     30c:	4620      	mov	r0, r4
     30e:	f103 0250 	add.w	r2, r3, #80	; 0x50
     312:	6023      	str	r3, [r4, #0]
     314:	6062      	str	r2, [r4, #4]
     316:	f002 fc99 	bl	2c4c <mbed::Stream::~Stream()>
     31a:	4620      	mov	r0, r4
     31c:	bd10      	pop	{r4, pc}
     31e:	bf00      	nop
     320:	00007ca8 	.word	0x00007ca8
     324:	000080b4 	.word	0x000080b4

00000328 <non-virtual thunk to TextLCD::~TextLCD()>:
     328:	f1a0 0004 	sub.w	r0, r0, #4
     32c:	e7e2      	b.n	2f4 <TextLCD::~TextLCD()>
     32e:	bf00      	nop

00000330 <TextLCD::~TextLCD()>:
     330:	b510      	push	{r4, lr}
     332:	4604      	mov	r4, r0
     334:	4b0a      	ldr	r3, [pc, #40]	; (360 <TextLCD::~TextLCD()+0x30>)
     336:	306c      	adds	r0, #108	; 0x6c
     338:	f103 0208 	add.w	r2, r3, #8
     33c:	3358      	adds	r3, #88	; 0x58
     33e:	e884 000c 	stmia.w	r4, {r2, r3}
     342:	f002 fd39 	bl	2db8 <mbed::BusOut::~BusOut()>
     346:	4b07      	ldr	r3, [pc, #28]	; (364 <TextLCD::~TextLCD()+0x34>)
     348:	4620      	mov	r0, r4
     34a:	f103 0250 	add.w	r2, r3, #80	; 0x50
     34e:	6023      	str	r3, [r4, #0]
     350:	6062      	str	r2, [r4, #4]
     352:	f002 fc7b 	bl	2c4c <mbed::Stream::~Stream()>
     356:	4620      	mov	r0, r4
     358:	f002 ff69 	bl	322e <operator delete(void*)>
     35c:	4620      	mov	r0, r4
     35e:	bd10      	pop	{r4, pc}
     360:	00007ca8 	.word	0x00007ca8
     364:	000080b4 	.word	0x000080b4

00000368 <non-virtual thunk to TextLCD::~TextLCD()>:
     368:	f1a0 0004 	sub.w	r0, r0, #4
     36c:	e7e0      	b.n	330 <TextLCD::~TextLCD()>
     36e:	bf00      	nop

00000370 <mbed::SerialBase::~SerialBase()>:
     370:	4770      	bx	lr
     372:	bf00      	nop

00000374 <mbed::LocalFileSystem::~LocalFileSystem()>:
     374:	b510      	push	{r4, lr}
     376:	4604      	mov	r4, r0
     378:	4b02      	ldr	r3, [pc, #8]	; (384 <mbed::LocalFileSystem::~LocalFileSystem()+0x10>)
     37a:	6003      	str	r3, [r0, #0]
     37c:	f002 fca6 	bl	2ccc <mbed::FileSystemLike::~FileSystemLike()>
     380:	4620      	mov	r0, r4
     382:	bd10      	pop	{r4, pc}
     384:	00008648 	.word	0x00008648

00000388 <mbed::SerialBase::~SerialBase()>:
     388:	b510      	push	{r4, lr}
     38a:	4604      	mov	r4, r0
     38c:	f002 ff4f 	bl	322e <operator delete(void*)>
     390:	4620      	mov	r0, r4
     392:	bd10      	pop	{r4, pc}

00000394 <mbed::Serial::~Serial()>:
     394:	b510      	push	{r4, lr}
     396:	4604      	mov	r4, r0
     398:	4b06      	ldr	r3, [pc, #24]	; (3b4 <mbed::Serial::~Serial()+0x20>)
     39a:	3040      	adds	r0, #64	; 0x40
     39c:	f103 0118 	add.w	r1, r3, #24
     3a0:	f103 024c 	add.w	r2, r3, #76	; 0x4c
     3a4:	6023      	str	r3, [r4, #0]
     3a6:	6421      	str	r1, [r4, #64]	; 0x40
     3a8:	6462      	str	r2, [r4, #68]	; 0x44
     3aa:	f002 fc4f 	bl	2c4c <mbed::Stream::~Stream()>
     3ae:	4620      	mov	r0, r4
     3b0:	bd10      	pop	{r4, pc}
     3b2:	bf00      	nop
     3b4:	00008478 	.word	0x00008478

000003b8 <non-virtual thunk to mbed::Serial::~Serial()>:
     3b8:	f1a0 0040 	sub.w	r0, r0, #64	; 0x40
     3bc:	e7ea      	b.n	394 <mbed::Serial::~Serial()>
     3be:	bf00      	nop

000003c0 <non-virtual thunk to mbed::Serial::~Serial()>:
     3c0:	f1a0 0044 	sub.w	r0, r0, #68	; 0x44
     3c4:	e7e6      	b.n	394 <mbed::Serial::~Serial()>
     3c6:	bf00      	nop

000003c8 <Accel::Accel(mbed::SPI*, mbed::DigitalOut*)>:
     3c8:	b5f8      	push	{r3, r4, r5, r6, r7, lr}
     3ca:	4604      	mov	r4, r0
     3cc:	68d6      	ldr	r6, [r2, #12]
     3ce:	6857      	ldr	r7, [r2, #4]
     3d0:	2300      	movs	r3, #0
     3d2:	2500      	movs	r5, #0
     3d4:	e880 0006 	stmia.w	r0, {r1, r2}
     3d8:	6123      	str	r3, [r4, #16]
     3da:	6163      	str	r3, [r4, #20]
     3dc:	61a3      	str	r3, [r4, #24]
     3de:	8125      	strh	r5, [r4, #8]
     3e0:	8165      	strh	r5, [r4, #10]
     3e2:	81a5      	strh	r5, [r4, #12]
     3e4:	4608      	mov	r0, r1
     3e6:	2203      	movs	r2, #3
     3e8:	6037      	str	r7, [r6, #0]
     3ea:	2108      	movs	r1, #8
     3ec:	f002 f8cc 	bl	2588 <mbed::SPI::format(int, int)>
     3f0:	6820      	ldr	r0, [r4, #0]
     3f2:	f44f 6148 	mov.w	r1, #3200	; 0xc80
     3f6:	f002 f8d3 	bl	25a0 <mbed::SPI::frequency(int)>
     3fa:	e894 0009 	ldmia.w	r4, {r0, r3}
     3fe:	691a      	ldr	r2, [r3, #16]
     400:	6859      	ldr	r1, [r3, #4]
     402:	6803      	ldr	r3, [r0, #0]
     404:	6011      	str	r1, [r2, #0]
     406:	681b      	ldr	r3, [r3, #0]
     408:	2131      	movs	r1, #49	; 0x31
     40a:	4798      	blx	r3
     40c:	6820      	ldr	r0, [r4, #0]
     40e:	210b      	movs	r1, #11
     410:	6803      	ldr	r3, [r0, #0]
     412:	681b      	ldr	r3, [r3, #0]
     414:	4798      	blx	r3
     416:	e894 0009 	ldmia.w	r4, {r0, r3}
     41a:	68d9      	ldr	r1, [r3, #12]
     41c:	685d      	ldr	r5, [r3, #4]
     41e:	691a      	ldr	r2, [r3, #16]
     420:	600d      	str	r5, [r1, #0]
     422:	6859      	ldr	r1, [r3, #4]
     424:	6803      	ldr	r3, [r0, #0]
     426:	6011      	str	r1, [r2, #0]
     428:	681b      	ldr	r3, [r3, #0]
     42a:	212d      	movs	r1, #45	; 0x2d
     42c:	4798      	blx	r3
     42e:	6820      	ldr	r0, [r4, #0]
     430:	2108      	movs	r1, #8
     432:	6803      	ldr	r3, [r0, #0]
     434:	681b      	ldr	r3, [r3, #0]
     436:	4798      	blx	r3
     438:	6863      	ldr	r3, [r4, #4]
     43a:	f44f 5116 	mov.w	r1, #9600	; 0x2580
     43e:	68da      	ldr	r2, [r3, #12]
     440:	685b      	ldr	r3, [r3, #4]
     442:	4803      	ldr	r0, [pc, #12]	; (450 <Accel::Accel(mbed::SPI*, mbed::DigitalOut*)+0x88>)
     444:	6013      	str	r3, [r2, #0]
     446:	f002 fd89 	bl	2f5c <mbed::SerialBase::baud(int)>
     44a:	4620      	mov	r0, r4
     44c:	bdf8      	pop	{r3, r4, r5, r6, r7, pc}
     44e:	bf00      	nop
     450:	100001a4 	.word	0x100001a4

00000454 <Accel::getData_int()>:
     454:	b570      	push	{r4, r5, r6, lr}
     456:	4604      	mov	r4, r0
     458:	6843      	ldr	r3, [r0, #4]
     45a:	4605      	mov	r5, r0
     45c:	f854 0b1b 	ldr.w	r0, [r4], #27
     460:	6859      	ldr	r1, [r3, #4]
     462:	6806      	ldr	r6, [r0, #0]
     464:	691a      	ldr	r2, [r3, #16]
     466:	6833      	ldr	r3, [r6, #0]
     468:	6011      	str	r1, [r2, #0]
     46a:	21f2      	movs	r1, #242	; 0xf2
     46c:	4798      	blx	r3
     46e:	f105 0621 	add.w	r6, r5, #33	; 0x21
     472:	6828      	ldr	r0, [r5, #0]
     474:	2100      	movs	r1, #0
     476:	6803      	ldr	r3, [r0, #0]
     478:	681b      	ldr	r3, [r3, #0]
     47a:	4798      	blx	r3
     47c:	f804 0f01 	strb.w	r0, [r4, #1]!
     480:	42b4      	cmp	r4, r6
     482:	d1f6      	bne.n	472 <Accel::getData_int()+0x1e>
     484:	686b      	ldr	r3, [r5, #4]
     486:	68da      	ldr	r2, [r3, #12]
     488:	685b      	ldr	r3, [r3, #4]
     48a:	6013      	str	r3, [r2, #0]
     48c:	7f6e      	ldrb	r6, [r5, #29]
     48e:	7f29      	ldrb	r1, [r5, #28]
     490:	7fec      	ldrb	r4, [r5, #31]
     492:	7faa      	ldrb	r2, [r5, #30]
     494:	f895 0021 	ldrb.w	r0, [r5, #33]	; 0x21
     498:	f895 3020 	ldrb.w	r3, [r5, #32]
     49c:	ea41 2106 	orr.w	r1, r1, r6, lsl #8
     4a0:	ea42 2204 	orr.w	r2, r2, r4, lsl #8
     4a4:	ea43 2300 	orr.w	r3, r3, r0, lsl #8
     4a8:	8129      	strh	r1, [r5, #8]
     4aa:	816a      	strh	r2, [r5, #10]
     4ac:	81ab      	strh	r3, [r5, #12]
     4ae:	bd70      	pop	{r4, r5, r6, pc}

000004b0 <Accel::getData_float()>:
     4b0:	b510      	push	{r4, lr}
     4b2:	4604      	mov	r4, r0
     4b4:	f7ff ffce 	bl	454 <Accel::getData_int()>
     4b8:	f9b4 0008 	ldrsh.w	r0, [r4, #8]
     4bc:	f003 f824 	bl	3508 <__aeabi_i2d>
     4c0:	a311      	add	r3, pc, #68	; (adr r3, 508 <Accel::getData_float()+0x58>)
     4c2:	e9d3 2300 	ldrd	r2, r3, [r3]
     4c6:	f003 f885 	bl	35d4 <__aeabi_dmul>
     4ca:	f003 fabd 	bl	3a48 <__aeabi_d2f>
     4ce:	6120      	str	r0, [r4, #16]
     4d0:	f9b4 000a 	ldrsh.w	r0, [r4, #10]
     4d4:	f003 f818 	bl	3508 <__aeabi_i2d>
     4d8:	a30b      	add	r3, pc, #44	; (adr r3, 508 <Accel::getData_float()+0x58>)
     4da:	e9d3 2300 	ldrd	r2, r3, [r3]
     4de:	f003 f879 	bl	35d4 <__aeabi_dmul>
     4e2:	f003 fab1 	bl	3a48 <__aeabi_d2f>
     4e6:	6160      	str	r0, [r4, #20]
     4e8:	f9b4 000c 	ldrsh.w	r0, [r4, #12]
     4ec:	f003 f80c 	bl	3508 <__aeabi_i2d>
     4f0:	a305      	add	r3, pc, #20	; (adr r3, 508 <Accel::getData_float()+0x58>)
     4f2:	e9d3 2300 	ldrd	r2, r3, [r3]
     4f6:	f003 f86d 	bl	35d4 <__aeabi_dmul>
     4fa:	f003 faa5 	bl	3a48 <__aeabi_d2f>
     4fe:	61a0      	str	r0, [r4, #24]
     500:	bd10      	pop	{r4, pc}
     502:	bf00      	nop
     504:	f3af 8000 	nop.w
     508:	47ae147b 	.word	0x47ae147b
     50c:	3fa47ae1 	.word	0x3fa47ae1

00000510 <Accel::printData_float()>:
     510:	b5d0      	push	{r4, r6, r7, lr}
     512:	4604      	mov	r4, r0
     514:	b084      	sub	sp, #16
     516:	6900      	ldr	r0, [r0, #16]
     518:	f003 f808 	bl	352c <__aeabi_f2d>
     51c:	4606      	mov	r6, r0
     51e:	69a0      	ldr	r0, [r4, #24]
     520:	460f      	mov	r7, r1
     522:	f003 f803 	bl	352c <__aeabi_f2d>
     526:	e9cd 0102 	strd	r0, r1, [sp, #8]
     52a:	6960      	ldr	r0, [r4, #20]
     52c:	f002 fffe 	bl	352c <__aeabi_f2d>
     530:	4632      	mov	r2, r6
     532:	e9cd 0100 	strd	r0, r1, [sp]
     536:	463b      	mov	r3, r7
     538:	4902      	ldr	r1, [pc, #8]	; (544 <Accel::printData_float()+0x34>)
     53a:	4803      	ldr	r0, [pc, #12]	; (548 <Accel::printData_float()+0x38>)
     53c:	f002 fba4 	bl	2c88 <mbed::Stream::printf(char const*, ...)>
     540:	b004      	add	sp, #16
     542:	bdd0      	pop	{r4, r6, r7, pc}
     544:	00007d08 	.word	0x00007d08
     548:	100001e4 	.word	0x100001e4

0000054c <mbed::Serial::~Serial()>:
     54c:	b510      	push	{r4, lr}
     54e:	4604      	mov	r4, r0
     550:	4b07      	ldr	r3, [pc, #28]	; (570 <mbed::Serial::~Serial()+0x24>)
     552:	3040      	adds	r0, #64	; 0x40
     554:	f103 0118 	add.w	r1, r3, #24
     558:	f103 024c 	add.w	r2, r3, #76	; 0x4c
     55c:	6023      	str	r3, [r4, #0]
     55e:	6421      	str	r1, [r4, #64]	; 0x40
     560:	6462      	str	r2, [r4, #68]	; 0x44
     562:	f002 fb73 	bl	2c4c <mbed::Stream::~Stream()>
     566:	4620      	mov	r0, r4
     568:	f002 fe61 	bl	322e <operator delete(void*)>
     56c:	4620      	mov	r0, r4
     56e:	bd10      	pop	{r4, pc}
     570:	00008478 	.word	0x00008478

00000574 <non-virtual thunk to mbed::Serial::~Serial()>:
     574:	f1a0 0040 	sub.w	r0, r0, #64	; 0x40
     578:	e7e8      	b.n	54c <mbed::Serial::~Serial()>
     57a:	bf00      	nop

0000057c <non-virtual thunk to mbed::Serial::~Serial()>:
     57c:	f1a0 0044 	sub.w	r0, r0, #68	; 0x44
     580:	e7e4      	b.n	54c <mbed::Serial::~Serial()>
     582:	bf00      	nop

00000584 <mbed::LocalFileSystem::~LocalFileSystem()>:
     584:	b510      	push	{r4, lr}
     586:	4604      	mov	r4, r0
     588:	4b04      	ldr	r3, [pc, #16]	; (59c <mbed::LocalFileSystem::~LocalFileSystem()+0x18>)
     58a:	6003      	str	r3, [r0, #0]
     58c:	f002 fb9e 	bl	2ccc <mbed::FileSystemLike::~FileSystemLike()>
     590:	4620      	mov	r0, r4
     592:	f002 fe4c 	bl	322e <operator delete(void*)>
     596:	4620      	mov	r0, r4
     598:	bd10      	pop	{r4, pc}
     59a:	bf00      	nop
     59c:	00008648 	.word	0x00008648

000005a0 <_GLOBAL__sub_I_pc>:
     5a0:	b570      	push	{r4, r5, r6, lr}
     5a2:	4e0d      	ldr	r6, [pc, #52]	; (5d8 <_GLOBAL__sub_I_pc+0x38>)
     5a4:	4d0d      	ldr	r5, [pc, #52]	; (5dc <_GLOBAL__sub_I_pc+0x3c>)
     5a6:	2300      	movs	r3, #0
     5a8:	4c0d      	ldr	r4, [pc, #52]	; (5e0 <_GLOBAL__sub_I_pc+0x40>)
     5aa:	4630      	mov	r0, r6
     5ac:	4a0d      	ldr	r2, [pc, #52]	; (5e4 <_GLOBAL__sub_I_pc+0x44>)
     5ae:	490e      	ldr	r1, [pc, #56]	; (5e8 <_GLOBAL__sub_I_pc+0x48>)
     5b0:	f001 ff98 	bl	24e4 <mbed::Serial::Serial(PinName, PinName, char const*)>
     5b4:	462a      	mov	r2, r5
     5b6:	4630      	mov	r0, r6
     5b8:	490c      	ldr	r1, [pc, #48]	; (5ec <_GLOBAL__sub_I_pc+0x4c>)
     5ba:	f002 fe33 	bl	3224 <__aeabi_atexit>
     5be:	4620      	mov	r0, r4
     5c0:	490b      	ldr	r1, [pc, #44]	; (5f0 <_GLOBAL__sub_I_pc+0x50>)
     5c2:	f002 fb77 	bl	2cb4 <mbed::FileSystemLike::FileSystemLike(char const*)>
     5c6:	4b0b      	ldr	r3, [pc, #44]	; (5f4 <_GLOBAL__sub_I_pc+0x54>)
     5c8:	462a      	mov	r2, r5
     5ca:	4620      	mov	r0, r4
     5cc:	6023      	str	r3, [r4, #0]
     5ce:	490a      	ldr	r1, [pc, #40]	; (5f8 <_GLOBAL__sub_I_pc+0x58>)
     5d0:	e8bd 4070 	ldmia.w	sp!, {r4, r5, r6, lr}
     5d4:	f002 be26 	b.w	3224 <__aeabi_atexit>
     5d8:	100001a4 	.word	0x100001a4
     5dc:	100000c8 	.word	0x100000c8
     5e0:	100001fc 	.word	0x100001fc
     5e4:	2009c003 	.word	0x2009c003
     5e8:	2009c002 	.word	0x2009c002
     5ec:	00000395 	.word	0x00000395
     5f0:	00007d50 	.word	0x00007d50
     5f4:	00008648 	.word	0x00008648
     5f8:	00000375 	.word	0x00000375

000005fc <TempSensor::TempSensor(mbed::I2C*)>:
     5fc:	b5f0      	push	{r4, r5, r6, r7, lr}
     5fe:	4605      	mov	r5, r0
     600:	4c0e      	ldr	r4, [pc, #56]	; (63c <TempSensor::TempSensor(mbed::I2C*)+0x40>)
     602:	6001      	str	r1, [r0, #0]
     604:	b083      	sub	sp, #12
     606:	2600      	movs	r6, #0
     608:	4608      	mov	r0, r1
     60a:	2160      	movs	r1, #96	; 0x60
     60c:	f04f 0ea0 	mov.w	lr, #160	; 0xa0
     610:	4622      	mov	r2, r4
     612:	2701      	movs	r7, #1
     614:	7061      	strb	r1, [r4, #1]
     616:	9600      	str	r6, [sp, #0]
     618:	2303      	movs	r3, #3
     61a:	2190      	movs	r1, #144	; 0x90
     61c:	f884 e002 	strb.w	lr, [r4, #2]
     620:	7027      	strb	r7, [r4, #0]
     622:	f001 ffe1 	bl	25e8 <mbed::I2C::write(int, char const*, int, bool)>
     626:	7026      	strb	r6, [r4, #0]
     628:	6828      	ldr	r0, [r5, #0]
     62a:	463b      	mov	r3, r7
     62c:	9600      	str	r6, [sp, #0]
     62e:	4622      	mov	r2, r4
     630:	2190      	movs	r1, #144	; 0x90
     632:	f001 ffd9 	bl	25e8 <mbed::I2C::write(int, char const*, int, bool)>
     636:	4628      	mov	r0, r5
     638:	b003      	add	sp, #12
     63a:	bdf0      	pop	{r4, r5, r6, r7, pc}
     63c:	10000264 	.word	0x10000264

00000640 <TempSensor::getReadings()>:
     640:	b530      	push	{r4, r5, lr}
     642:	4605      	mov	r5, r0
     644:	b083      	sub	sp, #12
     646:	4c13      	ldr	r4, [pc, #76]	; (694 <TempSensor::getReadings()+0x54>)
     648:	f04f 507e 	mov.w	r0, #1065353216	; 0x3f800000
     64c:	f000 fd08 	bl	1060 <wait>
     650:	2300      	movs	r3, #0
     652:	4622      	mov	r2, r4
     654:	6828      	ldr	r0, [r5, #0]
     656:	2190      	movs	r1, #144	; 0x90
     658:	9300      	str	r3, [sp, #0]
     65a:	2302      	movs	r3, #2
     65c:	f001 ffe6 	bl	262c <mbed::I2C::read(int, char*, int, bool)>
     660:	7863      	ldrb	r3, [r4, #1]
     662:	7820      	ldrb	r0, [r4, #0]
     664:	eb03 2000 	add.w	r0, r3, r0, lsl #8
     668:	1100      	asrs	r0, r0, #4
     66a:	f002 ff4d 	bl	3508 <__aeabi_i2d>
     66e:	2200      	movs	r2, #0
     670:	4b09      	ldr	r3, [pc, #36]	; (698 <TempSensor::getReadings()+0x58>)
     672:	f002 ffaf 	bl	35d4 <__aeabi_dmul>
     676:	f003 f9e7 	bl	3a48 <__aeabi_d2f>
     67a:	6068      	str	r0, [r5, #4]
     67c:	f002 ff56 	bl	352c <__aeabi_f2d>
     680:	4602      	mov	r2, r0
     682:	460b      	mov	r3, r1
     684:	4805      	ldr	r0, [pc, #20]	; (69c <TempSensor::getReadings()+0x5c>)
     686:	4906      	ldr	r1, [pc, #24]	; (6a0 <TempSensor::getReadings()+0x60>)
     688:	b003      	add	sp, #12
     68a:	e8bd 4030 	ldmia.w	sp!, {r4, r5, lr}
     68e:	f002 bafb 	b.w	2c88 <mbed::Stream::printf(char const*, ...)>
     692:	bf00      	nop
     694:	10000268 	.word	0x10000268
     698:	3fb00000 	.word	0x3fb00000
     69c:	1000024c 	.word	0x1000024c
     6a0:	00007d58 	.word	0x00007d58

000006a4 <_GLOBAL__sub_I_pc>:
     6a4:	b510      	push	{r4, lr}
     6a6:	4c07      	ldr	r4, [pc, #28]	; (6c4 <_GLOBAL__sub_I_pc+0x20>)
     6a8:	4a07      	ldr	r2, [pc, #28]	; (6c8 <_GLOBAL__sub_I_pc+0x24>)
     6aa:	4620      	mov	r0, r4
     6ac:	4907      	ldr	r1, [pc, #28]	; (6cc <_GLOBAL__sub_I_pc+0x28>)
     6ae:	2300      	movs	r3, #0
     6b0:	f001 ff18 	bl	24e4 <mbed::Serial::Serial(PinName, PinName, char const*)>
     6b4:	4620      	mov	r0, r4
     6b6:	e8bd 4010 	ldmia.w	sp!, {r4, lr}
     6ba:	4a05      	ldr	r2, [pc, #20]	; (6d0 <_GLOBAL__sub_I_pc+0x2c>)
     6bc:	4905      	ldr	r1, [pc, #20]	; (6d4 <_GLOBAL__sub_I_pc+0x30>)
     6be:	f002 bdb1 	b.w	3224 <__aeabi_atexit>
     6c2:	bf00      	nop
     6c4:	1000020c 	.word	0x1000020c
     6c8:	2009c003 	.word	0x2009c003
     6cc:	2009c002 	.word	0x2009c002
     6d0:	100000c8 	.word	0x100000c8
     6d4:	00000395 	.word	0x00000395

000006d8 <mbed::SPI::~SPI()>:
     6d8:	4770      	bx	lr
     6da:	bf00      	nop

000006dc <isr2()>:
     6dc:	b508      	push	{r3, lr}
     6de:	4808      	ldr	r0, [pc, #32]	; (700 <isr2()+0x24>)
     6e0:	f002 f9e0 	bl	2aa4 <mbed::Timer::read_ms()>
     6e4:	f5b0 7ffa 	cmp.w	r0, #500	; 0x1f4
     6e8:	dd09      	ble.n	6fe <isr2()+0x22>
     6ea:	4b06      	ldr	r3, [pc, #24]	; (704 <isr2()+0x28>)
     6ec:	4804      	ldr	r0, [pc, #16]	; (700 <isr2()+0x24>)
     6ee:	68da      	ldr	r2, [r3, #12]
     6f0:	685b      	ldr	r3, [r3, #4]
     6f2:	6013      	str	r3, [r2, #0]
     6f4:	f002 f9e8 	bl	2ac8 <mbed::Timer::reset()>
     6f8:	4b03      	ldr	r3, [pc, #12]	; (708 <isr2()+0x2c>)
     6fa:	2201      	movs	r2, #1
     6fc:	701a      	strb	r2, [r3, #0]
     6fe:	bd08      	pop	{r3, pc}
     700:	100004f0 	.word	0x100004f0
     704:	1000027c 	.word	0x1000027c
     708:	100003b4 	.word	0x100003b4

0000070c <isr3()>:
     70c:	b508      	push	{r3, lr}
     70e:	4808      	ldr	r0, [pc, #32]	; (730 <isr3()+0x24>)
     710:	f002 f9c8 	bl	2aa4 <mbed::Timer::read_ms()>
     714:	f5b0 7ffa 	cmp.w	r0, #500	; 0x1f4
     718:	dd09      	ble.n	72e <isr3()+0x22>
     71a:	4b06      	ldr	r3, [pc, #24]	; (734 <isr3()+0x28>)
     71c:	4804      	ldr	r0, [pc, #16]	; (730 <isr3()+0x24>)
     71e:	68da      	ldr	r2, [r3, #12]
     720:	685b      	ldr	r3, [r3, #4]
     722:	6013      	str	r3, [r2, #0]
     724:	f002 f9d0 	bl	2ac8 <mbed::Timer::reset()>
     728:	4b03      	ldr	r3, [pc, #12]	; (738 <isr3()+0x2c>)
     72a:	2201      	movs	r2, #1
     72c:	701a      	strb	r2, [r3, #0]
     72e:	bd08      	pop	{r3, pc}
     730:	100004f0 	.word	0x100004f0
     734:	10000294 	.word	0x10000294
     738:	10000358 	.word	0x10000358

0000073c <toggle()>:
     73c:	b510      	push	{r4, lr}
     73e:	480f      	ldr	r0, [pc, #60]	; (77c <toggle()+0x40>)
     740:	f002 f9b0 	bl	2aa4 <mbed::Timer::read_ms()>
     744:	f5b0 7ffa 	cmp.w	r0, #500	; 0x1f4
     748:	dc00      	bgt.n	74c <toggle()+0x10>
     74a:	bd10      	pop	{r4, pc}
     74c:	4c0c      	ldr	r4, [pc, #48]	; (780 <toggle()+0x44>)
     74e:	480b      	ldr	r0, [pc, #44]	; (77c <toggle()+0x40>)
     750:	68e3      	ldr	r3, [r4, #12]
     752:	6862      	ldr	r2, [r4, #4]
     754:	601a      	str	r2, [r3, #0]
     756:	f002 f9b7 	bl	2ac8 <mbed::Timer::reset()>
     75a:	4a0a      	ldr	r2, [pc, #40]	; (784 <toggle()+0x48>)
     75c:	2001      	movs	r0, #1
     75e:	6813      	ldr	r3, [r2, #0]
     760:	4909      	ldr	r1, [pc, #36]	; (788 <toggle()+0x4c>)
     762:	4403      	add	r3, r0
     764:	2b07      	cmp	r3, #7
     766:	7008      	strb	r0, [r1, #0]
     768:	dd05      	ble.n	776 <toggle()+0x3a>
     76a:	6923      	ldr	r3, [r4, #16]
     76c:	6861      	ldr	r1, [r4, #4]
     76e:	2000      	movs	r0, #0
     770:	6010      	str	r0, [r2, #0]
     772:	6019      	str	r1, [r3, #0]
     774:	bd10      	pop	{r4, pc}
     776:	6013      	str	r3, [r2, #0]
     778:	bd10      	pop	{r4, pc}
     77a:	bf00      	nop
     77c:	100004f0 	.word	0x100004f0
     780:	10000318 	.word	0x10000318
     784:	10000430 	.word	0x10000430
     788:	10000330 	.word	0x10000330

0000078c <mbed::SPI::~SPI()>:
     78c:	b510      	push	{r4, lr}
     78e:	4604      	mov	r4, r0
     790:	f002 fd4d 	bl	322e <operator delete(void*)>
     794:	4620      	mov	r0, r4
     796:	bd10      	pop	{r4, pc}

00000798 <Calibrate(__sFILE*, int)>:
     798:	b5f0      	push	{r4, r5, r6, r7, lr}
     79a:	3901      	subs	r1, #1
     79c:	b085      	sub	sp, #20
     79e:	2906      	cmp	r1, #6
     7a0:	f200 80ea 	bhi.w	978 <Heap_Size+0x178>
     7a4:	e8df f011 	tbh	[pc, r1, lsl #1]
     7a8:	00480031 	.word	0x00480031
     7ac:	00880068 	.word	0x00880068
     7b0:	00c800a8 	.word	0x00c800a8
     7b4:	0007      	.short	0x0007
     7b6:	4c71      	ldr	r4, [pc, #452]	; (97c <Heap_Size+0x17c>)
     7b8:	4871      	ldr	r0, [pc, #452]	; (980 <Heap_Size+0x180>)
     7ba:	f005 f8cb 	bl	5954 <puts>
     7be:	4620      	mov	r0, r4
     7c0:	f7ff fe76 	bl	4b0 <Accel::getData_float()>
     7c4:	496f      	ldr	r1, [pc, #444]	; (984 <Heap_Size+0x184>)
     7c6:	4870      	ldr	r0, [pc, #448]	; (988 <Heap_Size+0x188>)
     7c8:	f003 fe44 	bl	4454 <fopen>
     7cc:	4605      	mov	r5, r0
     7ce:	6920      	ldr	r0, [r4, #16]
     7d0:	f002 feac 	bl	352c <__aeabi_f2d>
     7d4:	4606      	mov	r6, r0
     7d6:	69a0      	ldr	r0, [r4, #24]
     7d8:	460f      	mov	r7, r1
     7da:	f002 fea7 	bl	352c <__aeabi_f2d>
     7de:	e9cd 0102 	strd	r0, r1, [sp, #8]
     7e2:	6960      	ldr	r0, [r4, #20]
     7e4:	f002 fea2 	bl	352c <__aeabi_f2d>
     7e8:	4632      	mov	r2, r6
     7ea:	e9cd 0100 	strd	r0, r1, [sp]
     7ee:	463b      	mov	r3, r7
     7f0:	4628      	mov	r0, r5
     7f2:	4966      	ldr	r1, [pc, #408]	; (98c <Heap_Size+0x18c>)
     7f4:	f003 fe36 	bl	4464 <fiprintf>
     7f8:	4628      	mov	r0, r5
     7fa:	f003 fc73 	bl	40e4 <fclose>
     7fe:	4620      	mov	r0, r4
     800:	b005      	add	sp, #20
     802:	e8bd 40f0 	ldmia.w	sp!, {r4, r5, r6, r7, lr}
     806:	f7ff be83 	b.w	510 <Accel::printData_float()>
     80a:	4861      	ldr	r0, [pc, #388]	; (990 <Heap_Size+0x190>)
     80c:	f005 f8a2 	bl	5954 <puts>
     810:	4960      	ldr	r1, [pc, #384]	; (994 <Heap_Size+0x194>)
     812:	485d      	ldr	r0, [pc, #372]	; (988 <Heap_Size+0x188>)
     814:	f003 fe1e 	bl	4454 <fopen>
     818:	4604      	mov	r4, r0
     81a:	4603      	mov	r3, r0
     81c:	2226      	movs	r2, #38	; 0x26
     81e:	2101      	movs	r1, #1
     820:	485d      	ldr	r0, [pc, #372]	; (998 <Heap_Size+0x198>)
     822:	f003 ff63 	bl	46ec <fwrite>
     826:	4620      	mov	r0, r4
     828:	f003 fc5c 	bl	40e4 <fclose>
     82c:	4853      	ldr	r0, [pc, #332]	; (97c <Heap_Size+0x17c>)
     82e:	b005      	add	sp, #20
     830:	e8bd 40f0 	ldmia.w	sp!, {r4, r5, r6, r7, lr}
     834:	f7ff be6c 	b.w	510 <Accel::printData_float()>
     838:	4c50      	ldr	r4, [pc, #320]	; (97c <Heap_Size+0x17c>)
     83a:	4858      	ldr	r0, [pc, #352]	; (99c <Heap_Size+0x19c>)
     83c:	f005 f88a 	bl	5954 <puts>
     840:	4620      	mov	r0, r4
     842:	f7ff fe35 	bl	4b0 <Accel::getData_float()>
     846:	494f      	ldr	r1, [pc, #316]	; (984 <Heap_Size+0x184>)
     848:	484f      	ldr	r0, [pc, #316]	; (988 <Heap_Size+0x188>)
     84a:	f003 fe03 	bl	4454 <fopen>
     84e:	4605      	mov	r5, r0
     850:	6920      	ldr	r0, [r4, #16]
     852:	f002 fe6b 	bl	352c <__aeabi_f2d>
     856:	4606      	mov	r6, r0
     858:	69a0      	ldr	r0, [r4, #24]
     85a:	460f      	mov	r7, r1
     85c:	f002 fe66 	bl	352c <__aeabi_f2d>
     860:	e9cd 0102 	strd	r0, r1, [sp, #8]
     864:	6960      	ldr	r0, [r4, #20]
     866:	f002 fe61 	bl	352c <__aeabi_f2d>
     86a:	4632      	mov	r2, r6
     86c:	e9cd 0100 	strd	r0, r1, [sp]
     870:	463b      	mov	r3, r7
     872:	4628      	mov	r0, r5
     874:	494a      	ldr	r1, [pc, #296]	; (9a0 <Heap_Size+0x1a0>)
     876:	e7bd      	b.n	7f4 <Calibrate(__sFILE*, int)+0x5c>
     878:	4c40      	ldr	r4, [pc, #256]	; (97c <Heap_Size+0x17c>)
     87a:	484a      	ldr	r0, [pc, #296]	; (9a4 <Heap_Size+0x1a4>)
     87c:	f005 f86a 	bl	5954 <puts>
     880:	4620      	mov	r0, r4
     882:	f7ff fe15 	bl	4b0 <Accel::getData_float()>
     886:	493f      	ldr	r1, [pc, #252]	; (984 <Heap_Size+0x184>)
     888:	483f      	ldr	r0, [pc, #252]	; (988 <Heap_Size+0x188>)
     88a:	f003 fde3 	bl	4454 <fopen>
     88e:	4605      	mov	r5, r0
     890:	6920      	ldr	r0, [r4, #16]
     892:	f002 fe4b 	bl	352c <__aeabi_f2d>
     896:	4606      	mov	r6, r0
     898:	69a0      	ldr	r0, [r4, #24]
     89a:	460f      	mov	r7, r1
     89c:	f002 fe46 	bl	352c <__aeabi_f2d>
     8a0:	e9cd 0102 	strd	r0, r1, [sp, #8]
     8a4:	6960      	ldr	r0, [r4, #20]
     8a6:	f002 fe41 	bl	352c <__aeabi_f2d>
     8aa:	4632      	mov	r2, r6
     8ac:	e9cd 0100 	strd	r0, r1, [sp]
     8b0:	463b      	mov	r3, r7
     8b2:	4628      	mov	r0, r5
     8b4:	493c      	ldr	r1, [pc, #240]	; (9a8 <Heap_Size+0x1a8>)
     8b6:	e79d      	b.n	7f4 <Calibrate(__sFILE*, int)+0x5c>
     8b8:	4c30      	ldr	r4, [pc, #192]	; (97c <Heap_Size+0x17c>)
     8ba:	483c      	ldr	r0, [pc, #240]	; (9ac <Heap_Size+0x1ac>)
     8bc:	f005 f84a 	bl	5954 <puts>
     8c0:	4620      	mov	r0, r4
     8c2:	f7ff fdf5 	bl	4b0 <Accel::getData_float()>
     8c6:	492f      	ldr	r1, [pc, #188]	; (984 <Heap_Size+0x184>)
     8c8:	482f      	ldr	r0, [pc, #188]	; (988 <Heap_Size+0x188>)
     8ca:	f003 fdc3 	bl	4454 <fopen>
     8ce:	4605      	mov	r5, r0
     8d0:	6920      	ldr	r0, [r4, #16]
     8d2:	f002 fe2b 	bl	352c <__aeabi_f2d>
     8d6:	4606      	mov	r6, r0
     8d8:	69a0      	ldr	r0, [r4, #24]
     8da:	460f      	mov	r7, r1
     8dc:	f002 fe26 	bl	352c <__aeabi_f2d>
     8e0:	e9cd 0102 	strd	r0, r1, [sp, #8]
     8e4:	6960      	ldr	r0, [r4, #20]
     8e6:	f002 fe21 	bl	352c <__aeabi_f2d>
     8ea:	4632      	mov	r2, r6
     8ec:	e9cd 0100 	strd	r0, r1, [sp]
     8f0:	463b      	mov	r3, r7
     8f2:	4628      	mov	r0, r5
     8f4:	492e      	ldr	r1, [pc, #184]	; (9b0 <Heap_Size+0x1b0>)
     8f6:	e77d      	b.n	7f4 <Calibrate(__sFILE*, int)+0x5c>
     8f8:	4c20      	ldr	r4, [pc, #128]	; (97c <Heap_Size+0x17c>)
     8fa:	482e      	ldr	r0, [pc, #184]	; (9b4 <Heap_Size+0x1b4>)
     8fc:	f005 f82a 	bl	5954 <puts>
     900:	4620      	mov	r0, r4
     902:	f7ff fdd5 	bl	4b0 <Accel::getData_float()>
     906:	491f      	ldr	r1, [pc, #124]	; (984 <Heap_Size+0x184>)
     908:	481f      	ldr	r0, [pc, #124]	; (988 <Heap_Size+0x188>)
     90a:	f003 fda3 	bl	4454 <fopen>
     90e:	4605      	mov	r5, r0
     910:	6920      	ldr	r0, [r4, #16]
     912:	f002 fe0b 	bl	352c <__aeabi_f2d>
     916:	4606      	mov	r6, r0
     918:	69a0      	ldr	r0, [r4, #24]
     91a:	460f      	mov	r7, r1
     91c:	f002 fe06 	bl	352c <__aeabi_f2d>
     920:	e9cd 0102 	strd	r0, r1, [sp, #8]
     924:	6960      	ldr	r0, [r4, #20]
     926:	f002 fe01 	bl	352c <__aeabi_f2d>
     92a:	4632      	mov	r2, r6
     92c:	e9cd 0100 	strd	r0, r1, [sp]
     930:	463b      	mov	r3, r7
     932:	4628      	mov	r0, r5
     934:	4920      	ldr	r1, [pc, #128]	; (9b8 <Heap_Size+0x1b8>)
     936:	e75d      	b.n	7f4 <Calibrate(__sFILE*, int)+0x5c>
     938:	4c10      	ldr	r4, [pc, #64]	; (97c <Heap_Size+0x17c>)
     93a:	4820      	ldr	r0, [pc, #128]	; (9bc <Heap_Size+0x1bc>)
     93c:	f005 f80a 	bl	5954 <puts>
     940:	4620      	mov	r0, r4
     942:	f7ff fdb5 	bl	4b0 <Accel::getData_float()>
     946:	490f      	ldr	r1, [pc, #60]	; (984 <Heap_Size+0x184>)
     948:	480f      	ldr	r0, [pc, #60]	; (988 <Heap_Size+0x188>)
     94a:	f003 fd83 	bl	4454 <fopen>
     94e:	4605      	mov	r5, r0
     950:	6920      	ldr	r0, [r4, #16]
     952:	f002 fdeb 	bl	352c <__aeabi_f2d>
     956:	4606      	mov	r6, r0
     958:	69a0      	ldr	r0, [r4, #24]
     95a:	460f      	mov	r7, r1
     95c:	f002 fde6 	bl	352c <__aeabi_f2d>
     960:	e9cd 0102 	strd	r0, r1, [sp, #8]
     964:	6960      	ldr	r0, [r4, #20]
     966:	f002 fde1 	bl	352c <__aeabi_f2d>
     96a:	4632      	mov	r2, r6
     96c:	e9cd 0100 	strd	r0, r1, [sp]
     970:	463b      	mov	r3, r7
     972:	4628      	mov	r0, r5
     974:	4912      	ldr	r1, [pc, #72]	; (9c0 <Heap_Size+0x1c0>)
     976:	e73d      	b.n	7f4 <Calibrate(__sFILE*, int)+0x5c>
     978:	b005      	add	sp, #20
     97a:	bdf0      	pop	{r4, r5, r6, r7, pc}
     97c:	10000334 	.word	0x10000334
     980:	00007fb0 	.word	0x00007fb0
     984:	00007e18 	.word	0x00007e18
     988:	00007dac 	.word	0x00007dac
     98c:	00007fdc 	.word	0x00007fdc
     990:	00007d6c 	.word	0x00007d6c
     994:	00007da8 	.word	0x00007da8
     998:	00007dcc 	.word	0x00007dcc
     99c:	00007df4 	.word	0x00007df4
     9a0:	00007e1c 	.word	0x00007e1c
     9a4:	00007e50 	.word	0x00007e50
     9a8:	00007e74 	.word	0x00007e74
     9ac:	00007ea8 	.word	0x00007ea8
     9b0:	00007ecc 	.word	0x00007ecc
     9b4:	00007f00 	.word	0x00007f00
     9b8:	00007f24 	.word	0x00007f24
     9bc:	00007f58 	.word	0x00007f58
     9c0:	00007f7c 	.word	0x00007f7c

000009c4 <main>:
     9c4:	e92d 4ff8 	stmdb	sp!, {r3, r4, r5, r6, r7, r8, r9, r10, r11, lr}
     9c8:	486e      	ldr	r0, [pc, #440]	; (b84 <main+0x1c0>)
     9ca:	f002 f85f 	bl	2a8c <mbed::Timer::start()>
     9ce:	496e      	ldr	r1, [pc, #440]	; (b88 <main+0x1c4>)
     9d0:	486e      	ldr	r0, [pc, #440]	; (b8c <main+0x1c8>)
     9d2:	f002 f9e1 	bl	2d98 <mbed::InterruptIn::rise(void (*)())>
     9d6:	496e      	ldr	r1, [pc, #440]	; (b90 <main+0x1cc>)
     9d8:	486e      	ldr	r0, [pc, #440]	; (b94 <main+0x1d0>)
     9da:	f002 f9dd 	bl	2d98 <mbed::InterruptIn::rise(void (*)())>
     9de:	4d6e      	ldr	r5, [pc, #440]	; (b98 <main+0x1d4>)
     9e0:	496e      	ldr	r1, [pc, #440]	; (b9c <main+0x1d8>)
     9e2:	486f      	ldr	r0, [pc, #444]	; (ba0 <main+0x1dc>)
     9e4:	f002 f9d8 	bl	2d98 <mbed::InterruptIn::rise(void (*)())>
     9e8:	486e      	ldr	r0, [pc, #440]	; (ba4 <main+0x1e0>)
     9ea:	46ab      	mov	r11, r5
     9ec:	f004 ffb2 	bl	5954 <puts>
     9f0:	4f6d      	ldr	r7, [pc, #436]	; (ba8 <main+0x1e4>)
     9f2:	f8df 81c0 	ldr.w	r8, [pc, #448]	; bb4 <main+0x1f0>
     9f6:	f8df a1e8 	ldr.w	r10, [pc, #488]	; be0 <main+0x21c>
     9fa:	4e6c      	ldr	r6, [pc, #432]	; (bac <main+0x1e8>)
     9fc:	f8df 91e4 	ldr.w	r9, [pc, #484]	; be4 <main+0x220>
     a00:	e00b      	b.n	a1a <main+0x56>
     a02:	783b      	ldrb	r3, [r7, #0]
     a04:	4c68      	ldr	r4, [pc, #416]	; (ba8 <main+0x1e4>)
     a06:	2b01      	cmp	r3, #1
     a08:	d01a      	beq.n	a40 <main+0x7c>
     a0a:	7833      	ldrb	r3, [r6, #0]
     a0c:	4c67      	ldr	r4, [pc, #412]	; (bac <main+0x1e8>)
     a0e:	2b01      	cmp	r3, #1
     a10:	d07c      	beq.n	b0c <main+0x148>
     a12:	f04f 507e 	mov.w	r0, #1065353216	; 0x3f800000
     a16:	f000 fb23 	bl	1060 <wait>
     a1a:	782b      	ldrb	r3, [r5, #0]
     a1c:	2b01      	cmp	r3, #1
     a1e:	d1f0      	bne.n	a02 <main+0x3e>
     a20:	4b63      	ldr	r3, [pc, #396]	; (bb0 <main+0x1ec>)
     a22:	2000      	movs	r0, #0
     a24:	6819      	ldr	r1, [r3, #0]
     a26:	f7ff feb7 	bl	798 <Calibrate(__sFILE*, int)>
     a2a:	2300      	movs	r3, #0
     a2c:	f04f 507e 	mov.w	r0, #1065353216	; 0x3f800000
     a30:	f88b 3000 	strb.w	r3, [r11]
     a34:	f000 fb14 	bl	1060 <wait>
     a38:	783b      	ldrb	r3, [r7, #0]
     a3a:	4c5b      	ldr	r4, [pc, #364]	; (ba8 <main+0x1e4>)
     a3c:	2b01      	cmp	r3, #1
     a3e:	d1e4      	bne.n	a0a <main+0x46>
     a40:	485c      	ldr	r0, [pc, #368]	; (bb4 <main+0x1f0>)
     a42:	f7ff fd35 	bl	4b0 <Accel::getData_float()>
     a46:	485c      	ldr	r0, [pc, #368]	; (bb8 <main+0x1f4>)
     a48:	f004 ff84 	bl	5954 <puts>
     a4c:	485b      	ldr	r0, [pc, #364]	; (bbc <main+0x1f8>)
     a4e:	f000 f9f9 	bl	e44 <TextDisplay::cls()>
     a52:	2200      	movs	r2, #0
     a54:	2102      	movs	r1, #2
     a56:	4859      	ldr	r0, [pc, #356]	; (bbc <main+0x1f8>)
     a58:	f000 f9e8 	bl	e2c <TextDisplay::locate(int, int)>
     a5c:	4958      	ldr	r1, [pc, #352]	; (bc0 <main+0x1fc>)
     a5e:	4857      	ldr	r0, [pc, #348]	; (bbc <main+0x1f8>)
     a60:	f002 f912 	bl	2c88 <mbed::Stream::printf(char const*, ...)>
     a64:	f04f 4080 	mov.w	r0, #1073741824	; 0x40000000
     a68:	f000 fafa 	bl	1060 <wait>
     a6c:	4853      	ldr	r0, [pc, #332]	; (bbc <main+0x1f8>)
     a6e:	f000 f9e9 	bl	e44 <TextDisplay::cls()>
     a72:	2200      	movs	r2, #0
     a74:	2102      	movs	r1, #2
     a76:	4851      	ldr	r0, [pc, #324]	; (bbc <main+0x1f8>)
     a78:	f000 f9d8 	bl	e2c <TextDisplay::locate(int, int)>
     a7c:	f8d8 0010 	ldr.w	r0, [r8, #16]
     a80:	f002 fd54 	bl	352c <__aeabi_f2d>
     a84:	460b      	mov	r3, r1
     a86:	4602      	mov	r2, r0
     a88:	494e      	ldr	r1, [pc, #312]	; (bc4 <main+0x200>)
     a8a:	484c      	ldr	r0, [pc, #304]	; (bbc <main+0x1f8>)
     a8c:	f002 f8fc 	bl	2c88 <mbed::Stream::printf(char const*, ...)>
     a90:	f04f 4080 	mov.w	r0, #1073741824	; 0x40000000
     a94:	f000 fae4 	bl	1060 <wait>
     a98:	4848      	ldr	r0, [pc, #288]	; (bbc <main+0x1f8>)
     a9a:	f000 f9d3 	bl	e44 <TextDisplay::cls()>
     a9e:	2200      	movs	r2, #0
     aa0:	2102      	movs	r1, #2
     aa2:	4846      	ldr	r0, [pc, #280]	; (bbc <main+0x1f8>)
     aa4:	f000 f9c2 	bl	e2c <TextDisplay::locate(int, int)>
     aa8:	f8d8 0014 	ldr.w	r0, [r8, #20]
     aac:	f002 fd3e 	bl	352c <__aeabi_f2d>
     ab0:	460b      	mov	r3, r1
     ab2:	4602      	mov	r2, r0
     ab4:	4944      	ldr	r1, [pc, #272]	; (bc8 <main+0x204>)
     ab6:	4841      	ldr	r0, [pc, #260]	; (bbc <main+0x1f8>)
     ab8:	f002 f8e6 	bl	2c88 <mbed::Stream::printf(char const*, ...)>
     abc:	f04f 4080 	mov.w	r0, #1073741824	; 0x40000000
     ac0:	f000 face 	bl	1060 <wait>
     ac4:	483d      	ldr	r0, [pc, #244]	; (bbc <main+0x1f8>)
     ac6:	f000 f9bd 	bl	e44 <TextDisplay::cls()>
     aca:	2200      	movs	r2, #0
     acc:	2102      	movs	r1, #2
     ace:	483b      	ldr	r0, [pc, #236]	; (bbc <main+0x1f8>)
     ad0:	f000 f9ac 	bl	e2c <TextDisplay::locate(int, int)>
     ad4:	f8d8 0018 	ldr.w	r0, [r8, #24]
     ad8:	f002 fd28 	bl	352c <__aeabi_f2d>
     adc:	4602      	mov	r2, r0
     ade:	460b      	mov	r3, r1
     ae0:	4836      	ldr	r0, [pc, #216]	; (bbc <main+0x1f8>)
     ae2:	493a      	ldr	r1, [pc, #232]	; (bcc <main+0x208>)
     ae4:	f002 f8d0 	bl	2c88 <mbed::Stream::printf(char const*, ...)>
     ae8:	f04f 4080 	mov.w	r0, #1073741824	; 0x40000000
     aec:	f000 fab8 	bl	1060 <wait>
     af0:	4832      	ldr	r0, [pc, #200]	; (bbc <main+0x1f8>)
     af2:	f000 f9a7 	bl	e44 <TextDisplay::cls()>
     af6:	f8da 3010 	ldr.w	r3, [r10, #16]
     afa:	f8da 2004 	ldr.w	r2, [r10, #4]
     afe:	2100      	movs	r1, #0
     b00:	7021      	strb	r1, [r4, #0]
     b02:	601a      	str	r2, [r3, #0]
     b04:	7833      	ldrb	r3, [r6, #0]
     b06:	4c29      	ldr	r4, [pc, #164]	; (bac <main+0x1e8>)
     b08:	2b01      	cmp	r3, #1
     b0a:	d182      	bne.n	a12 <main+0x4e>
     b0c:	4830      	ldr	r0, [pc, #192]	; (bd0 <main+0x20c>)
     b0e:	f004 ff21 	bl	5954 <puts>
     b12:	4830      	ldr	r0, [pc, #192]	; (bd4 <main+0x210>)
     b14:	f7ff fd94 	bl	640 <TempSensor::getReadings()>
     b18:	f04f 507e 	mov.w	r0, #1065353216	; 0x3f800000
     b1c:	f000 faa0 	bl	1060 <wait>
     b20:	4826      	ldr	r0, [pc, #152]	; (bbc <main+0x1f8>)
     b22:	f000 f98f 	bl	e44 <TextDisplay::cls()>
     b26:	2200      	movs	r2, #0
     b28:	2102      	movs	r1, #2
     b2a:	4824      	ldr	r0, [pc, #144]	; (bbc <main+0x1f8>)
     b2c:	f000 f97e 	bl	e2c <TextDisplay::locate(int, int)>
     b30:	4929      	ldr	r1, [pc, #164]	; (bd8 <main+0x214>)
     b32:	4822      	ldr	r0, [pc, #136]	; (bbc <main+0x1f8>)
     b34:	f002 f8a8 	bl	2c88 <mbed::Stream::printf(char const*, ...)>
     b38:	f04f 4080 	mov.w	r0, #1073741824	; 0x40000000
     b3c:	f000 fa90 	bl	1060 <wait>
     b40:	481e      	ldr	r0, [pc, #120]	; (bbc <main+0x1f8>)
     b42:	f000 f97f 	bl	e44 <TextDisplay::cls()>
     b46:	2200      	movs	r2, #0
     b48:	2102      	movs	r1, #2
     b4a:	481c      	ldr	r0, [pc, #112]	; (bbc <main+0x1f8>)
     b4c:	f000 f96e 	bl	e2c <TextDisplay::locate(int, int)>
     b50:	4b20      	ldr	r3, [pc, #128]	; (bd4 <main+0x210>)
     b52:	6858      	ldr	r0, [r3, #4]
     b54:	f002 fcea 	bl	352c <__aeabi_f2d>
     b58:	4602      	mov	r2, r0
     b5a:	460b      	mov	r3, r1
     b5c:	4817      	ldr	r0, [pc, #92]	; (bbc <main+0x1f8>)
     b5e:	491f      	ldr	r1, [pc, #124]	; (bdc <main+0x218>)
     b60:	f002 f892 	bl	2c88 <mbed::Stream::printf(char const*, ...)>
     b64:	f04f 4080 	mov.w	r0, #1073741824	; 0x40000000
     b68:	f000 fa7a 	bl	1060 <wait>
     b6c:	4813      	ldr	r0, [pc, #76]	; (bbc <main+0x1f8>)
     b6e:	f000 f969 	bl	e44 <TextDisplay::cls()>
     b72:	f8d9 2010 	ldr.w	r2, [r9, #16]
     b76:	f8d9 1004 	ldr.w	r1, [r9, #4]
     b7a:	2300      	movs	r3, #0
     b7c:	6011      	str	r1, [r2, #0]
     b7e:	7023      	strb	r3, [r4, #0]
     b80:	e747      	b.n	a12 <main+0x4e>
     b82:	bf00      	nop
     b84:	100004f0 	.word	0x100004f0
     b88:	0000073d 	.word	0x0000073d
     b8c:	100002c0 	.word	0x100002c0
     b90:	000006dd 	.word	0x000006dd
     b94:	1000035c 	.word	0x1000035c
     b98:	10000330 	.word	0x10000330
     b9c:	0000070d 	.word	0x0000070d
     ba0:	100003d8 	.word	0x100003d8
     ba4:	00008010 	.word	0x00008010
     ba8:	100003b4 	.word	0x100003b4
     bac:	10000358 	.word	0x10000358
     bb0:	10000430 	.word	0x10000430
     bb4:	10000334 	.word	0x10000334
     bb8:	00008028 	.word	0x00008028
     bbc:	1000043c 	.word	0x1000043c
     bc0:	00008040 	.word	0x00008040
     bc4:	00008054 	.word	0x00008054
     bc8:	00008060 	.word	0x00008060
     bcc:	0000806c 	.word	0x0000806c
     bd0:	00008078 	.word	0x00008078
     bd4:	100003d0 	.word	0x100003d0
     bd8:	00008090 	.word	0x00008090
     bdc:	000080a0 	.word	0x000080a0
     be0:	1000027c 	.word	0x1000027c
     be4:	10000294 	.word	0x10000294

00000be8 <_GLOBAL__sub_I_sp>:
     be8:	e92d 4ff0 	stmdb	sp!, {r4, r5, r6, r7, r8, r9, r10, r11, lr}
     bec:	f8df 81ac 	ldr.w	r8, [pc, #428]	; d9c <Stack_Size+0x19c>
     bf0:	b087      	sub	sp, #28
     bf2:	4e4c      	ldr	r6, [pc, #304]	; (d24 <Stack_Size+0x124>)
     bf4:	f04f 33ff 	mov.w	r3, #4294967295
     bf8:	9300      	str	r3, [sp, #0]
     bfa:	4f4b      	ldr	r7, [pc, #300]	; (d28 <Stack_Size+0x128>)
     bfc:	4b4b      	ldr	r3, [pc, #300]	; (d2c <Stack_Size+0x12c>)
     bfe:	4640      	mov	r0, r8
     c00:	4a4b      	ldr	r2, [pc, #300]	; (d30 <Stack_Size+0x130>)
     c02:	494c      	ldr	r1, [pc, #304]	; (d34 <Stack_Size+0x134>)
     c04:	f001 fc86 	bl	2514 <mbed::SPI::SPI(PinName, PinName, PinName, PinName)>
     c08:	4d4b      	ldr	r5, [pc, #300]	; (d38 <Stack_Size+0x138>)
     c0a:	4632      	mov	r2, r6
     c0c:	4640      	mov	r0, r8
     c0e:	494b      	ldr	r1, [pc, #300]	; (d3c <Stack_Size+0x13c>)
     c10:	f002 fb08 	bl	3224 <__aeabi_atexit>
     c14:	4a4a      	ldr	r2, [pc, #296]	; (d40 <Stack_Size+0x140>)
     c16:	4638      	mov	r0, r7
     c18:	494a      	ldr	r1, [pc, #296]	; (d44 <Stack_Size+0x144>)
     c1a:	2400      	movs	r4, #0
     c1c:	f001 fcd4 	bl	25c8 <mbed::I2C::I2C(PinName, PinName)>
     c20:	4628      	mov	r0, r5
     c22:	4949      	ldr	r1, [pc, #292]	; (d48 <Stack_Size+0x148>)
     c24:	602c      	str	r4, [r5, #0]
     c26:	606c      	str	r4, [r5, #4]
     c28:	60ac      	str	r4, [r5, #8]
     c2a:	60ec      	str	r4, [r5, #12]
     c2c:	612c      	str	r4, [r5, #16]
     c2e:	616c      	str	r4, [r5, #20]
     c30:	f000 fa58 	bl	10e4 <gpio_init_out>
     c34:	4b45      	ldr	r3, [pc, #276]	; (d4c <Stack_Size+0x14c>)
     c36:	4946      	ldr	r1, [pc, #280]	; (d50 <Stack_Size+0x150>)
     c38:	4618      	mov	r0, r3
     c3a:	601c      	str	r4, [r3, #0]
     c3c:	605c      	str	r4, [r3, #4]
     c3e:	609c      	str	r4, [r3, #8]
     c40:	60dc      	str	r4, [r3, #12]
     c42:	611c      	str	r4, [r3, #16]
     c44:	615c      	str	r4, [r3, #20]
     c46:	f000 fa4d 	bl	10e4 <gpio_init_out>
     c4a:	4b42      	ldr	r3, [pc, #264]	; (d54 <Stack_Size+0x154>)
     c4c:	4942      	ldr	r1, [pc, #264]	; (d58 <Stack_Size+0x158>)
     c4e:	4618      	mov	r0, r3
     c50:	601c      	str	r4, [r3, #0]
     c52:	605c      	str	r4, [r3, #4]
     c54:	609c      	str	r4, [r3, #8]
     c56:	60dc      	str	r4, [r3, #12]
     c58:	611c      	str	r4, [r3, #16]
     c5a:	615c      	str	r4, [r3, #20]
     c5c:	f000 fa42 	bl	10e4 <gpio_init_out>
     c60:	4b3e      	ldr	r3, [pc, #248]	; (d5c <Stack_Size+0x15c>)
     c62:	f8df a13c 	ldr.w	r10, [pc, #316]	; da0 <Stack_Size+0x1a0>
     c66:	4618      	mov	r0, r3
     c68:	f8df 9138 	ldr.w	r9, [pc, #312]	; da4 <Stack_Size+0x1a4>
     c6c:	493c      	ldr	r1, [pc, #240]	; (d60 <Stack_Size+0x160>)
     c6e:	601c      	str	r4, [r3, #0]
     c70:	605c      	str	r4, [r3, #4]
     c72:	609c      	str	r4, [r3, #8]
     c74:	60dc      	str	r4, [r3, #12]
     c76:	611c      	str	r4, [r3, #16]
     c78:	615c      	str	r4, [r3, #20]
     c7a:	f8df b12c 	ldr.w	r11, [pc, #300]	; da8 <Stack_Size+0x1a8>
     c7e:	f000 fa31 	bl	10e4 <gpio_init_out>
     c82:	4650      	mov	r0, r10
     c84:	4937      	ldr	r1, [pc, #220]	; (d64 <Stack_Size+0x164>)
     c86:	f002 f863 	bl	2d50 <mbed::InterruptIn::InterruptIn(PinName)>
     c8a:	4632      	mov	r2, r6
     c8c:	4649      	mov	r1, r9
     c8e:	4650      	mov	r0, r10
     c90:	f002 fac8 	bl	3224 <__aeabi_atexit>
     c94:	f8df a114 	ldr.w	r10, [pc, #276]	; dac <Stack_Size+0x1ac>
     c98:	4658      	mov	r0, r11
     c9a:	4933      	ldr	r1, [pc, #204]	; (d68 <Stack_Size+0x168>)
     c9c:	f002 f858 	bl	2d50 <mbed::InterruptIn::InterruptIn(PinName)>
     ca0:	4632      	mov	r2, r6
     ca2:	4649      	mov	r1, r9
     ca4:	4658      	mov	r0, r11
     ca6:	f002 fabd 	bl	3224 <__aeabi_atexit>
     caa:	4650      	mov	r0, r10
     cac:	492f      	ldr	r1, [pc, #188]	; (d6c <Stack_Size+0x16c>)
     cae:	f002 f84f 	bl	2d50 <mbed::InterruptIn::InterruptIn(PinName)>
     cb2:	4632      	mov	r2, r6
     cb4:	4649      	mov	r1, r9
     cb6:	4650      	mov	r0, r10
     cb8:	f002 fab4 	bl	3224 <__aeabi_atexit>
     cbc:	482c      	ldr	r0, [pc, #176]	; (d70 <Stack_Size+0x170>)
     cbe:	f001 fed5 	bl	2a6c <mbed::Timer::Timer()>
     cc2:	f8df 90ec 	ldr.w	r9, [pc, #236]	; db0 <Stack_Size+0x1b0>
     cc6:	f8df e0ec 	ldr.w	lr, [pc, #236]	; db4 <Stack_Size+0x1b4>
     cca:	492a      	ldr	r1, [pc, #168]	; (d74 <Stack_Size+0x174>)
     ccc:	4a2a      	ldr	r2, [pc, #168]	; (d78 <Stack_Size+0x178>)
     cce:	4b2b      	ldr	r3, [pc, #172]	; (d7c <Stack_Size+0x17c>)
     cd0:	f8cd e00c 	str.w	lr, [sp, #12]
     cd4:	9404      	str	r4, [sp, #16]
     cd6:	9102      	str	r1, [sp, #8]
     cd8:	9201      	str	r2, [sp, #4]
     cda:	9300      	str	r3, [sp, #0]
     cdc:	4648      	mov	r0, r9
     cde:	3335      	adds	r3, #53	; 0x35
     ce0:	3237      	adds	r2, #55	; 0x37
     ce2:	313d      	adds	r1, #61	; 0x3d
     ce4:	f7ff fa72 	bl	1cc <TextLCD::TextLCD(PinName, PinName, PinName, PinName, PinName, PinName, PinName, char const*)>
     ce8:	4632      	mov	r2, r6
     cea:	4648      	mov	r0, r9
     cec:	4924      	ldr	r1, [pc, #144]	; (d80 <Stack_Size+0x180>)
     cee:	f002 fa99 	bl	3224 <__aeabi_atexit>
     cf2:	4c24      	ldr	r4, [pc, #144]	; (d84 <Stack_Size+0x184>)
     cf4:	462a      	mov	r2, r5
     cf6:	4641      	mov	r1, r8
     cf8:	4823      	ldr	r0, [pc, #140]	; (d88 <Stack_Size+0x188>)
     cfa:	f7ff fb65 	bl	3c8 <Accel::Accel(mbed::SPI*, mbed::DigitalOut*)>
     cfe:	4639      	mov	r1, r7
     d00:	4822      	ldr	r0, [pc, #136]	; (d8c <Stack_Size+0x18c>)
     d02:	f7ff fc7b 	bl	5fc <TempSensor::TempSensor(mbed::I2C*)>
     d06:	4620      	mov	r0, r4
     d08:	4921      	ldr	r1, [pc, #132]	; (d90 <Stack_Size+0x190>)
     d0a:	f001 ffd3 	bl	2cb4 <mbed::FileSystemLike::FileSystemLike(char const*)>
     d0e:	4632      	mov	r2, r6
     d10:	4620      	mov	r0, r4
     d12:	4b20      	ldr	r3, [pc, #128]	; (d94 <Stack_Size+0x194>)
     d14:	4920      	ldr	r1, [pc, #128]	; (d98 <Stack_Size+0x198>)
     d16:	6023      	str	r3, [r4, #0]
     d18:	b007      	add	sp, #28
     d1a:	e8bd 4ff0 	ldmia.w	sp!, {r4, r5, r6, r7, r8, r9, r10, r11, lr}
     d1e:	f002 ba81 	b.w	3224 <__aeabi_atexit>
     d22:	bf00      	nop
     d24:	100000c8 	.word	0x100000c8
     d28:	10000434 	.word	0x10000434
     d2c:	2009c00f 	.word	0x2009c00f
     d30:	2009c011 	.word	0x2009c011
     d34:	2009c012 	.word	0x2009c012
     d38:	100003b8 	.word	0x100003b8
     d3c:	000006d9 	.word	0x000006d9
     d40:	2009c001 	.word	0x2009c001
     d44:	2009c000 	.word	0x2009c000
     d48:	2009c010 	.word	0x2009c010
     d4c:	10000318 	.word	0x10000318
     d50:	2009c032 	.word	0x2009c032
     d54:	1000027c 	.word	0x1000027c
     d58:	2009c034 	.word	0x2009c034
     d5c:	10000294 	.word	0x10000294
     d60:	2009c035 	.word	0x2009c035
     d64:	2009c01a 	.word	0x2009c01a
     d68:	2009c019 	.word	0x2009c019
     d6c:	2009c018 	.word	0x2009c018
     d70:	100004f0 	.word	0x100004f0
     d74:	2009c005 	.word	0x2009c005
     d78:	2009c00a 	.word	0x2009c00a
     d7c:	2009c00b 	.word	0x2009c00b
     d80:	000002f5 	.word	0x000002f5
     d84:	1000026c 	.word	0x1000026c
     d88:	10000334 	.word	0x10000334
     d8c:	100003d0 	.word	0x100003d0
     d90:	00007d50 	.word	0x00007d50
     d94:	00008648 	.word	0x00008648
     d98:	00000375 	.word	0x00000375
     d9c:	100002ac 	.word	0x100002ac
     da0:	100002c0 	.word	0x100002c0
     da4:	00002ce1 	.word	0x00002ce1
     da8:	1000035c 	.word	0x1000035c
     dac:	100003d8 	.word	0x100003d8
     db0:	1000043c 	.word	0x1000043c
     db4:	2009c004 	.word	0x2009c004

00000db8 <TextDisplay::_putc(int)>:
     db8:	290a      	cmp	r1, #10
     dba:	b570      	push	{r4, r5, r6, lr}
     dbc:	460e      	mov	r6, r1
     dbe:	4604      	mov	r4, r0
     dc0:	d025      	beq.n	e0e <TextDisplay::_putc(int)+0x56>
     dc2:	6802      	ldr	r2, [r0, #0]
     dc4:	460b      	mov	r3, r1
     dc6:	6ad5      	ldr	r5, [r2, #44]	; 0x2c
     dc8:	f9b0 1018 	ldrsh.w	r1, [r0, #24]
     dcc:	f9b0 201a 	ldrsh.w	r2, [r0, #26]
     dd0:	47a8      	blx	r5
     dd2:	8b25      	ldrh	r5, [r4, #24]
     dd4:	6823      	ldr	r3, [r4, #0]
     dd6:	3501      	adds	r5, #1
     dd8:	b2ad      	uxth	r5, r5
     dda:	8325      	strh	r5, [r4, #24]
     ddc:	6b5b      	ldr	r3, [r3, #52]	; 0x34
     dde:	4620      	mov	r0, r4
     de0:	4798      	blx	r3
     de2:	b22d      	sxth	r5, r5
     de4:	4285      	cmp	r5, r0
     de6:	da01      	bge.n	dec <TextDisplay::_putc(int)+0x34>
     de8:	4630      	mov	r0, r6
     dea:	bd70      	pop	{r4, r5, r6, pc}
     dec:	8b65      	ldrh	r5, [r4, #26]
     dee:	6823      	ldr	r3, [r4, #0]
     df0:	3501      	adds	r5, #1
     df2:	b2ad      	uxth	r5, r5
     df4:	2200      	movs	r2, #0
     df6:	8365      	strh	r5, [r4, #26]
     df8:	6b1b      	ldr	r3, [r3, #48]	; 0x30
     dfa:	4620      	mov	r0, r4
     dfc:	8322      	strh	r2, [r4, #24]
     dfe:	4798      	blx	r3
     e00:	b22d      	sxth	r5, r5
     e02:	4285      	cmp	r5, r0
     e04:	dbf0      	blt.n	de8 <TextDisplay::_putc(int)+0x30>
     e06:	2300      	movs	r3, #0
     e08:	8363      	strh	r3, [r4, #26]
     e0a:	4630      	mov	r0, r6
     e0c:	bd70      	pop	{r4, r5, r6, pc}
     e0e:	8b45      	ldrh	r5, [r0, #26]
     e10:	6803      	ldr	r3, [r0, #0]
     e12:	3501      	adds	r5, #1
     e14:	b2ad      	uxth	r5, r5
     e16:	2200      	movs	r2, #0
     e18:	8345      	strh	r5, [r0, #26]
     e1a:	6b1b      	ldr	r3, [r3, #48]	; 0x30
     e1c:	8302      	strh	r2, [r0, #24]
     e1e:	4798      	blx	r3
     e20:	b22d      	sxth	r5, r5
     e22:	4285      	cmp	r5, r0
     e24:	dbe0      	blt.n	de8 <TextDisplay::_putc(int)+0x30>
     e26:	2300      	movs	r3, #0
     e28:	8363      	strh	r3, [r4, #26]
     e2a:	e7ee      	b.n	e0a <TextDisplay::_putc(int)+0x52>

00000e2c <TextDisplay::locate(int, int)>:
     e2c:	8301      	strh	r1, [r0, #24]
     e2e:	8342      	strh	r2, [r0, #26]
     e30:	4770      	bx	lr
     e32:	bf00      	nop

00000e34 <TextDisplay::_getc()>:
     e34:	f04f 30ff 	mov.w	r0, #4294967295
     e38:	4770      	bx	lr
     e3a:	bf00      	nop

00000e3c <TextDisplay::foreground(int)>:
     e3c:	61c1      	str	r1, [r0, #28]
     e3e:	4770      	bx	lr

00000e40 <TextDisplay::background(int)>:
     e40:	6201      	str	r1, [r0, #32]
     e42:	4770      	bx	lr

00000e44 <TextDisplay::cls()>:
     e44:	6803      	ldr	r3, [r0, #0]
     e46:	b570      	push	{r4, r5, r6, lr}
     e48:	4a11      	ldr	r2, [pc, #68]	; (e90 <TextDisplay::cls()+0x4c>)
     e4a:	6bdd      	ldr	r5, [r3, #60]	; 0x3c
     e4c:	4604      	mov	r4, r0
     e4e:	4295      	cmp	r5, r2
     e50:	f04f 0200 	mov.w	r2, #0
     e54:	d117      	bne.n	e86 <TextDisplay::cls()+0x42>
     e56:	8302      	strh	r2, [r0, #24]
     e58:	8342      	strh	r2, [r0, #26]
     e5a:	2600      	movs	r6, #0
     e5c:	e004      	b.n	e68 <TextDisplay::cls()+0x24>
     e5e:	4620      	mov	r0, r4
     e60:	f001 ff06 	bl	2c70 <mbed::Stream::putc(int)>
     e64:	6823      	ldr	r3, [r4, #0]
     e66:	3601      	adds	r6, #1
     e68:	6b5b      	ldr	r3, [r3, #52]	; 0x34
     e6a:	4620      	mov	r0, r4
     e6c:	4798      	blx	r3
     e6e:	6823      	ldr	r3, [r4, #0]
     e70:	4605      	mov	r5, r0
     e72:	6b1b      	ldr	r3, [r3, #48]	; 0x30
     e74:	4620      	mov	r0, r4
     e76:	4798      	blx	r3
     e78:	fb00 f005 	mul.w	r0, r0, r5
     e7c:	4286      	cmp	r6, r0
     e7e:	f04f 0120 	mov.w	r1, #32
     e82:	dbec      	blt.n	e5e <TextDisplay::cls()+0x1a>
     e84:	bd70      	pop	{r4, r5, r6, pc}
     e86:	4611      	mov	r1, r2
     e88:	47a8      	blx	r5
     e8a:	6823      	ldr	r3, [r4, #0]
     e8c:	e7e5      	b.n	e5a <TextDisplay::cls()+0x16>
     e8e:	bf00      	nop
     e90:	00000e2d 	.word	0x00000e2d

00000e94 <TextDisplay::TextDisplay(char const*)>:
     e94:	b510      	push	{r4, lr}
     e96:	4604      	mov	r4, r0
     e98:	f001 feb6 	bl	2c08 <mbed::Stream::Stream(char const*)>
     e9c:	4b05      	ldr	r3, [pc, #20]	; (eb4 <TextDisplay::TextDisplay(char const*)+0x20>)
     e9e:	2200      	movs	r2, #0
     ea0:	f103 0108 	add.w	r1, r3, #8
     ea4:	3358      	adds	r3, #88	; 0x58
     ea6:	e884 000a 	stmia.w	r4, {r1, r3}
     eaa:	8362      	strh	r2, [r4, #26]
     eac:	8322      	strh	r2, [r4, #24]
     eae:	4620      	mov	r0, r4
     eb0:	bd10      	pop	{r4, pc}
     eb2:	bf00      	nop
     eb4:	000080ac 	.word	0x000080ac

00000eb8 <_start>:
     eb8:	4a07      	ldr	r2, [pc, #28]	; (ed8 <_start+0x20>)
     eba:	4808      	ldr	r0, [pc, #32]	; (edc <_start+0x24>)
     ebc:	b508      	push	{r3, lr}
     ebe:	2100      	movs	r1, #0
     ec0:	1a12      	subs	r2, r2, r0
     ec2:	f003 fcd7 	bl	4874 <memset>
     ec6:	f3af 8000 	nop.w
     eca:	f003 fc1d 	bl	4708 <__libc_init_array>
     ece:	f001 fd2d 	bl	292c <__wrap_main>
     ed2:	f003 f8a1 	bl	4018 <exit>
     ed6:	bf00      	nop
     ed8:	100007dc 	.word	0x100007dc
     edc:	10000188 	.word	0x10000188

00000ee0 <__wrap__isatty>:
     ee0:	2802      	cmp	r0, #2
     ee2:	dc01      	bgt.n	ee8 <__wrap__isatty+0x8>
     ee4:	2001      	movs	r0, #1
     ee6:	4770      	bx	lr
     ee8:	f001 bce8 	b.w	28bc <_isatty>

00000eec <__wrap_malloc>:
     eec:	f3ef 8305 	mrs	r3, IPSR
     ef0:	b103      	cbz	r3, ef4 <__wrap_malloc+0x8>
     ef2:	be00      	bkpt	0x0000
     ef4:	f003 bc7a 	b.w	47ec <malloc>

00000ef8 <__wrap_free>:
     ef8:	f3ef 8305 	mrs	r3, IPSR
     efc:	b103      	cbz	r3, f00 <__wrap_free+0x8>
     efe:	be00      	bkpt	0x0000
     f00:	f003 bc7c 	b.w	47fc <free>

00000f04 <abort>:
     f04:	b508      	push	{r3, lr}
     f06:	2001      	movs	r0, #1
     f08:	f003 f886 	bl	4018 <exit>

00000f0c <__cxa_pure_virtual>:
     f0c:	b508      	push	{r3, lr}
     f0e:	f7ff fff9 	bl	f04 <abort>
     f12:	bf00      	nop

00000f14 <semihost_open>:
     f14:	b530      	push	{r4, r5, lr}
     f16:	b085      	sub	sp, #20
     f18:	9001      	str	r0, [sp, #4]
     f1a:	9102      	str	r1, [sp, #8]
     f1c:	f004 feb7 	bl	5c8e <strlen>
     f20:	2401      	movs	r4, #1
     f22:	9003      	str	r0, [sp, #12]
     f24:	ad01      	add	r5, sp, #4
     f26:	4620      	mov	r0, r4
     f28:	4629      	mov	r1, r5
     f2a:	beab      	bkpt	0x00ab
     f2c:	4604      	mov	r4, r0
     f2e:	4620      	mov	r0, r4
     f30:	b005      	add	sp, #20
     f32:	bd30      	pop	{r4, r5, pc}

00000f34 <semihost_close>:
     f34:	b530      	push	{r4, r5, lr}
     f36:	b083      	sub	sp, #12
     f38:	ad02      	add	r5, sp, #8
     f3a:	2402      	movs	r4, #2
     f3c:	f845 0d04 	str.w	r0, [r5, #-4]!
     f40:	4620      	mov	r0, r4
     f42:	4629      	mov	r1, r5
     f44:	beab      	bkpt	0x00ab
     f46:	4604      	mov	r4, r0
     f48:	4620      	mov	r0, r4
     f4a:	b003      	add	sp, #12
     f4c:	bd30      	pop	{r4, r5, pc}
     f4e:	bf00      	nop

00000f50 <semihost_write>:
     f50:	b16a      	cbz	r2, f6e <semihost_write+0x1e>
     f52:	b530      	push	{r4, r5, lr}
     f54:	b085      	sub	sp, #20
     f56:	9001      	str	r0, [sp, #4]
     f58:	9102      	str	r1, [sp, #8]
     f5a:	9203      	str	r2, [sp, #12]
     f5c:	2405      	movs	r4, #5
     f5e:	ad01      	add	r5, sp, #4
     f60:	4620      	mov	r0, r4
     f62:	4629      	mov	r1, r5
     f64:	beab      	bkpt	0x00ab
     f66:	4604      	mov	r4, r0
     f68:	4620      	mov	r0, r4
     f6a:	b005      	add	sp, #20
     f6c:	bd30      	pop	{r4, r5, pc}
     f6e:	4610      	mov	r0, r2
     f70:	4770      	bx	lr
     f72:	bf00      	nop

00000f74 <semihost_read>:
     f74:	b530      	push	{r4, r5, lr}
     f76:	b085      	sub	sp, #20
     f78:	9001      	str	r0, [sp, #4]
     f7a:	9102      	str	r1, [sp, #8]
     f7c:	9203      	str	r2, [sp, #12]
     f7e:	2406      	movs	r4, #6
     f80:	ad01      	add	r5, sp, #4
     f82:	4620      	mov	r0, r4
     f84:	4629      	mov	r1, r5
     f86:	beab      	bkpt	0x00ab
     f88:	4604      	mov	r4, r0
     f8a:	4620      	mov	r0, r4
     f8c:	b005      	add	sp, #20
     f8e:	bd30      	pop	{r4, r5, pc}

00000f90 <semihost_istty>:
     f90:	b530      	push	{r4, r5, lr}
     f92:	b083      	sub	sp, #12
     f94:	ad02      	add	r5, sp, #8
     f96:	2409      	movs	r4, #9
     f98:	f845 0d04 	str.w	r0, [r5, #-4]!
     f9c:	4620      	mov	r0, r4
     f9e:	4629      	mov	r1, r5
     fa0:	beab      	bkpt	0x00ab
     fa2:	4604      	mov	r4, r0
     fa4:	4620      	mov	r0, r4
     fa6:	b003      	add	sp, #12
     fa8:	bd30      	pop	{r4, r5, pc}
     faa:	bf00      	nop

00000fac <semihost_seek>:
     fac:	b530      	push	{r4, r5, lr}
     fae:	b083      	sub	sp, #12
     fb0:	e88d 0003 	stmia.w	sp, {r0, r1}
     fb4:	240a      	movs	r4, #10
     fb6:	466d      	mov	r5, sp
     fb8:	4620      	mov	r0, r4
     fba:	4629      	mov	r1, r5
     fbc:	beab      	bkpt	0x00ab
     fbe:	4604      	mov	r4, r0
     fc0:	4620      	mov	r0, r4
     fc2:	b003      	add	sp, #12
     fc4:	bd30      	pop	{r4, r5, pc}
     fc6:	bf00      	nop

00000fc8 <semihost_ensure>:
     fc8:	b530      	push	{r4, r5, lr}
     fca:	b083      	sub	sp, #12
     fcc:	ad02      	add	r5, sp, #8
     fce:	240b      	movs	r4, #11
     fd0:	f845 0d04 	str.w	r0, [r5, #-4]!
     fd4:	4620      	mov	r0, r4
     fd6:	4629      	mov	r1, r5
     fd8:	beab      	bkpt	0x00ab
     fda:	4604      	mov	r4, r0
     fdc:	4620      	mov	r0, r4
     fde:	b003      	add	sp, #12
     fe0:	bd30      	pop	{r4, r5, pc}
     fe2:	bf00      	nop

00000fe4 <semihost_flen>:
     fe4:	b530      	push	{r4, r5, lr}
     fe6:	b083      	sub	sp, #12
     fe8:	ad02      	add	r5, sp, #8
     fea:	240c      	movs	r4, #12
     fec:	f845 0d04 	str.w	r0, [r5, #-4]!
     ff0:	4620      	mov	r0, r4
     ff2:	4629      	mov	r1, r5
     ff4:	beab      	bkpt	0x00ab
     ff6:	4604      	mov	r4, r0
     ff8:	4620      	mov	r0, r4
     ffa:	b003      	add	sp, #12
     ffc:	bd30      	pop	{r4, r5, pc}
     ffe:	bf00      	nop

00001000 <semihost_remove>:
    1000:	b530      	push	{r4, r5, lr}
    1002:	b083      	sub	sp, #12
    1004:	9000      	str	r0, [sp, #0]
    1006:	f004 fe42 	bl	5c8e <strlen>
    100a:	240e      	movs	r4, #14
    100c:	9001      	str	r0, [sp, #4]
    100e:	466d      	mov	r5, sp
    1010:	4620      	mov	r0, r4
    1012:	4629      	mov	r1, r5
    1014:	beab      	bkpt	0x00ab
    1016:	4604      	mov	r4, r0
    1018:	4620      	mov	r0, r4
    101a:	b003      	add	sp, #12
    101c:	bd30      	pop	{r4, r5, pc}
    101e:	bf00      	nop

00001020 <semihost_exit>:
    1020:	b530      	push	{r4, r5, lr}
    1022:	b085      	sub	sp, #20
    1024:	2418      	movs	r4, #24
    1026:	466d      	mov	r5, sp
    1028:	4620      	mov	r0, r4
    102a:	4629      	mov	r1, r5
    102c:	beab      	bkpt	0x00ab
    102e:	4604      	mov	r4, r0
    1030:	4620      	mov	r0, r4
    1032:	b005      	add	sp, #20
    1034:	bd30      	pop	{r4, r5, pc}
    1036:	bf00      	nop

00001038 <semihost_connected>:
    1038:	4b02      	ldr	r3, [pc, #8]	; (1044 <semihost_connected+0xc>)
    103a:	6818      	ldr	r0, [r3, #0]
    103c:	f000 0001 	and.w	r0, r0, #1
    1040:	4770      	bx	lr
    1042:	bf00      	nop
    1044:	e000edf0 	.word	0xe000edf0

00001048 <wait_us>:
    1048:	b538      	push	{r3, r4, r5, lr}
    104a:	4605      	mov	r5, r0
    104c:	f000 fc68 	bl	1920 <us_ticker_read>
    1050:	4604      	mov	r4, r0
    1052:	f000 fc65 	bl	1920 <us_ticker_read>
    1056:	1b00      	subs	r0, r0, r4
    1058:	42a8      	cmp	r0, r5
    105a:	d3fa      	bcc.n	1052 <wait_us+0xa>
    105c:	bd38      	pop	{r3, r4, r5, pc}
    105e:	bf00      	nop

00001060 <wait>:
    1060:	b508      	push	{r3, lr}
    1062:	4904      	ldr	r1, [pc, #16]	; (1074 <wait+0x14>)
    1064:	f002 fe4e 	bl	3d04 <__aeabi_fmul>
    1068:	f002 ff9c 	bl	3fa4 <__aeabi_f2iz>
    106c:	e8bd 4008 	ldmia.w	sp!, {r3, lr}
    1070:	f7ff bfea 	b.w	1048 <wait_us>
    1074:	49742400 	.word	0x49742400

00001078 <wait_ms>:
    1078:	f44f 737a 	mov.w	r3, #1000	; 0x3e8
    107c:	fb03 f000 	mul.w	r0, r3, r0
    1080:	f7ff bfe2 	b.w	1048 <wait_us>

00001084 <error>:
    1084:	b40f      	push	{r0, r1, r2, r3}
    1086:	b500      	push	{lr}
    1088:	4a06      	ldr	r2, [pc, #24]	; (10a4 <error+0x20>)
    108a:	b083      	sub	sp, #12
    108c:	ab04      	add	r3, sp, #16
    108e:	f853 1b04 	ldr.w	r1, [r3], #4
    1092:	6810      	ldr	r0, [r2, #0]
    1094:	461a      	mov	r2, r3
    1096:	68c0      	ldr	r0, [r0, #12]
    1098:	9301      	str	r3, [sp, #4]
    109a:	f003 fdcf 	bl	4c3c <vfiprintf>
    109e:	2001      	movs	r0, #1
    10a0:	f002 ffba 	bl	4018 <exit>
    10a4:	10000134 	.word	0x10000134

000010a8 <get_us_ticker_data>:
    10a8:	4800      	ldr	r0, [pc, #0]	; (10ac <get_us_ticker_data+0x4>)
    10aa:	4770      	bx	lr
    10ac:	00008120 	.word	0x00008120

000010b0 <us_ticker_irq_handler>:
    10b0:	4801      	ldr	r0, [pc, #4]	; (10b8 <us_ticker_irq_handler+0x8>)
    10b2:	f000 b849 	b.w	1148 <ticker_irq_handler>
    10b6:	bf00      	nop
    10b8:	00008120 	.word	0x00008120

000010bc <mbed_interface_connected>:
    10bc:	f7ff bfbc 	b.w	1038 <semihost_connected>

000010c0 <gpio_init_in>:
    10c0:	b538      	push	{r3, r4, r5, lr}
    10c2:	460d      	mov	r5, r1
    10c4:	4604      	mov	r4, r0
    10c6:	f000 fbbf 	bl	1848 <gpio_init>
    10ca:	3501      	adds	r5, #1
    10cc:	d009      	beq.n	10e2 <gpio_init_in+0x22>
    10ce:	4620      	mov	r0, r4
    10d0:	2100      	movs	r1, #0
    10d2:	f000 fbdb 	bl	188c <gpio_dir>
    10d6:	4620      	mov	r0, r4
    10d8:	e8bd 4038 	ldmia.w	sp!, {r3, r4, r5, lr}
    10dc:	2103      	movs	r1, #3
    10de:	f000 bbd1 	b.w	1884 <gpio_mode>
    10e2:	bd38      	pop	{r3, r4, r5, pc}

000010e4 <gpio_init_out>:
    10e4:	b538      	push	{r3, r4, r5, lr}
    10e6:	460d      	mov	r5, r1
    10e8:	4604      	mov	r4, r0
    10ea:	f000 fbad 	bl	1848 <gpio_init>
    10ee:	3501      	adds	r5, #1
    10f0:	d00c      	beq.n	110c <gpio_init_out+0x28>
    10f2:	6923      	ldr	r3, [r4, #16]
    10f4:	6862      	ldr	r2, [r4, #4]
    10f6:	4620      	mov	r0, r4
    10f8:	2101      	movs	r1, #1
    10fa:	601a      	str	r2, [r3, #0]
    10fc:	f000 fbc6 	bl	188c <gpio_dir>
    1100:	4620      	mov	r0, r4
    1102:	e8bd 4038 	ldmia.w	sp!, {r3, r4, r5, lr}
    1106:	2102      	movs	r1, #2
    1108:	f000 bbbc 	b.w	1884 <gpio_mode>
    110c:	bd38      	pop	{r3, r4, r5, pc}
    110e:	bf00      	nop

00001110 <gpio_init_out_ex>:
    1110:	b570      	push	{r4, r5, r6, lr}
    1112:	460d      	mov	r5, r1
    1114:	4616      	mov	r6, r2
    1116:	4604      	mov	r4, r0
    1118:	f000 fb96 	bl	1848 <gpio_init>
    111c:	3501      	adds	r5, #1
    111e:	d011      	beq.n	1144 <gpio_init_out_ex+0x34>
    1120:	b966      	cbnz	r6, 113c <gpio_init_out_ex+0x2c>
    1122:	6923      	ldr	r3, [r4, #16]
    1124:	6862      	ldr	r2, [r4, #4]
    1126:	601a      	str	r2, [r3, #0]
    1128:	4620      	mov	r0, r4
    112a:	2101      	movs	r1, #1
    112c:	f000 fbae 	bl	188c <gpio_dir>
    1130:	4620      	mov	r0, r4
    1132:	e8bd 4070 	ldmia.w	sp!, {r4, r5, r6, lr}
    1136:	2102      	movs	r1, #2
    1138:	f000 bba4 	b.w	1884 <gpio_mode>
    113c:	68e3      	ldr	r3, [r4, #12]
    113e:	6862      	ldr	r2, [r4, #4]
    1140:	601a      	str	r2, [r3, #0]
    1142:	e7f1      	b.n	1128 <gpio_init_out_ex+0x18>
    1144:	bd70      	pop	{r4, r5, r6, pc}
    1146:	bf00      	nop

00001148 <ticker_irq_handler>:
    1148:	6803      	ldr	r3, [r0, #0]
    114a:	b570      	push	{r4, r5, r6, lr}
    114c:	68db      	ldr	r3, [r3, #12]
    114e:	4605      	mov	r5, r0
    1150:	4798      	blx	r3
    1152:	686b      	ldr	r3, [r5, #4]
    1154:	685b      	ldr	r3, [r3, #4]
    1156:	b183      	cbz	r3, 117a <ticker_irq_handler+0x32>
    1158:	682a      	ldr	r2, [r5, #0]
    115a:	681c      	ldr	r4, [r3, #0]
    115c:	6853      	ldr	r3, [r2, #4]
    115e:	4798      	blx	r3
    1160:	1a20      	subs	r0, r4, r0
    1162:	2800      	cmp	r0, #0
    1164:	686a      	ldr	r2, [r5, #4]
    1166:	dc0d      	bgt.n	1184 <ticker_irq_handler+0x3c>
    1168:	6850      	ldr	r0, [r2, #4]
    116a:	6811      	ldr	r1, [r2, #0]
    116c:	6883      	ldr	r3, [r0, #8]
    116e:	6053      	str	r3, [r2, #4]
    1170:	2900      	cmp	r1, #0
    1172:	d0f0      	beq.n	1156 <ticker_irq_handler+0xe>
    1174:	6840      	ldr	r0, [r0, #4]
    1176:	4788      	blx	r1
    1178:	e7eb      	b.n	1152 <ticker_irq_handler+0xa>
    117a:	682b      	ldr	r3, [r5, #0]
    117c:	e8bd 4070 	ldmia.w	sp!, {r4, r5, r6, lr}
    1180:	689b      	ldr	r3, [r3, #8]
    1182:	4718      	bx	r3
    1184:	682b      	ldr	r3, [r5, #0]
    1186:	6852      	ldr	r2, [r2, #4]
    1188:	691b      	ldr	r3, [r3, #16]
    118a:	6810      	ldr	r0, [r2, #0]
    118c:	e8bd 4070 	ldmia.w	sp!, {r4, r5, r6, lr}
    1190:	4718      	bx	r3
    1192:	bf00      	nop

00001194 <ticker_read>:
    1194:	6803      	ldr	r3, [r0, #0]
    1196:	685b      	ldr	r3, [r3, #4]
    1198:	4718      	bx	r3
    119a:	bf00      	nop

0000119c <mbed_die>:
    119c:	b500      	push	{lr}
    119e:	b099      	sub	sp, #100	; 0x64
    11a0:	b672      	cpsid	i
    11a2:	4917      	ldr	r1, [pc, #92]	; (1200 <mbed_die+0x64>)
    11a4:	4668      	mov	r0, sp
    11a6:	f7ff ff9d 	bl	10e4 <gpio_init_out>
    11aa:	a806      	add	r0, sp, #24
    11ac:	4915      	ldr	r1, [pc, #84]	; (1204 <mbed_die+0x68>)
    11ae:	f7ff ff99 	bl	10e4 <gpio_init_out>
    11b2:	a80c      	add	r0, sp, #48	; 0x30
    11b4:	4914      	ldr	r1, [pc, #80]	; (1208 <mbed_die+0x6c>)
    11b6:	f7ff ff95 	bl	10e4 <gpio_init_out>
    11ba:	a812      	add	r0, sp, #72	; 0x48
    11bc:	4913      	ldr	r1, [pc, #76]	; (120c <mbed_die+0x70>)
    11be:	f7ff ff91 	bl	10e4 <gpio_init_out>
    11c2:	9a03      	ldr	r2, [sp, #12]
    11c4:	9901      	ldr	r1, [sp, #4]
    11c6:	9b0a      	ldr	r3, [sp, #40]	; 0x28
    11c8:	6011      	str	r1, [r2, #0]
    11ca:	9907      	ldr	r1, [sp, #28]
    11cc:	9a10      	ldr	r2, [sp, #64]	; 0x40
    11ce:	6019      	str	r1, [r3, #0]
    11d0:	990d      	ldr	r1, [sp, #52]	; 0x34
    11d2:	9b15      	ldr	r3, [sp, #84]	; 0x54
    11d4:	6011      	str	r1, [r2, #0]
    11d6:	9a13      	ldr	r2, [sp, #76]	; 0x4c
    11d8:	2096      	movs	r0, #150	; 0x96
    11da:	601a      	str	r2, [r3, #0]
    11dc:	f7ff ff4c 	bl	1078 <wait_ms>
    11e0:	9a04      	ldr	r2, [sp, #16]
    11e2:	9901      	ldr	r1, [sp, #4]
    11e4:	9b09      	ldr	r3, [sp, #36]	; 0x24
    11e6:	6011      	str	r1, [r2, #0]
    11e8:	9907      	ldr	r1, [sp, #28]
    11ea:	9a0f      	ldr	r2, [sp, #60]	; 0x3c
    11ec:	6019      	str	r1, [r3, #0]
    11ee:	990d      	ldr	r1, [sp, #52]	; 0x34
    11f0:	9b16      	ldr	r3, [sp, #88]	; 0x58
    11f2:	6011      	str	r1, [r2, #0]
    11f4:	9a13      	ldr	r2, [sp, #76]	; 0x4c
    11f6:	2096      	movs	r0, #150	; 0x96
    11f8:	601a      	str	r2, [r3, #0]
    11fa:	f7ff ff3d 	bl	1078 <wait_ms>
    11fe:	e7e0      	b.n	11c2 <mbed_die+0x26>
    1200:	2009c032 	.word	0x2009c032
    1204:	2009c034 	.word	0x2009c034
    1208:	2009c035 	.word	0x2009c035
    120c:	2009c037 	.word	0x2009c037

00001210 <pinmap_pinout>:
    1210:	1c43      	adds	r3, r0, #1
    1212:	d01c      	beq.n	124e <pinmap_pinout+0x3e>
    1214:	680b      	ldr	r3, [r1, #0]
    1216:	1c5a      	adds	r2, r3, #1
    1218:	d01a      	beq.n	1250 <pinmap_pinout+0x40>
    121a:	4298      	cmp	r0, r3
    121c:	b510      	push	{r4, lr}
    121e:	4604      	mov	r4, r0
    1220:	d102      	bne.n	1228 <pinmap_pinout+0x18>
    1222:	e00a      	b.n	123a <pinmap_pinout+0x2a>
    1224:	429c      	cmp	r4, r3
    1226:	d008      	beq.n	123a <pinmap_pinout+0x2a>
    1228:	f851 3f0c 	ldr.w	r3, [r1, #12]!
    122c:	1c5a      	adds	r2, r3, #1
    122e:	d1f9      	bne.n	1224 <pinmap_pinout+0x14>
    1230:	4809      	ldr	r0, [pc, #36]	; (1258 <pinmap_pinout+0x48>)
    1232:	e8bd 4010 	ldmia.w	sp!, {r4, lr}
    1236:	f7ff bf25 	b.w	1084 <error>
    123a:	4620      	mov	r0, r4
    123c:	6889      	ldr	r1, [r1, #8]
    123e:	f000 fd15 	bl	1c6c <pin_function>
    1242:	4620      	mov	r0, r4
    1244:	e8bd 4010 	ldmia.w	sp!, {r4, lr}
    1248:	2102      	movs	r1, #2
    124a:	f000 bd2b 	b.w	1ca4 <pin_mode>
    124e:	4770      	bx	lr
    1250:	4801      	ldr	r0, [pc, #4]	; (1258 <pinmap_pinout+0x48>)
    1252:	f7ff bf17 	b.w	1084 <error>
    1256:	bf00      	nop
    1258:	00008128 	.word	0x00008128

0000125c <pinmap_merge>:
    125c:	4288      	cmp	r0, r1
    125e:	d00a      	beq.n	1276 <pinmap_merge+0x1a>
    1260:	1c42      	adds	r2, r0, #1
    1262:	d009      	beq.n	1278 <pinmap_merge+0x1c>
    1264:	3101      	adds	r1, #1
    1266:	d006      	beq.n	1276 <pinmap_merge+0x1a>
    1268:	b508      	push	{r3, lr}
    126a:	4804      	ldr	r0, [pc, #16]	; (127c <pinmap_merge+0x20>)
    126c:	f7ff ff0a 	bl	1084 <error>
    1270:	f04f 30ff 	mov.w	r0, #4294967295
    1274:	bd08      	pop	{r3, pc}
    1276:	4770      	bx	lr
    1278:	4608      	mov	r0, r1
    127a:	4770      	bx	lr
    127c:	0000813c 	.word	0x0000813c

00001280 <pinmap_find_peripheral>:
    1280:	680b      	ldr	r3, [r1, #0]
    1282:	1c5a      	adds	r2, r3, #1
    1284:	d008      	beq.n	1298 <pinmap_find_peripheral+0x18>
    1286:	4298      	cmp	r0, r3
    1288:	d102      	bne.n	1290 <pinmap_find_peripheral+0x10>
    128a:	e007      	b.n	129c <pinmap_find_peripheral+0x1c>
    128c:	4283      	cmp	r3, r0
    128e:	d005      	beq.n	129c <pinmap_find_peripheral+0x1c>
    1290:	f851 3f0c 	ldr.w	r3, [r1, #12]!
    1294:	1c5a      	adds	r2, r3, #1
    1296:	d1f9      	bne.n	128c <pinmap_find_peripheral+0xc>
    1298:	4618      	mov	r0, r3
    129a:	4770      	bx	lr
    129c:	6848      	ldr	r0, [r1, #4]
    129e:	4770      	bx	lr

000012a0 <pinmap_peripheral>:
    12a0:	1c42      	adds	r2, r0, #1
    12a2:	d00e      	beq.n	12c2 <pinmap_peripheral+0x22>
    12a4:	b508      	push	{r3, lr}
    12a6:	680b      	ldr	r3, [r1, #0]
    12a8:	1c5a      	adds	r2, r3, #1
    12aa:	d104      	bne.n	12b6 <pinmap_peripheral+0x16>
    12ac:	e00a      	b.n	12c4 <pinmap_peripheral+0x24>
    12ae:	f851 3f0c 	ldr.w	r3, [r1, #12]!
    12b2:	1c5a      	adds	r2, r3, #1
    12b4:	d006      	beq.n	12c4 <pinmap_peripheral+0x24>
    12b6:	4298      	cmp	r0, r3
    12b8:	d1f9      	bne.n	12ae <pinmap_peripheral+0xe>
    12ba:	6848      	ldr	r0, [r1, #4]
    12bc:	1c41      	adds	r1, r0, #1
    12be:	d001      	beq.n	12c4 <pinmap_peripheral+0x24>
    12c0:	bd08      	pop	{r3, pc}
    12c2:	4770      	bx	lr
    12c4:	4802      	ldr	r0, [pc, #8]	; (12d0 <pinmap_peripheral+0x30>)
    12c6:	f7ff fedd 	bl	1084 <error>
    12ca:	f04f 30ff 	mov.w	r0, #4294967295
    12ce:	bd08      	pop	{r3, pc}
    12d0:	00008150 	.word	0x00008150

000012d4 <NVIC_SetVector>:
    12d4:	4b0c      	ldr	r3, [pc, #48]	; (1308 <NVIC_SetVector+0x34>)
    12d6:	b430      	push	{r4, r5}
    12d8:	689d      	ldr	r5, [r3, #8]
    12da:	689a      	ldr	r2, [r3, #8]
    12dc:	462b      	mov	r3, r5
    12de:	f1b2 5f80 	cmp.w	r2, #268435456	; 0x10000000
    12e2:	d20c      	bcs.n	12fe <NVIC_SetVector+0x2a>
    12e4:	4a09      	ldr	r2, [pc, #36]	; (130c <NVIC_SetVector+0x38>)
    12e6:	35c4      	adds	r5, #196	; 0xc4
    12e8:	f853 4b04 	ldr.w	r4, [r3], #4
    12ec:	42ab      	cmp	r3, r5
    12ee:	f842 4f04 	str.w	r4, [r2, #4]!
    12f2:	d1f9      	bne.n	12e8 <NVIC_SetVector+0x14>
    12f4:	f04f 5280 	mov.w	r2, #268435456	; 0x10000000
    12f8:	4613      	mov	r3, r2
    12fa:	4c03      	ldr	r4, [pc, #12]	; (1308 <NVIC_SetVector+0x34>)
    12fc:	60a2      	str	r2, [r4, #8]
    12fe:	3010      	adds	r0, #16
    1300:	f843 1020 	str.w	r1, [r3, r0, lsl #2]
    1304:	bc30      	pop	{r4, r5}
    1306:	4770      	bx	lr
    1308:	e000ed00 	.word	0xe000ed00
    130c:	0ffffffc 	.word	0x0ffffffc

00001310 <SystemInit>:
    1310:	4a2b      	ldr	r2, [pc, #172]	; (13c0 <SystemInit+0xb0>)
    1312:	2320      	movs	r3, #32
    1314:	b4f0      	push	{r4, r5, r6, r7}
    1316:	f8c2 31a0 	str.w	r3, [r2, #416]	; 0x1a0
    131a:	f8d2 31a0 	ldr.w	r3, [r2, #416]	; 0x1a0
    131e:	0698      	lsls	r0, r3, #26
    1320:	d445      	bmi.n	13ae <SystemInit+0x9e>
    1322:	4b27      	ldr	r3, [pc, #156]	; (13c0 <SystemInit+0xb0>)
    1324:	2500      	movs	r5, #0
    1326:	4619      	mov	r1, r3
    1328:	2401      	movs	r4, #1
    132a:	20aa      	movs	r0, #170	; 0xaa
    132c:	2255      	movs	r2, #85	; 0x55
    132e:	2702      	movs	r7, #2
    1330:	260b      	movs	r6, #11
    1332:	f8c3 7104 	str.w	r7, [r3, #260]	; 0x104
    1336:	f8c3 51a8 	str.w	r5, [r3, #424]	; 0x1a8
    133a:	f8c3 51ac 	str.w	r5, [r3, #428]	; 0x1ac
    133e:	f8c3 410c 	str.w	r4, [r3, #268]	; 0x10c
    1342:	f8c3 6084 	str.w	r6, [r3, #132]	; 0x84
    1346:	f8c3 008c 	str.w	r0, [r3, #140]	; 0x8c
    134a:	f8c3 208c 	str.w	r2, [r3, #140]	; 0x8c
    134e:	f8c3 4080 	str.w	r4, [r3, #128]	; 0x80
    1352:	f8c3 008c 	str.w	r0, [r3, #140]	; 0x8c
    1356:	f8c3 208c 	str.w	r2, [r3, #140]	; 0x8c
    135a:	f8d1 3088 	ldr.w	r3, [r1, #136]	; 0x88
    135e:	4a18      	ldr	r2, [pc, #96]	; (13c0 <SystemInit+0xb0>)
    1360:	015b      	lsls	r3, r3, #5
    1362:	d5fa      	bpl.n	135a <SystemInit+0x4a>
    1364:	4611      	mov	r1, r2
    1366:	2403      	movs	r4, #3
    1368:	20aa      	movs	r0, #170	; 0xaa
    136a:	2355      	movs	r3, #85	; 0x55
    136c:	f8c2 4080 	str.w	r4, [r2, #128]	; 0x80
    1370:	f8c2 008c 	str.w	r0, [r2, #140]	; 0x8c
    1374:	f8c2 308c 	str.w	r3, [r2, #140]	; 0x8c
    1378:	f8d1 3088 	ldr.w	r3, [r1, #136]	; 0x88
    137c:	4a10      	ldr	r2, [pc, #64]	; (13c0 <SystemInit+0xb0>)
    137e:	f013 7f40 	tst.w	r3, #50331648	; 0x3000000
    1382:	d0f9      	beq.n	1378 <SystemInit+0x68>
    1384:	490f      	ldr	r1, [pc, #60]	; (13c4 <SystemInit+0xb4>)
    1386:	2300      	movs	r3, #0
    1388:	2005      	movs	r0, #5
    138a:	f8c2 0108 	str.w	r0, [r2, #264]	; 0x108
    138e:	f8c2 10c4 	str.w	r1, [r2, #196]	; 0xc4
    1392:	f8c2 31c8 	str.w	r3, [r2, #456]	; 0x1c8
    1396:	6813      	ldr	r3, [r2, #0]
    1398:	bcf0      	pop	{r4, r5, r6, r7}
    139a:	f423 4370 	bic.w	r3, r3, #61440	; 0xf000
    139e:	f023 033a 	bic.w	r3, r3, #58	; 0x3a
    13a2:	f443 5340 	orr.w	r3, r3, #12288	; 0x3000
    13a6:	f043 033a 	orr.w	r3, r3, #58	; 0x3a
    13aa:	6013      	str	r3, [r2, #0]
    13ac:	4770      	bx	lr
    13ae:	f8d2 31a0 	ldr.w	r3, [r2, #416]	; 0x1a0
    13b2:	0659      	lsls	r1, r3, #25
    13b4:	d4b5      	bmi.n	1322 <SystemInit+0x12>
    13b6:	f8d2 31a0 	ldr.w	r3, [r2, #416]	; 0x1a0
    13ba:	0659      	lsls	r1, r3, #25
    13bc:	d5f7      	bpl.n	13ae <SystemInit+0x9e>
    13be:	e7b0      	b.n	1322 <SystemInit+0x12>
    13c0:	400fc000 	.word	0x400fc000
    13c4:	042887de 	.word	0x042887de

000013c8 <spi_init>:
    13c8:	e92d 4ff0 	stmdb	sp!, {r4, r5, r6, r7, r8, r9, r10, r11, lr}
    13cc:	460f      	mov	r7, r1
    13ce:	b083      	sub	sp, #12
    13d0:	4680      	mov	r8, r0
    13d2:	492b      	ldr	r1, [pc, #172]	; (1480 <spi_init+0xb8>)
    13d4:	4638      	mov	r0, r7
    13d6:	4616      	mov	r6, r2
    13d8:	461d      	mov	r5, r3
    13da:	9c0c      	ldr	r4, [sp, #48]	; 0x30
    13dc:	f7ff ff60 	bl	12a0 <pinmap_peripheral>
    13e0:	4928      	ldr	r1, [pc, #160]	; (1484 <spi_init+0xbc>)
    13e2:	4681      	mov	r9, r0
    13e4:	4630      	mov	r0, r6
    13e6:	f7ff ff5b 	bl	12a0 <pinmap_peripheral>
    13ea:	4927      	ldr	r1, [pc, #156]	; (1488 <spi_init+0xc0>)
    13ec:	9001      	str	r0, [sp, #4]
    13ee:	4628      	mov	r0, r5
    13f0:	f7ff ff56 	bl	12a0 <pinmap_peripheral>
    13f4:	4925      	ldr	r1, [pc, #148]	; (148c <spi_init+0xc4>)
    13f6:	4682      	mov	r10, r0
    13f8:	4620      	mov	r0, r4
    13fa:	f7ff ff51 	bl	12a0 <pinmap_peripheral>
    13fe:	9b01      	ldr	r3, [sp, #4]
    1400:	4683      	mov	r11, r0
    1402:	4619      	mov	r1, r3
    1404:	4648      	mov	r0, r9
    1406:	f7ff ff29 	bl	125c <pinmap_merge>
    140a:	4659      	mov	r1, r11
    140c:	4681      	mov	r9, r0
    140e:	4650      	mov	r0, r10
    1410:	f7ff ff24 	bl	125c <pinmap_merge>
    1414:	4601      	mov	r1, r0
    1416:	4648      	mov	r0, r9
    1418:	f7ff ff20 	bl	125c <pinmap_merge>
    141c:	4b1c      	ldr	r3, [pc, #112]	; (1490 <spi_init+0xc8>)
    141e:	f8c8 0000 	str.w	r0, [r8]
    1422:	4298      	cmp	r0, r3
    1424:	d023      	beq.n	146e <spi_init+0xa6>
    1426:	f503 23b0 	add.w	r3, r3, #360448	; 0x58000
    142a:	4298      	cmp	r0, r3
    142c:	d014      	beq.n	1458 <spi_init+0x90>
    142e:	4638      	mov	r0, r7
    1430:	4913      	ldr	r1, [pc, #76]	; (1480 <spi_init+0xb8>)
    1432:	f7ff feed 	bl	1210 <pinmap_pinout>
    1436:	4630      	mov	r0, r6
    1438:	4912      	ldr	r1, [pc, #72]	; (1484 <spi_init+0xbc>)
    143a:	f7ff fee9 	bl	1210 <pinmap_pinout>
    143e:	4628      	mov	r0, r5
    1440:	4911      	ldr	r1, [pc, #68]	; (1488 <spi_init+0xc0>)
    1442:	f7ff fee5 	bl	1210 <pinmap_pinout>
    1446:	1c63      	adds	r3, r4, #1
    1448:	d00e      	beq.n	1468 <spi_init+0xa0>
    144a:	4620      	mov	r0, r4
    144c:	490f      	ldr	r1, [pc, #60]	; (148c <spi_init+0xc4>)
    144e:	b003      	add	sp, #12
    1450:	e8bd 4ff0 	ldmia.w	sp!, {r4, r5, r6, r7, r8, r9, r10, r11, lr}
    1454:	f7ff bedc 	b.w	1210 <pinmap_pinout>
    1458:	4a0e      	ldr	r2, [pc, #56]	; (1494 <spi_init+0xcc>)
    145a:	f8d2 30c4 	ldr.w	r3, [r2, #196]	; 0xc4
    145e:	f443 1300 	orr.w	r3, r3, #2097152	; 0x200000
    1462:	f8c2 30c4 	str.w	r3, [r2, #196]	; 0xc4
    1466:	e7e2      	b.n	142e <spi_init+0x66>
    1468:	b003      	add	sp, #12
    146a:	e8bd 8ff0 	ldmia.w	sp!, {r4, r5, r6, r7, r8, r9, r10, r11, pc}
    146e:	4a09      	ldr	r2, [pc, #36]	; (1494 <spi_init+0xcc>)
    1470:	f8d2 30c4 	ldr.w	r3, [r2, #196]	; 0xc4
    1474:	f443 6380 	orr.w	r3, r3, #1024	; 0x400
    1478:	f8c2 30c4 	str.w	r3, [r2, #196]	; 0xc4
    147c:	e7d7      	b.n	142e <spi_init+0x66>
    147e:	bf00      	nop
    1480:	00008230 	.word	0x00008230
    1484:	00008190 	.word	0x00008190
    1488:	000081cc 	.word	0x000081cc
    148c:	0000826c 	.word	0x0000826c
    1490:	40030000 	.word	0x40030000
    1494:	400fc000 	.word	0x400fc000

00001498 <spi_format>:
    1498:	2b00      	cmp	r3, #0
    149a:	6803      	ldr	r3, [r0, #0]
    149c:	b430      	push	{r4, r5}
    149e:	685c      	ldr	r4, [r3, #4]
    14a0:	ea4f 10c2 	mov.w	r0, r2, lsl #7
    14a4:	f024 0402 	bic.w	r4, r4, #2
    14a8:	605c      	str	r4, [r3, #4]
    14aa:	681c      	ldr	r4, [r3, #0]
    14ac:	f000 0080 	and.w	r0, r0, #128	; 0x80
    14b0:	f101 31ff 	add.w	r1, r1, #4294967295
    14b4:	ea41 0100 	orr.w	r1, r1, r0
    14b8:	f3c2 0240 	ubfx	r2, r2, #1, #1
    14bc:	ea4f 4014 	mov.w	r0, r4, lsr #16
    14c0:	ea41 1182 	orr.w	r1, r1, r2, lsl #6
    14c4:	ea4f 4000 	mov.w	r0, r0, lsl #16
    14c8:	ea40 0001 	orr.w	r0, r0, r1
    14cc:	6018      	str	r0, [r3, #0]
    14ce:	685a      	ldr	r2, [r3, #4]
    14d0:	bf14      	ite	ne
    14d2:	2504      	movne	r5, #4
    14d4:	2500      	moveq	r5, #0
    14d6:	f022 020d 	bic.w	r2, r2, #13
    14da:	432a      	orrs	r2, r5
    14dc:	605a      	str	r2, [r3, #4]
    14de:	685a      	ldr	r2, [r3, #4]
    14e0:	bc30      	pop	{r4, r5}
    14e2:	f042 0202 	orr.w	r2, r2, #2
    14e6:	605a      	str	r2, [r3, #4]
    14e8:	4770      	bx	lr
    14ea:	bf00      	nop

000014ec <spi_frequency>:
    14ec:	b5f8      	push	{r3, r4, r5, r6, r7, lr}
    14ee:	6807      	ldr	r7, [r0, #0]
    14f0:	4a2d      	ldr	r2, [pc, #180]	; (15a8 <spi_frequency+0xbc>)
    14f2:	687b      	ldr	r3, [r7, #4]
    14f4:	4297      	cmp	r7, r2
    14f6:	f023 0302 	bic.w	r3, r3, #2
    14fa:	607b      	str	r3, [r7, #4]
    14fc:	d041      	beq.n	1582 <spi_frequency+0x96>
    14fe:	4b2b      	ldr	r3, [pc, #172]	; (15ac <spi_frequency+0xc0>)
    1500:	429f      	cmp	r7, r3
    1502:	d02f      	beq.n	1564 <spi_frequency+0x78>
    1504:	4b2a      	ldr	r3, [pc, #168]	; (15b0 <spi_frequency+0xc4>)
    1506:	4608      	mov	r0, r1
    1508:	681e      	ldr	r6, [r3, #0]
    150a:	f002 fba7 	bl	3c5c <__aeabi_i2f>
    150e:	2402      	movs	r4, #2
    1510:	4605      	mov	r5, r0
    1512:	e003      	b.n	151c <spi_frequency+0x30>
    1514:	3402      	adds	r4, #2
    1516:	f5b4 7f80 	cmp.w	r4, #256	; 0x100
    151a:	d040      	beq.n	159e <spi_frequency+0xb2>
    151c:	fbb6 f0f4 	udiv	r0, r6, r4
    1520:	f002 fb9c 	bl	3c5c <__aeabi_i2f>
    1524:	4629      	mov	r1, r5
    1526:	f002 fca1 	bl	3e6c <__aeabi_fdiv>
    152a:	f04f 517c 	mov.w	r1, #1056964608	; 0x3f000000
    152e:	f002 fae1 	bl	3af4 <__addsf3>
    1532:	f001 fffb 	bl	352c <__aeabi_f2d>
    1536:	f006 fa9b 	bl	7a70 <floor>
    153a:	f002 fa5d 	bl	39f8 <__aeabi_d2iz>
    153e:	28ff      	cmp	r0, #255	; 0xff
    1540:	dce8      	bgt.n	1514 <spi_frequency+0x28>
    1542:	613c      	str	r4, [r7, #16]
    1544:	683b      	ldr	r3, [r7, #0]
    1546:	3801      	subs	r0, #1
    1548:	f423 037f 	bic.w	r3, r3, #16711680	; 0xff0000
    154c:	f423 437f 	bic.w	r3, r3, #65280	; 0xff00
    1550:	603b      	str	r3, [r7, #0]
    1552:	683b      	ldr	r3, [r7, #0]
    1554:	ea43 2000 	orr.w	r0, r3, r0, lsl #8
    1558:	6038      	str	r0, [r7, #0]
    155a:	687b      	ldr	r3, [r7, #4]
    155c:	f043 0302 	orr.w	r3, r3, #2
    1560:	607b      	str	r3, [r7, #4]
    1562:	bdf8      	pop	{r3, r4, r5, r6, r7, pc}
    1564:	f503 23e8 	add.w	r3, r3, #475136	; 0x74000
    1568:	f8d3 21ac 	ldr.w	r2, [r3, #428]	; 0x1ac
    156c:	f422 6240 	bic.w	r2, r2, #3072	; 0xc00
    1570:	f8c3 21ac 	str.w	r2, [r3, #428]	; 0x1ac
    1574:	f8d3 21ac 	ldr.w	r2, [r3, #428]	; 0x1ac
    1578:	f442 6280 	orr.w	r2, r2, #1024	; 0x400
    157c:	f8c3 21ac 	str.w	r2, [r3, #428]	; 0x1ac
    1580:	e7c0      	b.n	1504 <spi_frequency+0x18>
    1582:	4b0c      	ldr	r3, [pc, #48]	; (15b4 <spi_frequency+0xc8>)
    1584:	f8d3 21a8 	ldr.w	r2, [r3, #424]	; 0x1a8
    1588:	f422 1240 	bic.w	r2, r2, #3145728	; 0x300000
    158c:	f8c3 21a8 	str.w	r2, [r3, #424]	; 0x1a8
    1590:	f8d3 21a8 	ldr.w	r2, [r3, #424]	; 0x1a8
    1594:	f442 1280 	orr.w	r2, r2, #1048576	; 0x100000
    1598:	f8c3 21a8 	str.w	r2, [r3, #424]	; 0x1a8
    159c:	e7b2      	b.n	1504 <spi_frequency+0x18>
    159e:	4806      	ldr	r0, [pc, #24]	; (15b8 <spi_frequency+0xcc>)
    15a0:	e8bd 40f8 	ldmia.w	sp!, {r3, r4, r5, r6, r7, lr}
    15a4:	f7ff bd6e 	b.w	1084 <error>
    15a8:	40030000 	.word	0x40030000
    15ac:	40088000 	.word	0x40088000
    15b0:	100000cc 	.word	0x100000cc
    15b4:	400fc000 	.word	0x400fc000
    15b8:	00008208 	.word	0x00008208

000015bc <spi_master_write>:
    15bc:	6803      	ldr	r3, [r0, #0]
    15be:	68da      	ldr	r2, [r3, #12]
    15c0:	0790      	lsls	r0, r2, #30
    15c2:	d5fc      	bpl.n	15be <spi_master_write+0x2>
    15c4:	6099      	str	r1, [r3, #8]
    15c6:	68da      	ldr	r2, [r3, #12]
    15c8:	0752      	lsls	r2, r2, #29
    15ca:	d5fc      	bpl.n	15c6 <spi_master_write+0xa>
    15cc:	6898      	ldr	r0, [r3, #8]
    15ce:	4770      	bx	lr

000015d0 <handle_interrupt_in>:
    15d0:	e92d 4ff0 	stmdb	sp!, {r4, r5, r6, r7, r8, r9, r10, r11, lr}
    15d4:	4b43      	ldr	r3, [pc, #268]	; (16e4 <handle_interrupt_in+0x114>)
    15d6:	b083      	sub	sp, #12
    15d8:	685c      	ldr	r4, [r3, #4]
    15da:	689f      	ldr	r7, [r3, #8]
    15dc:	6a5e      	ldr	r6, [r3, #36]	; 0x24
    15de:	6a9d      	ldr	r5, [r3, #40]	; 0x28
    15e0:	b314      	cbz	r4, 1628 <handle_interrupt_in+0x58>
    15e2:	4699      	mov	r9, r3
    15e4:	f8df 8100 	ldr.w	r8, [pc, #256]	; 16e8 <handle_interrupt_in+0x118>
    15e8:	f8df b100 	ldr.w	r11, [pc, #256]	; 16ec <handle_interrupt_in+0x11c>
    15ec:	f04f 0a01 	mov.w	r10, #1
    15f0:	e005      	b.n	15fe <handle_interrupt_in+0x2e>
    15f2:	fa0a f303 	lsl.w	r3, r10, r3
    15f6:	1ae4      	subs	r4, r4, r3
    15f8:	f8c9 300c 	str.w	r3, [r9, #12]
    15fc:	d014      	beq.n	1628 <handle_interrupt_in+0x58>
    15fe:	fab4 f384 	clz	r3, r4
    1602:	f1c3 031f 	rsb	r3, r3, #31
    1606:	b2db      	uxtb	r3, r3
    1608:	f858 0023 	ldr.w	r0, [r8, r3, lsl #2]
    160c:	2800      	cmp	r0, #0
    160e:	d0f0      	beq.n	15f2 <handle_interrupt_in+0x22>
    1610:	f8db 2000 	ldr.w	r2, [r11]
    1614:	2101      	movs	r1, #1
    1616:	9301      	str	r3, [sp, #4]
    1618:	4790      	blx	r2
    161a:	9b01      	ldr	r3, [sp, #4]
    161c:	fa0a f303 	lsl.w	r3, r10, r3
    1620:	1ae4      	subs	r4, r4, r3
    1622:	f8c9 300c 	str.w	r3, [r9, #12]
    1626:	d1ea      	bne.n	15fe <handle_interrupt_in+0x2e>
    1628:	b1df      	cbz	r7, 1662 <handle_interrupt_in+0x92>
    162a:	f8df 80bc 	ldr.w	r8, [pc, #188]	; 16e8 <handle_interrupt_in+0x118>
    162e:	f8df a0bc 	ldr.w	r10, [pc, #188]	; 16ec <handle_interrupt_in+0x11c>
    1632:	f8df 90b0 	ldr.w	r9, [pc, #176]	; 16e4 <handle_interrupt_in+0x114>
    1636:	e006      	b.n	1646 <handle_interrupt_in+0x76>
    1638:	2301      	movs	r3, #1
    163a:	fa03 f404 	lsl.w	r4, r3, r4
    163e:	1b3f      	subs	r7, r7, r4
    1640:	f8c9 400c 	str.w	r4, [r9, #12]
    1644:	d00d      	beq.n	1662 <handle_interrupt_in+0x92>
    1646:	fab7 f487 	clz	r4, r7
    164a:	f1c4 041f 	rsb	r4, r4, #31
    164e:	b2e4      	uxtb	r4, r4
    1650:	f858 0024 	ldr.w	r0, [r8, r4, lsl #2]
    1654:	2800      	cmp	r0, #0
    1656:	d0ef      	beq.n	1638 <handle_interrupt_in+0x68>
    1658:	f8da 3000 	ldr.w	r3, [r10]
    165c:	2102      	movs	r1, #2
    165e:	4798      	blx	r3
    1660:	e7ea      	b.n	1638 <handle_interrupt_in+0x68>
    1662:	b1ee      	cbz	r6, 16a0 <handle_interrupt_in+0xd0>
    1664:	f8df 8080 	ldr.w	r8, [pc, #128]	; 16e8 <handle_interrupt_in+0x118>
    1668:	f8df 9080 	ldr.w	r9, [pc, #128]	; 16ec <handle_interrupt_in+0x11c>
    166c:	4f1d      	ldr	r7, [pc, #116]	; (16e4 <handle_interrupt_in+0x114>)
    166e:	e005      	b.n	167c <handle_interrupt_in+0xac>
    1670:	2301      	movs	r3, #1
    1672:	fa03 f404 	lsl.w	r4, r3, r4
    1676:	1b36      	subs	r6, r6, r4
    1678:	62fc      	str	r4, [r7, #44]	; 0x2c
    167a:	d011      	beq.n	16a0 <handle_interrupt_in+0xd0>
    167c:	fab6 f486 	clz	r4, r6
    1680:	f1c4 041f 	rsb	r4, r4, #31
    1684:	b2e4      	uxtb	r4, r4
    1686:	2c0f      	cmp	r4, #15
    1688:	f104 0320 	add.w	r3, r4, #32
    168c:	d8f0      	bhi.n	1670 <handle_interrupt_in+0xa0>
    168e:	f858 0023 	ldr.w	r0, [r8, r3, lsl #2]
    1692:	2800      	cmp	r0, #0
    1694:	d0ec      	beq.n	1670 <handle_interrupt_in+0xa0>
    1696:	f8d9 3000 	ldr.w	r3, [r9]
    169a:	2101      	movs	r1, #1
    169c:	4798      	blx	r3
    169e:	e7e7      	b.n	1670 <handle_interrupt_in+0xa0>
    16a0:	b1e5      	cbz	r5, 16dc <handle_interrupt_in+0x10c>
    16a2:	4f11      	ldr	r7, [pc, #68]	; (16e8 <handle_interrupt_in+0x118>)
    16a4:	f8df 8044 	ldr.w	r8, [pc, #68]	; 16ec <handle_interrupt_in+0x11c>
    16a8:	4e0e      	ldr	r6, [pc, #56]	; (16e4 <handle_interrupt_in+0x114>)
    16aa:	e005      	b.n	16b8 <handle_interrupt_in+0xe8>
    16ac:	2301      	movs	r3, #1
    16ae:	fa03 f404 	lsl.w	r4, r3, r4
    16b2:	1b2d      	subs	r5, r5, r4
    16b4:	62f4      	str	r4, [r6, #44]	; 0x2c
    16b6:	d011      	beq.n	16dc <handle_interrupt_in+0x10c>
    16b8:	fab5 f485 	clz	r4, r5
    16bc:	f1c4 041f 	rsb	r4, r4, #31
    16c0:	b2e4      	uxtb	r4, r4
    16c2:	2c0f      	cmp	r4, #15
    16c4:	f104 0320 	add.w	r3, r4, #32
    16c8:	d8f0      	bhi.n	16ac <handle_interrupt_in+0xdc>
    16ca:	f857 0023 	ldr.w	r0, [r7, r3, lsl #2]
    16ce:	2800      	cmp	r0, #0
    16d0:	d0ec      	beq.n	16ac <handle_interrupt_in+0xdc>
    16d2:	f8d8 3000 	ldr.w	r3, [r8]
    16d6:	2102      	movs	r1, #2
    16d8:	4798      	blx	r3
    16da:	e7e7      	b.n	16ac <handle_interrupt_in+0xdc>
    16dc:	b003      	add	sp, #12
    16de:	e8bd 8ff0 	ldmia.w	sp!, {r4, r5, r6, r7, r8, r9, r10, r11, pc}
    16e2:	bf00      	nop
    16e4:	40028080 	.word	0x40028080
    16e8:	1000050c 	.word	0x1000050c
    16ec:	10000508 	.word	0x10000508

000016f0 <gpio_irq_init>:
    16f0:	f1b1 3fff 	cmp.w	r1, #4294967295
    16f4:	d029      	beq.n	174a <gpio_irq_init+0x5a>
    16f6:	b570      	push	{r4, r5, r6, lr}
    16f8:	4604      	mov	r4, r0
    16fa:	4e15      	ldr	r6, [pc, #84]	; (1750 <gpio_irq_init+0x60>)
    16fc:	461d      	mov	r5, r3
    16fe:	4815      	ldr	r0, [pc, #84]	; (1754 <gpio_irq_init+0x64>)
    1700:	f021 031f 	bic.w	r3, r1, #31
    1704:	42b3      	cmp	r3, r6
    1706:	f001 011f 	and.w	r1, r1, #31
    170a:	6002      	str	r2, [r0, #0]
    170c:	6023      	str	r3, [r4, #0]
    170e:	6061      	str	r1, [r4, #4]
    1710:	d019      	beq.n	1746 <gpio_irq_init+0x56>
    1712:	4a11      	ldr	r2, [pc, #68]	; (1758 <gpio_irq_init+0x68>)
    1714:	4293      	cmp	r3, r2
    1716:	d006      	beq.n	1726 <gpio_irq_init+0x36>
    1718:	4810      	ldr	r0, [pc, #64]	; (175c <gpio_irq_init+0x6c>)
    171a:	f7ff fcb3 	bl	1084 <error>
    171e:	6823      	ldr	r3, [r4, #0]
    1720:	6861      	ldr	r1, [r4, #4]
    1722:	42b3      	cmp	r3, r6
    1724:	d00f      	beq.n	1746 <gpio_irq_init+0x56>
    1726:	f101 0220 	add.w	r2, r1, #32
    172a:	4b0d      	ldr	r3, [pc, #52]	; (1760 <gpio_irq_init+0x70>)
    172c:	60a2      	str	r2, [r4, #8]
    172e:	490d      	ldr	r1, [pc, #52]	; (1764 <gpio_irq_init+0x74>)
    1730:	2015      	movs	r0, #21
    1732:	f843 5022 	str.w	r5, [r3, r2, lsl #2]
    1736:	f7ff fdcd 	bl	12d4 <NVIC_SetVector>
    173a:	4b0b      	ldr	r3, [pc, #44]	; (1768 <gpio_irq_init+0x78>)
    173c:	f44f 1200 	mov.w	r2, #2097152	; 0x200000
    1740:	601a      	str	r2, [r3, #0]
    1742:	2000      	movs	r0, #0
    1744:	bd70      	pop	{r4, r5, r6, pc}
    1746:	460a      	mov	r2, r1
    1748:	e7ef      	b.n	172a <gpio_irq_init+0x3a>
    174a:	4608      	mov	r0, r1
    174c:	4770      	bx	lr
    174e:	bf00      	nop
    1750:	2009c000 	.word	0x2009c000
    1754:	10000508 	.word	0x10000508
    1758:	2009c040 	.word	0x2009c040
    175c:	000082a8 	.word	0x000082a8
    1760:	1000050c 	.word	0x1000050c
    1764:	000015d1 	.word	0x000015d1
    1768:	e000e100 	.word	0xe000e100

0000176c <gpio_irq_free>:
    176c:	6882      	ldr	r2, [r0, #8]
    176e:	4b02      	ldr	r3, [pc, #8]	; (1778 <gpio_irq_free+0xc>)
    1770:	2100      	movs	r1, #0
    1772:	f843 1022 	str.w	r1, [r3, r2, lsl #2]
    1776:	4770      	bx	lr
    1778:	1000050c 	.word	0x1000050c

0000177c <gpio_irq_set>:
    177c:	b430      	push	{r4, r5}
    177e:	6803      	ldr	r3, [r0, #0]
    1780:	4c2e      	ldr	r4, [pc, #184]	; (183c <gpio_irq_set+0xc0>)
    1782:	42a3      	cmp	r3, r4
    1784:	d01c      	beq.n	17c0 <gpio_irq_set+0x44>
    1786:	4d2e      	ldr	r5, [pc, #184]	; (1840 <gpio_irq_set+0xc4>)
    1788:	42ab      	cmp	r3, r5
    178a:	d007      	beq.n	179c <gpio_irq_set+0x20>
    178c:	2901      	cmp	r1, #1
    178e:	d034      	beq.n	17fa <gpio_irq_set+0x7e>
    1790:	42a3      	cmp	r3, r4
    1792:	d01c      	beq.n	17ce <gpio_irq_set+0x52>
    1794:	42ab      	cmp	r3, r5
    1796:	d008      	beq.n	17aa <gpio_irq_set+0x2e>
    1798:	bc30      	pop	{r4, r5}
    179a:	4770      	bx	lr
    179c:	6845      	ldr	r5, [r0, #4]
    179e:	2301      	movs	r3, #1
    17a0:	4c28      	ldr	r4, [pc, #160]	; (1844 <gpio_irq_set+0xc8>)
    17a2:	40ab      	lsls	r3, r5
    17a4:	2901      	cmp	r1, #1
    17a6:	62e3      	str	r3, [r4, #44]	; 0x2c
    17a8:	d02e      	beq.n	1808 <gpio_irq_set+0x8c>
    17aa:	4926      	ldr	r1, [pc, #152]	; (1844 <gpio_irq_set+0xc8>)
    17ac:	6840      	ldr	r0, [r0, #4]
    17ae:	2301      	movs	r3, #1
    17b0:	b9f2      	cbnz	r2, 17f0 <gpio_irq_set+0x74>
    17b2:	bc30      	pop	{r4, r5}
    17b4:	6b4a      	ldr	r2, [r1, #52]	; 0x34
    17b6:	4083      	lsls	r3, r0
    17b8:	ea22 0303 	bic.w	r3, r2, r3
    17bc:	634b      	str	r3, [r1, #52]	; 0x34
    17be:	4770      	bx	lr
    17c0:	6845      	ldr	r5, [r0, #4]
    17c2:	2301      	movs	r3, #1
    17c4:	4c1f      	ldr	r4, [pc, #124]	; (1844 <gpio_irq_set+0xc8>)
    17c6:	40ab      	lsls	r3, r5
    17c8:	2901      	cmp	r1, #1
    17ca:	60e3      	str	r3, [r4, #12]
    17cc:	d025      	beq.n	181a <gpio_irq_set+0x9e>
    17ce:	491d      	ldr	r1, [pc, #116]	; (1844 <gpio_irq_set+0xc8>)
    17d0:	6840      	ldr	r0, [r0, #4]
    17d2:	2301      	movs	r3, #1
    17d4:	b12a      	cbz	r2, 17e2 <gpio_irq_set+0x66>
    17d6:	bc30      	pop	{r4, r5}
    17d8:	694a      	ldr	r2, [r1, #20]
    17da:	4083      	lsls	r3, r0
    17dc:	4313      	orrs	r3, r2
    17de:	614b      	str	r3, [r1, #20]
    17e0:	4770      	bx	lr
    17e2:	694a      	ldr	r2, [r1, #20]
    17e4:	4083      	lsls	r3, r0
    17e6:	ea22 0303 	bic.w	r3, r2, r3
    17ea:	614b      	str	r3, [r1, #20]
    17ec:	bc30      	pop	{r4, r5}
    17ee:	4770      	bx	lr
    17f0:	6b4a      	ldr	r2, [r1, #52]	; 0x34
    17f2:	4083      	lsls	r3, r0
    17f4:	4313      	orrs	r3, r2
    17f6:	634b      	str	r3, [r1, #52]	; 0x34
    17f8:	e7ce      	b.n	1798 <gpio_irq_set+0x1c>
    17fa:	42a3      	cmp	r3, r4
    17fc:	d00a      	beq.n	1814 <gpio_irq_set+0x98>
    17fe:	42ab      	cmp	r3, r5
    1800:	d1ca      	bne.n	1798 <gpio_irq_set+0x1c>
    1802:	6843      	ldr	r3, [r0, #4]
    1804:	fa01 f303 	lsl.w	r3, r1, r3
    1808:	490e      	ldr	r1, [pc, #56]	; (1844 <gpio_irq_set+0xc8>)
    180a:	b18a      	cbz	r2, 1830 <gpio_irq_set+0xb4>
    180c:	6b0a      	ldr	r2, [r1, #48]	; 0x30
    180e:	4313      	orrs	r3, r2
    1810:	630b      	str	r3, [r1, #48]	; 0x30
    1812:	e7c1      	b.n	1798 <gpio_irq_set+0x1c>
    1814:	6843      	ldr	r3, [r0, #4]
    1816:	fa01 f303 	lsl.w	r3, r1, r3
    181a:	490a      	ldr	r1, [pc, #40]	; (1844 <gpio_irq_set+0xc8>)
    181c:	b11a      	cbz	r2, 1826 <gpio_irq_set+0xaa>
    181e:	690a      	ldr	r2, [r1, #16]
    1820:	4313      	orrs	r3, r2
    1822:	610b      	str	r3, [r1, #16]
    1824:	e7b8      	b.n	1798 <gpio_irq_set+0x1c>
    1826:	690a      	ldr	r2, [r1, #16]
    1828:	ea22 0303 	bic.w	r3, r2, r3
    182c:	610b      	str	r3, [r1, #16]
    182e:	e7b3      	b.n	1798 <gpio_irq_set+0x1c>
    1830:	6b0a      	ldr	r2, [r1, #48]	; 0x30
    1832:	ea22 0303 	bic.w	r3, r2, r3
    1836:	630b      	str	r3, [r1, #48]	; 0x30
    1838:	e7ae      	b.n	1798 <gpio_irq_set+0x1c>
    183a:	bf00      	nop
    183c:	2009c000 	.word	0x2009c000
    1840:	2009c040 	.word	0x2009c040
    1844:	40028080 	.word	0x40028080

00001848 <gpio_init>:
    1848:	1c4a      	adds	r2, r1, #1
    184a:	6001      	str	r1, [r0, #0]
    184c:	d018      	beq.n	1880 <gpio_init+0x38>
    184e:	b538      	push	{r3, r4, r5, lr}
    1850:	460c      	mov	r4, r1
    1852:	4605      	mov	r5, r0
    1854:	2100      	movs	r1, #0
    1856:	4620      	mov	r0, r4
    1858:	f000 fa08 	bl	1c6c <pin_function>
    185c:	f024 011f 	bic.w	r1, r4, #31
    1860:	f004 021f 	and.w	r2, r4, #31
    1864:	2301      	movs	r3, #1
    1866:	4093      	lsls	r3, r2
    1868:	f101 0418 	add.w	r4, r1, #24
    186c:	f101 001c 	add.w	r0, r1, #28
    1870:	f101 0214 	add.w	r2, r1, #20
    1874:	60a9      	str	r1, [r5, #8]
    1876:	606b      	str	r3, [r5, #4]
    1878:	60ec      	str	r4, [r5, #12]
    187a:	6128      	str	r0, [r5, #16]
    187c:	616a      	str	r2, [r5, #20]
    187e:	bd38      	pop	{r3, r4, r5, pc}
    1880:	4770      	bx	lr
    1882:	bf00      	nop

00001884 <gpio_mode>:
    1884:	6800      	ldr	r0, [r0, #0]
    1886:	f000 ba0d 	b.w	1ca4 <pin_mode>
    188a:	bf00      	nop

0000188c <gpio_dir>:
    188c:	b141      	cbz	r1, 18a0 <gpio_dir+0x14>
    188e:	2901      	cmp	r1, #1
    1890:	d105      	bne.n	189e <gpio_dir+0x12>
    1892:	6882      	ldr	r2, [r0, #8]
    1894:	6843      	ldr	r3, [r0, #4]
    1896:	6811      	ldr	r1, [r2, #0]
    1898:	430b      	orrs	r3, r1
    189a:	6013      	str	r3, [r2, #0]
    189c:	4770      	bx	lr
    189e:	4770      	bx	lr
    18a0:	6882      	ldr	r2, [r0, #8]
    18a2:	6841      	ldr	r1, [r0, #4]
    18a4:	6813      	ldr	r3, [r2, #0]
    18a6:	ea23 0301 	bic.w	r3, r3, r1
    18aa:	6013      	str	r3, [r2, #0]
    18ac:	4770      	bx	lr
    18ae:	bf00      	nop

000018b0 <us_ticker_init.part.0>:
    18b0:	b538      	push	{r3, r4, r5, lr}
    18b2:	4910      	ldr	r1, [pc, #64]	; (18f4 <us_ticker_init.part.0+0x44>)
    18b4:	4b10      	ldr	r3, [pc, #64]	; (18f8 <us_ticker_init.part.0+0x48>)
    18b6:	2401      	movs	r4, #1
    18b8:	601c      	str	r4, [r3, #0]
    18ba:	f8d1 30c4 	ldr.w	r3, [r1, #196]	; 0xc4
    18be:	4a0f      	ldr	r2, [pc, #60]	; (18fc <us_ticker_init.part.0+0x4c>)
    18c0:	f443 0300 	orr.w	r3, r3, #8388608	; 0x800000
    18c4:	480e      	ldr	r0, [pc, #56]	; (1900 <us_ticker_init.part.0+0x50>)
    18c6:	2500      	movs	r5, #0
    18c8:	f8c1 30c4 	str.w	r3, [r1, #196]	; 0xc4
    18cc:	6715      	str	r5, [r2, #112]	; 0x70
    18ce:	6803      	ldr	r3, [r0, #0]
    18d0:	480c      	ldr	r0, [pc, #48]	; (1904 <us_ticker_init.part.0+0x54>)
    18d2:	2102      	movs	r1, #2
    18d4:	fba0 0303 	umull	r0, r3, r0, r3
    18d8:	0d1b      	lsrs	r3, r3, #20
    18da:	3b01      	subs	r3, #1
    18dc:	6051      	str	r1, [r2, #4]
    18de:	2004      	movs	r0, #4
    18e0:	60d3      	str	r3, [r2, #12]
    18e2:	4909      	ldr	r1, [pc, #36]	; (1908 <us_ticker_init.part.0+0x58>)
    18e4:	6054      	str	r4, [r2, #4]
    18e6:	f7ff fcf5 	bl	12d4 <NVIC_SetVector>
    18ea:	4b08      	ldr	r3, [pc, #32]	; (190c <us_ticker_init.part.0+0x5c>)
    18ec:	2210      	movs	r2, #16
    18ee:	601a      	str	r2, [r3, #0]
    18f0:	bd38      	pop	{r3, r4, r5, pc}
    18f2:	bf00      	nop
    18f4:	400fc000 	.word	0x400fc000
    18f8:	100005cc 	.word	0x100005cc
    18fc:	40094000 	.word	0x40094000
    1900:	100000cc 	.word	0x100000cc
    1904:	431bde83 	.word	0x431bde83
    1908:	000010b1 	.word	0x000010b1
    190c:	e000e100 	.word	0xe000e100

00001910 <us_ticker_init>:
    1910:	4b02      	ldr	r3, [pc, #8]	; (191c <us_ticker_init+0xc>)
    1912:	681b      	ldr	r3, [r3, #0]
    1914:	b103      	cbz	r3, 1918 <us_ticker_init+0x8>
    1916:	4770      	bx	lr
    1918:	f7ff bfca 	b.w	18b0 <us_ticker_init.part.0>
    191c:	100005cc 	.word	0x100005cc

00001920 <us_ticker_read>:
    1920:	b508      	push	{r3, lr}
    1922:	4b04      	ldr	r3, [pc, #16]	; (1934 <us_ticker_read+0x14>)
    1924:	681b      	ldr	r3, [r3, #0]
    1926:	b90b      	cbnz	r3, 192c <us_ticker_read+0xc>
    1928:	f7ff ffc2 	bl	18b0 <us_ticker_init.part.0>
    192c:	4b02      	ldr	r3, [pc, #8]	; (1938 <us_ticker_read+0x18>)
    192e:	6898      	ldr	r0, [r3, #8]
    1930:	bd08      	pop	{r3, pc}
    1932:	bf00      	nop
    1934:	100005cc 	.word	0x100005cc
    1938:	40094000 	.word	0x40094000

0000193c <us_ticker_set_interrupt>:
    193c:	4b03      	ldr	r3, [pc, #12]	; (194c <us_ticker_set_interrupt+0x10>)
    193e:	6198      	str	r0, [r3, #24]
    1940:	695a      	ldr	r2, [r3, #20]
    1942:	f042 0201 	orr.w	r2, r2, #1
    1946:	615a      	str	r2, [r3, #20]
    1948:	4770      	bx	lr
    194a:	bf00      	nop
    194c:	40094000 	.word	0x40094000

00001950 <us_ticker_disable_interrupt>:
    1950:	4a02      	ldr	r2, [pc, #8]	; (195c <us_ticker_disable_interrupt+0xc>)
    1952:	6953      	ldr	r3, [r2, #20]
    1954:	f023 0301 	bic.w	r3, r3, #1
    1958:	6153      	str	r3, [r2, #20]
    195a:	4770      	bx	lr
    195c:	40094000 	.word	0x40094000

00001960 <us_ticker_clear_interrupt>:
    1960:	4b01      	ldr	r3, [pc, #4]	; (1968 <us_ticker_clear_interrupt+0x8>)
    1962:	2201      	movs	r2, #1
    1964:	601a      	str	r2, [r3, #0]
    1966:	4770      	bx	lr
    1968:	40094000 	.word	0x40094000

0000196c <i2c_init>:
    196c:	b5f8      	push	{r3, r4, r5, r6, r7, lr}
    196e:	460d      	mov	r5, r1
    1970:	4606      	mov	r6, r0
    1972:	4925      	ldr	r1, [pc, #148]	; (1a08 <i2c_init+0x9c>)
    1974:	4628      	mov	r0, r5
    1976:	4614      	mov	r4, r2
    1978:	f7ff fc92 	bl	12a0 <pinmap_peripheral>
    197c:	4923      	ldr	r1, [pc, #140]	; (1a0c <i2c_init+0xa0>)
    197e:	4607      	mov	r7, r0
    1980:	4620      	mov	r0, r4
    1982:	f7ff fc8d 	bl	12a0 <pinmap_peripheral>
    1986:	4601      	mov	r1, r0
    1988:	4638      	mov	r0, r7
    198a:	f7ff fc67 	bl	125c <pinmap_merge>
    198e:	4b20      	ldr	r3, [pc, #128]	; (1a10 <i2c_init+0xa4>)
    1990:	4602      	mov	r2, r0
    1992:	4298      	cmp	r0, r3
    1994:	6030      	str	r0, [r6, #0]
    1996:	d02e      	beq.n	19f6 <i2c_init+0x8a>
    1998:	f503 2388 	add.w	r3, r3, #278528	; 0x44000
    199c:	4298      	cmp	r0, r3
    199e:	d022      	beq.n	19e6 <i2c_init+0x7a>
    19a0:	f5a3 2304 	sub.w	r3, r3, #540672	; 0x84000
    19a4:	4298      	cmp	r0, r3
    19a6:	d016      	beq.n	19d6 <i2c_init+0x6a>
    19a8:	4b1a      	ldr	r3, [pc, #104]	; (1a14 <i2c_init+0xa8>)
    19aa:	491b      	ldr	r1, [pc, #108]	; (1a18 <i2c_init+0xac>)
    19ac:	681b      	ldr	r3, [r3, #0]
    19ae:	273c      	movs	r7, #60	; 0x3c
    19b0:	0a1b      	lsrs	r3, r3, #8
    19b2:	fba1 1303 	umull	r1, r3, r1, r3
    19b6:	2640      	movs	r6, #64	; 0x40
    19b8:	091b      	lsrs	r3, r3, #4
    19ba:	6153      	str	r3, [r2, #20]
    19bc:	4628      	mov	r0, r5
    19be:	6113      	str	r3, [r2, #16]
    19c0:	4911      	ldr	r1, [pc, #68]	; (1a08 <i2c_init+0x9c>)
    19c2:	6197      	str	r7, [r2, #24]
    19c4:	6016      	str	r6, [r2, #0]
    19c6:	f7ff fc23 	bl	1210 <pinmap_pinout>
    19ca:	4620      	mov	r0, r4
    19cc:	e8bd 40f8 	ldmia.w	sp!, {r3, r4, r5, r6, r7, lr}
    19d0:	490e      	ldr	r1, [pc, #56]	; (1a0c <i2c_init+0xa0>)
    19d2:	f7ff bc1d 	b.w	1210 <pinmap_pinout>
    19d6:	4911      	ldr	r1, [pc, #68]	; (1a1c <i2c_init+0xb0>)
    19d8:	f8d1 30c4 	ldr.w	r3, [r1, #196]	; 0xc4
    19dc:	f043 0380 	orr.w	r3, r3, #128	; 0x80
    19e0:	f8c1 30c4 	str.w	r3, [r1, #196]	; 0xc4
    19e4:	e7e0      	b.n	19a8 <i2c_init+0x3c>
    19e6:	490d      	ldr	r1, [pc, #52]	; (1a1c <i2c_init+0xb0>)
    19e8:	f8d1 30c4 	ldr.w	r3, [r1, #196]	; 0xc4
    19ec:	f043 6380 	orr.w	r3, r3, #67108864	; 0x4000000
    19f0:	f8c1 30c4 	str.w	r3, [r1, #196]	; 0xc4
    19f4:	e7d8      	b.n	19a8 <i2c_init+0x3c>
    19f6:	4909      	ldr	r1, [pc, #36]	; (1a1c <i2c_init+0xb0>)
    19f8:	f8d1 30c4 	ldr.w	r3, [r1, #196]	; 0xc4
    19fc:	f443 2300 	orr.w	r3, r3, #524288	; 0x80000
    1a00:	f8c1 30c4 	str.w	r3, [r1, #196]	; 0xc4
    1a04:	e7d0      	b.n	19a8 <i2c_init+0x3c>
    1a06:	bf00      	nop
    1a08:	000082d8 	.word	0x000082d8
    1a0c:	00008314 	.word	0x00008314
    1a10:	4005c000 	.word	0x4005c000
    1a14:	100000cc 	.word	0x100000cc
    1a18:	014f8b59 	.word	0x014f8b59
    1a1c:	400fc000 	.word	0x400fc000

00001a20 <i2c_frequency>:
    1a20:	4b04      	ldr	r3, [pc, #16]	; (1a34 <i2c_frequency+0x14>)
    1a22:	0049      	lsls	r1, r1, #1
    1a24:	681b      	ldr	r3, [r3, #0]
    1a26:	6802      	ldr	r2, [r0, #0]
    1a28:	089b      	lsrs	r3, r3, #2
    1a2a:	fbb3 f1f1 	udiv	r1, r3, r1
    1a2e:	6151      	str	r1, [r2, #20]
    1a30:	6111      	str	r1, [r2, #16]
    1a32:	4770      	bx	lr
    1a34:	100000cc 	.word	0x100000cc

00001a38 <i2c_read>:
    1a38:	e92d 43f0 	stmdb	sp!, {r4, r5, r6, r7, r8, r9, lr}
    1a3c:	6804      	ldr	r4, [r0, #0]
    1a3e:	253c      	movs	r5, #60	; 0x3c
    1a40:	4607      	mov	r7, r0
    1a42:	2024      	movs	r0, #36	; 0x24
    1a44:	61a5      	str	r5, [r4, #24]
    1a46:	4d4e      	ldr	r5, [pc, #312]	; (1b80 <i2c_read+0x148>)
    1a48:	6020      	str	r0, [r4, #0]
    1a4a:	e001      	b.n	1a50 <i2c_read+0x18>
    1a4c:	3d01      	subs	r5, #1
    1a4e:	d002      	beq.n	1a56 <i2c_read+0x1e>
    1a50:	6826      	ldr	r6, [r4, #0]
    1a52:	0736      	lsls	r6, r6, #28
    1a54:	d5fa      	bpl.n	1a4c <i2c_read+0x14>
    1a56:	6860      	ldr	r0, [r4, #4]
    1a58:	2520      	movs	r5, #32
    1a5a:	2810      	cmp	r0, #16
    1a5c:	61a5      	str	r5, [r4, #24]
    1a5e:	d010      	beq.n	1a82 <i2c_read+0x4a>
    1a60:	2808      	cmp	r0, #8
    1a62:	d00e      	beq.n	1a82 <i2c_read+0x4a>
    1a64:	2310      	movs	r3, #16
    1a66:	2208      	movs	r2, #8
    1a68:	6023      	str	r3, [r4, #0]
    1a6a:	4b45      	ldr	r3, [pc, #276]	; (1b80 <i2c_read+0x148>)
    1a6c:	61a2      	str	r2, [r4, #24]
    1a6e:	e001      	b.n	1a74 <i2c_read+0x3c>
    1a70:	3b01      	subs	r3, #1
    1a72:	d002      	beq.n	1a7a <i2c_read+0x42>
    1a74:	6822      	ldr	r2, [r4, #0]
    1a76:	06d5      	lsls	r5, r2, #27
    1a78:	d4fa      	bmi.n	1a70 <i2c_read+0x38>
    1a7a:	f06f 0001 	mvn.w	r0, #1
    1a7e:	e8bd 83f0 	ldmia.w	sp!, {r4, r5, r6, r7, r8, r9, pc}
    1a82:	f041 0101 	orr.w	r1, r1, #1
    1a86:	2008      	movs	r0, #8
    1a88:	60a1      	str	r1, [r4, #8]
    1a8a:	493d      	ldr	r1, [pc, #244]	; (1b80 <i2c_read+0x148>)
    1a8c:	61a0      	str	r0, [r4, #24]
    1a8e:	e001      	b.n	1a94 <i2c_read+0x5c>
    1a90:	3901      	subs	r1, #1
    1a92:	d002      	beq.n	1a9a <i2c_read+0x62>
    1a94:	6825      	ldr	r5, [r4, #0]
    1a96:	0728      	lsls	r0, r5, #28
    1a98:	d5fa      	bpl.n	1a90 <i2c_read+0x58>
    1a9a:	6861      	ldr	r1, [r4, #4]
    1a9c:	2940      	cmp	r1, #64	; 0x40
    1a9e:	d00e      	beq.n	1abe <i2c_read+0x86>
    1aa0:	2310      	movs	r3, #16
    1aa2:	2208      	movs	r2, #8
    1aa4:	6023      	str	r3, [r4, #0]
    1aa6:	4b36      	ldr	r3, [pc, #216]	; (1b80 <i2c_read+0x148>)
    1aa8:	61a2      	str	r2, [r4, #24]
    1aaa:	e001      	b.n	1ab0 <i2c_read+0x78>
    1aac:	3b01      	subs	r3, #1
    1aae:	d002      	beq.n	1ab6 <i2c_read+0x7e>
    1ab0:	6822      	ldr	r2, [r4, #0]
    1ab2:	06d6      	lsls	r6, r2, #27
    1ab4:	d4fa      	bmi.n	1aac <i2c_read+0x74>
    1ab6:	f04f 30ff 	mov.w	r0, #4294967295
    1aba:	e8bd 83f0 	ldmia.w	sp!, {r4, r5, r6, r7, r8, r9, pc}
    1abe:	1e58      	subs	r0, r3, #1
    1ac0:	2800      	cmp	r0, #0
    1ac2:	dd59      	ble.n	1b78 <i2c_read+0x140>
    1ac4:	4684      	mov	r12, r0
    1ac6:	f102 3eff 	add.w	lr, r2, #4294967295
    1aca:	2600      	movs	r6, #0
    1acc:	f04f 0904 	mov.w	r9, #4
    1ad0:	f04f 0808 	mov.w	r8, #8
    1ad4:	f8c4 9000 	str.w	r9, [r4]
    1ad8:	4929      	ldr	r1, [pc, #164]	; (1b80 <i2c_read+0x148>)
    1ada:	f8c4 8018 	str.w	r8, [r4, #24]
    1ade:	e001      	b.n	1ae4 <i2c_read+0xac>
    1ae0:	3901      	subs	r1, #1
    1ae2:	d002      	beq.n	1aea <i2c_read+0xb2>
    1ae4:	6825      	ldr	r5, [r4, #0]
    1ae6:	072d      	lsls	r5, r5, #28
    1ae8:	d5fa      	bpl.n	1ae0 <i2c_read+0xa8>
    1aea:	68a5      	ldr	r5, [r4, #8]
    1aec:	6861      	ldr	r1, [r4, #4]
    1aee:	2950      	cmp	r1, #80	; 0x50
    1af0:	d121      	bne.n	1b36 <i2c_read+0xfe>
    1af2:	3601      	adds	r6, #1
    1af4:	f80e 5f01 	strb.w	r5, [lr, #1]!
    1af8:	4286      	cmp	r6, r0
    1afa:	683c      	ldr	r4, [r7, #0]
    1afc:	d1ea      	bne.n	1ad4 <i2c_read+0x9c>
    1afe:	2108      	movs	r1, #8
    1b00:	2504      	movs	r5, #4
    1b02:	61a5      	str	r5, [r4, #24]
    1b04:	61a1      	str	r1, [r4, #24]
    1b06:	491e      	ldr	r1, [pc, #120]	; (1b80 <i2c_read+0x148>)
    1b08:	e001      	b.n	1b0e <i2c_read+0xd6>
    1b0a:	3901      	subs	r1, #1
    1b0c:	d002      	beq.n	1b14 <i2c_read+0xdc>
    1b0e:	6825      	ldr	r5, [r4, #0]
    1b10:	072e      	lsls	r6, r5, #28
    1b12:	d5fa      	bpl.n	1b0a <i2c_read+0xd2>
    1b14:	68a5      	ldr	r5, [r4, #8]
    1b16:	6861      	ldr	r1, [r4, #4]
    1b18:	2958      	cmp	r1, #88	; 0x58
    1b1a:	d01a      	beq.n	1b52 <i2c_read+0x11a>
    1b1c:	2310      	movs	r3, #16
    1b1e:	2208      	movs	r2, #8
    1b20:	6023      	str	r3, [r4, #0]
    1b22:	4b17      	ldr	r3, [pc, #92]	; (1b80 <i2c_read+0x148>)
    1b24:	61a2      	str	r2, [r4, #24]
    1b26:	e001      	b.n	1b2c <i2c_read+0xf4>
    1b28:	3b01      	subs	r3, #1
    1b2a:	d010      	beq.n	1b4e <i2c_read+0x116>
    1b2c:	6822      	ldr	r2, [r4, #0]
    1b2e:	06d5      	lsls	r5, r2, #27
    1b30:	d4fa      	bmi.n	1b28 <i2c_read+0xf0>
    1b32:	e8bd 83f0 	ldmia.w	sp!, {r4, r5, r6, r7, r8, r9, pc}
    1b36:	2310      	movs	r3, #16
    1b38:	2208      	movs	r2, #8
    1b3a:	6023      	str	r3, [r4, #0]
    1b3c:	4b10      	ldr	r3, [pc, #64]	; (1b80 <i2c_read+0x148>)
    1b3e:	61a2      	str	r2, [r4, #24]
    1b40:	e001      	b.n	1b46 <i2c_read+0x10e>
    1b42:	3b01      	subs	r3, #1
    1b44:	d002      	beq.n	1b4c <i2c_read+0x114>
    1b46:	6822      	ldr	r2, [r4, #0]
    1b48:	06d7      	lsls	r7, r2, #27
    1b4a:	d4fa      	bmi.n	1b42 <i2c_read+0x10a>
    1b4c:	4630      	mov	r0, r6
    1b4e:	e8bd 83f0 	ldmia.w	sp!, {r4, r5, r6, r7, r8, r9, pc}
    1b52:	f802 500c 	strb.w	r5, [r2, r12]
    1b56:	9a07      	ldr	r2, [sp, #28]
    1b58:	b15a      	cbz	r2, 1b72 <i2c_read+0x13a>
    1b5a:	6838      	ldr	r0, [r7, #0]
    1b5c:	2210      	movs	r2, #16
    1b5e:	2108      	movs	r1, #8
    1b60:	6002      	str	r2, [r0, #0]
    1b62:	4a07      	ldr	r2, [pc, #28]	; (1b80 <i2c_read+0x148>)
    1b64:	6181      	str	r1, [r0, #24]
    1b66:	e001      	b.n	1b6c <i2c_read+0x134>
    1b68:	3a01      	subs	r2, #1
    1b6a:	d002      	beq.n	1b72 <i2c_read+0x13a>
    1b6c:	6801      	ldr	r1, [r0, #0]
    1b6e:	06c9      	lsls	r1, r1, #27
    1b70:	d4fa      	bmi.n	1b68 <i2c_read+0x130>
    1b72:	4618      	mov	r0, r3
    1b74:	e8bd 83f0 	ldmia.w	sp!, {r4, r5, r6, r7, r8, r9, pc}
    1b78:	f04f 0c00 	mov.w	r12, #0
    1b7c:	e7bf      	b.n	1afe <i2c_read+0xc6>
    1b7e:	bf00      	nop
    1b80:	000186a1 	.word	0x000186a1

00001b84 <i2c_write>:
    1b84:	b470      	push	{r4, r5, r6}
    1b86:	6804      	ldr	r4, [r0, #0]
    1b88:	253c      	movs	r5, #60	; 0x3c
    1b8a:	2024      	movs	r0, #36	; 0x24
    1b8c:	61a5      	str	r5, [r4, #24]
    1b8e:	4d36      	ldr	r5, [pc, #216]	; (1c68 <i2c_write+0xe4>)
    1b90:	6020      	str	r0, [r4, #0]
    1b92:	e001      	b.n	1b98 <i2c_write+0x14>
    1b94:	3d01      	subs	r5, #1
    1b96:	d002      	beq.n	1b9e <i2c_write+0x1a>
    1b98:	6826      	ldr	r6, [r4, #0]
    1b9a:	0730      	lsls	r0, r6, #28
    1b9c:	d5fa      	bpl.n	1b94 <i2c_write+0x10>
    1b9e:	6860      	ldr	r0, [r4, #4]
    1ba0:	2520      	movs	r5, #32
    1ba2:	2810      	cmp	r0, #16
    1ba4:	61a5      	str	r5, [r4, #24]
    1ba6:	d010      	beq.n	1bca <i2c_write+0x46>
    1ba8:	2808      	cmp	r0, #8
    1baa:	d00e      	beq.n	1bca <i2c_write+0x46>
    1bac:	2310      	movs	r3, #16
    1bae:	2208      	movs	r2, #8
    1bb0:	6023      	str	r3, [r4, #0]
    1bb2:	4b2d      	ldr	r3, [pc, #180]	; (1c68 <i2c_write+0xe4>)
    1bb4:	61a2      	str	r2, [r4, #24]
    1bb6:	e001      	b.n	1bbc <i2c_write+0x38>
    1bb8:	3b01      	subs	r3, #1
    1bba:	d002      	beq.n	1bc2 <i2c_write+0x3e>
    1bbc:	6822      	ldr	r2, [r4, #0]
    1bbe:	06d6      	lsls	r6, r2, #27
    1bc0:	d4fa      	bmi.n	1bb8 <i2c_write+0x34>
    1bc2:	f06f 0001 	mvn.w	r0, #1
    1bc6:	bc70      	pop	{r4, r5, r6}
    1bc8:	4770      	bx	lr
    1bca:	f001 01fe 	and.w	r1, r1, #254	; 0xfe
    1bce:	2008      	movs	r0, #8
    1bd0:	60a1      	str	r1, [r4, #8]
    1bd2:	4925      	ldr	r1, [pc, #148]	; (1c68 <i2c_write+0xe4>)
    1bd4:	61a0      	str	r0, [r4, #24]
    1bd6:	e001      	b.n	1bdc <i2c_write+0x58>
    1bd8:	3901      	subs	r1, #1
    1bda:	d002      	beq.n	1be2 <i2c_write+0x5e>
    1bdc:	6825      	ldr	r5, [r4, #0]
    1bde:	072d      	lsls	r5, r5, #28
    1be0:	d5fa      	bpl.n	1bd8 <i2c_write+0x54>
    1be2:	6861      	ldr	r1, [r4, #4]
    1be4:	2918      	cmp	r1, #24
    1be6:	d00e      	beq.n	1c06 <i2c_write+0x82>
    1be8:	2310      	movs	r3, #16
    1bea:	2208      	movs	r2, #8
    1bec:	6023      	str	r3, [r4, #0]
    1bee:	4b1e      	ldr	r3, [pc, #120]	; (1c68 <i2c_write+0xe4>)
    1bf0:	61a2      	str	r2, [r4, #24]
    1bf2:	e001      	b.n	1bf8 <i2c_write+0x74>
    1bf4:	3b01      	subs	r3, #1
    1bf6:	d002      	beq.n	1bfe <i2c_write+0x7a>
    1bf8:	6822      	ldr	r2, [r4, #0]
    1bfa:	06d0      	lsls	r0, r2, #27
    1bfc:	d4fa      	bmi.n	1bf4 <i2c_write+0x70>
    1bfe:	f04f 30ff 	mov.w	r0, #4294967295
    1c02:	bc70      	pop	{r4, r5, r6}
    1c04:	4770      	bx	lr
    1c06:	2b00      	cmp	r3, #0
    1c08:	dd13      	ble.n	1c32 <i2c_write+0xae>
    1c0a:	1e55      	subs	r5, r2, #1
    1c0c:	2000      	movs	r0, #0
    1c0e:	2608      	movs	r6, #8
    1c10:	f815 1f01 	ldrb.w	r1, [r5, #1]!
    1c14:	4a14      	ldr	r2, [pc, #80]	; (1c68 <i2c_write+0xe4>)
    1c16:	60a1      	str	r1, [r4, #8]
    1c18:	61a6      	str	r6, [r4, #24]
    1c1a:	e001      	b.n	1c20 <i2c_write+0x9c>
    1c1c:	3a01      	subs	r2, #1
    1c1e:	d002      	beq.n	1c26 <i2c_write+0xa2>
    1c20:	6821      	ldr	r1, [r4, #0]
    1c22:	0709      	lsls	r1, r1, #28
    1c24:	d5fa      	bpl.n	1c1c <i2c_write+0x98>
    1c26:	6862      	ldr	r2, [r4, #4]
    1c28:	2a28      	cmp	r2, #40	; 0x28
    1c2a:	d111      	bne.n	1c50 <i2c_write+0xcc>
    1c2c:	3001      	adds	r0, #1
    1c2e:	4283      	cmp	r3, r0
    1c30:	d1ee      	bne.n	1c10 <i2c_write+0x8c>
    1c32:	9a03      	ldr	r2, [sp, #12]
    1c34:	b152      	cbz	r2, 1c4c <i2c_write+0xc8>
    1c36:	2210      	movs	r2, #16
    1c38:	2108      	movs	r1, #8
    1c3a:	6022      	str	r2, [r4, #0]
    1c3c:	4a0a      	ldr	r2, [pc, #40]	; (1c68 <i2c_write+0xe4>)
    1c3e:	61a1      	str	r1, [r4, #24]
    1c40:	e001      	b.n	1c46 <i2c_write+0xc2>
    1c42:	3a01      	subs	r2, #1
    1c44:	d002      	beq.n	1c4c <i2c_write+0xc8>
    1c46:	6821      	ldr	r1, [r4, #0]
    1c48:	06c9      	lsls	r1, r1, #27
    1c4a:	d4fa      	bmi.n	1c42 <i2c_write+0xbe>
    1c4c:	4618      	mov	r0, r3
    1c4e:	e7ba      	b.n	1bc6 <i2c_write+0x42>
    1c50:	2310      	movs	r3, #16
    1c52:	2208      	movs	r2, #8
    1c54:	6023      	str	r3, [r4, #0]
    1c56:	4b04      	ldr	r3, [pc, #16]	; (1c68 <i2c_write+0xe4>)
    1c58:	61a2      	str	r2, [r4, #24]
    1c5a:	e001      	b.n	1c60 <i2c_write+0xdc>
    1c5c:	3b01      	subs	r3, #1
    1c5e:	d0b2      	beq.n	1bc6 <i2c_write+0x42>
    1c60:	6822      	ldr	r2, [r4, #0]
    1c62:	06d5      	lsls	r5, r2, #27
    1c64:	d4fa      	bmi.n	1c5c <i2c_write+0xd8>
    1c66:	e7ae      	b.n	1bc6 <i2c_write+0x42>
    1c68:	000186a1 	.word	0x000186a1

00001c6c <pin_function>:
    1c6c:	f100 4060 	add.w	r0, r0, #3758096384	; 0xe0000000
    1c70:	f5a0 201c 	sub.w	r0, r0, #638976	; 0x9c000
    1c74:	0903      	lsrs	r3, r0, #4
    1c76:	009b      	lsls	r3, r3, #2
    1c78:	f103 4380 	add.w	r3, r3, #1073741824	; 0x40000000
    1c7c:	f503 3330 	add.w	r3, r3, #180224	; 0x2c000
    1c80:	0040      	lsls	r0, r0, #1
    1c82:	b410      	push	{r4}
    1c84:	f000 001e 	and.w	r0, r0, #30
    1c88:	681c      	ldr	r4, [r3, #0]
    1c8a:	2203      	movs	r2, #3
    1c8c:	4082      	lsls	r2, r0
    1c8e:	ea24 0202 	bic.w	r2, r4, r2
    1c92:	601a      	str	r2, [r3, #0]
    1c94:	681a      	ldr	r2, [r3, #0]
    1c96:	4081      	lsls	r1, r0
    1c98:	ea41 0002 	orr.w	r0, r1, r2
    1c9c:	6018      	str	r0, [r3, #0]
    1c9e:	bc10      	pop	{r4}
    1ca0:	4770      	bx	lr
    1ca2:	bf00      	nop

00001ca4 <pin_mode>:
    1ca4:	f100 4060 	add.w	r0, r0, #3758096384	; 0xe0000000
    1ca8:	f5a0 201c 	sub.w	r0, r0, #638976	; 0x9c000
    1cac:	0943      	lsrs	r3, r0, #5
    1cae:	009b      	lsls	r3, r3, #2
    1cb0:	f103 4380 	add.w	r3, r3, #1073741824	; 0x40000000
    1cb4:	f503 3330 	add.w	r3, r3, #180224	; 0x2c000
    1cb8:	b430      	push	{r4, r5}
    1cba:	f000 021f 	and.w	r2, r0, #31
    1cbe:	6e9c      	ldr	r4, [r3, #104]	; 0x68
    1cc0:	f3c1 0580 	ubfx	r5, r1, #2, #1
    1cc4:	fa05 f202 	lsl.w	r2, r5, r2
    1cc8:	ea24 0402 	bic.w	r4, r4, r2
    1ccc:	669c      	str	r4, [r3, #104]	; 0x68
    1cce:	6e9c      	ldr	r4, [r3, #104]	; 0x68
    1cd0:	4322      	orrs	r2, r4
    1cd2:	669a      	str	r2, [r3, #104]	; 0x68
    1cd4:	b99d      	cbnz	r5, 1cfe <pin_mode+0x5a>
    1cd6:	0903      	lsrs	r3, r0, #4
    1cd8:	009b      	lsls	r3, r3, #2
    1cda:	f103 4380 	add.w	r3, r3, #1073741824	; 0x40000000
    1cde:	f503 3330 	add.w	r3, r3, #180224	; 0x2c000
    1ce2:	0040      	lsls	r0, r0, #1
    1ce4:	6c1c      	ldr	r4, [r3, #64]	; 0x40
    1ce6:	f000 001e 	and.w	r0, r0, #30
    1cea:	2203      	movs	r2, #3
    1cec:	4082      	lsls	r2, r0
    1cee:	ea24 0202 	bic.w	r2, r4, r2
    1cf2:	641a      	str	r2, [r3, #64]	; 0x40
    1cf4:	6c1a      	ldr	r2, [r3, #64]	; 0x40
    1cf6:	fa01 f000 	lsl.w	r0, r1, r0
    1cfa:	4310      	orrs	r0, r2
    1cfc:	6418      	str	r0, [r3, #64]	; 0x40
    1cfe:	bc30      	pop	{r4, r5}
    1d00:	4770      	bx	lr
    1d02:	bf00      	nop

00001d04 <uart2_irq>:
    1d04:	4b15      	ldr	r3, [pc, #84]	; (1d5c <uart2_irq+0x58>)
    1d06:	6899      	ldr	r1, [r3, #8]
    1d08:	f3c1 0142 	ubfx	r1, r1, #1, #3
    1d0c:	2901      	cmp	r1, #1
    1d0e:	d018      	beq.n	1d42 <uart2_irq+0x3e>
    1d10:	2902      	cmp	r1, #2
    1d12:	d114      	bne.n	1d3e <uart2_irq+0x3a>
    1d14:	4a12      	ldr	r2, [pc, #72]	; (1d60 <uart2_irq+0x5c>)
    1d16:	6f51      	ldr	r1, [r2, #116]	; 0x74
    1d18:	3101      	adds	r1, #1
    1d1a:	d006      	beq.n	1d2a <uart2_irq+0x26>
    1d1c:	f8d2 1080 	ldr.w	r1, [r2, #128]	; 0x80
    1d20:	6f90      	ldr	r0, [r2, #120]	; 0x78
    1d22:	6008      	str	r0, [r1, #0]
    1d24:	f892 10a6 	ldrb.w	r1, [r2, #166]	; 0xa6
    1d28:	b189      	cbz	r1, 1d4e <uart2_irq+0x4a>
    1d2a:	6f10      	ldr	r0, [r2, #112]	; 0x70
    1d2c:	4b0c      	ldr	r3, [pc, #48]	; (1d60 <uart2_irq+0x5c>)
    1d2e:	b138      	cbz	r0, 1d40 <uart2_irq+0x3c>
    1d30:	f893 30a6 	ldrb.w	r3, [r3, #166]	; 0xa6
    1d34:	b123      	cbz	r3, 1d40 <uart2_irq+0x3c>
    1d36:	4b0b      	ldr	r3, [pc, #44]	; (1d64 <uart2_irq+0x60>)
    1d38:	2100      	movs	r1, #0
    1d3a:	681b      	ldr	r3, [r3, #0]
    1d3c:	4718      	bx	r3
    1d3e:	4770      	bx	lr
    1d40:	4770      	bx	lr
    1d42:	4b07      	ldr	r3, [pc, #28]	; (1d60 <uart2_irq+0x5c>)
    1d44:	6f18      	ldr	r0, [r3, #112]	; 0x70
    1d46:	b138      	cbz	r0, 1d58 <uart2_irq+0x54>
    1d48:	4b06      	ldr	r3, [pc, #24]	; (1d64 <uart2_irq+0x60>)
    1d4a:	681b      	ldr	r3, [r3, #0]
    1d4c:	4718      	bx	r3
    1d4e:	6859      	ldr	r1, [r3, #4]
    1d50:	f021 0101 	bic.w	r1, r1, #1
    1d54:	6059      	str	r1, [r3, #4]
    1d56:	e7e8      	b.n	1d2a <uart2_irq+0x26>
    1d58:	4770      	bx	lr
    1d5a:	bf00      	nop
    1d5c:	40098000 	.word	0x40098000
    1d60:	100005d8 	.word	0x100005d8
    1d64:	100005d4 	.word	0x100005d4

00001d68 <serial_irq_set_internal>:
    1d68:	b5f8      	push	{r3, r4, r5, r6, r7, lr}
    1d6a:	4c29      	ldr	r4, [pc, #164]	; (1e10 <serial_irq_set_internal+0xa8>)
    1d6c:	6803      	ldr	r3, [r0, #0]
    1d6e:	42a3      	cmp	r3, r4
    1d70:	d047      	beq.n	1e02 <serial_irq_set_internal+0x9a>
    1d72:	dd3f      	ble.n	1df4 <serial_irq_set_internal+0x8c>
    1d74:	4c27      	ldr	r4, [pc, #156]	; (1e14 <serial_irq_set_internal+0xac>)
    1d76:	42a3      	cmp	r3, r4
    1d78:	d029      	beq.n	1dce <serial_irq_set_internal+0x66>
    1d7a:	f504 4480 	add.w	r4, r4, #16384	; 0x4000
    1d7e:	42a3      	cmp	r3, r4
    1d80:	d142      	bne.n	1e08 <serial_irq_set_internal+0xa0>
    1d82:	4d25      	ldr	r5, [pc, #148]	; (1e18 <serial_irq_set_internal+0xb0>)
    1d84:	2608      	movs	r6, #8
    1d86:	bb32      	cbnz	r2, 1dd6 <serial_irq_set_internal+0x6e>
    1d88:	2901      	cmp	r1, #1
    1d8a:	d00b      	beq.n	1da4 <serial_irq_set_internal+0x3c>
    1d8c:	6842      	ldr	r2, [r0, #4]
    1d8e:	4c23      	ldr	r4, [pc, #140]	; (1e1c <serial_irq_set_internal+0xb4>)
    1d90:	ebc2 02c2 	rsb	r2, r2, r2, lsl #3
    1d94:	eb04 02c2 	add.w	r2, r4, r2, lsl #3
    1d98:	f892 4036 	ldrb.w	r4, [r2, #54]	; 0x36
    1d9c:	f892 2035 	ldrb.w	r2, [r2, #53]	; 0x35
    1da0:	42d4      	cmn	r4, r2
    1da2:	d113      	bne.n	1dcc <serial_irq_set_internal+0x64>
    1da4:	fab1 f281 	clz	r2, r1
    1da8:	685d      	ldr	r5, [r3, #4]
    1daa:	2401      	movs	r4, #1
    1dac:	fa04 f101 	lsl.w	r1, r4, r1
    1db0:	ea25 0101 	bic.w	r1, r5, r1
    1db4:	6059      	str	r1, [r3, #4]
    1db6:	6803      	ldr	r3, [r0, #0]
    1db8:	0952      	lsrs	r2, r2, #5
    1dba:	685b      	ldr	r3, [r3, #4]
    1dbc:	fa04 f202 	lsl.w	r2, r4, r2
    1dc0:	421a      	tst	r2, r3
    1dc2:	d103      	bne.n	1dcc <serial_irq_set_internal+0x64>
    1dc4:	4b16      	ldr	r3, [pc, #88]	; (1e20 <serial_irq_set_internal+0xb8>)
    1dc6:	40b4      	lsls	r4, r6
    1dc8:	f8c3 4080 	str.w	r4, [r3, #128]	; 0x80
    1dcc:	bdf8      	pop	{r3, r4, r5, r6, r7, pc}
    1dce:	4d15      	ldr	r5, [pc, #84]	; (1e24 <serial_irq_set_internal+0xbc>)
    1dd0:	2607      	movs	r6, #7
    1dd2:	2a00      	cmp	r2, #0
    1dd4:	d0d8      	beq.n	1d88 <serial_irq_set_internal+0x20>
    1dd6:	6858      	ldr	r0, [r3, #4]
    1dd8:	2701      	movs	r7, #1
    1dda:	fa07 f201 	lsl.w	r2, r7, r1
    1dde:	4302      	orrs	r2, r0
    1de0:	b274      	sxtb	r4, r6
    1de2:	605a      	str	r2, [r3, #4]
    1de4:	4629      	mov	r1, r5
    1de6:	4620      	mov	r0, r4
    1de8:	f7ff fa74 	bl	12d4 <NVIC_SetVector>
    1dec:	4b0c      	ldr	r3, [pc, #48]	; (1e20 <serial_irq_set_internal+0xb8>)
    1dee:	40a7      	lsls	r7, r4
    1df0:	601f      	str	r7, [r3, #0]
    1df2:	bdf8      	pop	{r3, r4, r5, r6, r7, pc}
    1df4:	f5a4 4480 	sub.w	r4, r4, #16384	; 0x4000
    1df8:	42a3      	cmp	r3, r4
    1dfa:	d105      	bne.n	1e08 <serial_irq_set_internal+0xa0>
    1dfc:	4d0a      	ldr	r5, [pc, #40]	; (1e28 <serial_irq_set_internal+0xc0>)
    1dfe:	2605      	movs	r6, #5
    1e00:	e7c1      	b.n	1d86 <serial_irq_set_internal+0x1e>
    1e02:	4d0a      	ldr	r5, [pc, #40]	; (1e2c <serial_irq_set_internal+0xc4>)
    1e04:	2606      	movs	r6, #6
    1e06:	e7be      	b.n	1d86 <serial_irq_set_internal+0x1e>
    1e08:	2500      	movs	r5, #0
    1e0a:	462e      	mov	r6, r5
    1e0c:	e7bb      	b.n	1d86 <serial_irq_set_internal+0x1e>
    1e0e:	bf00      	nop
    1e10:	40010000 	.word	0x40010000
    1e14:	40098000 	.word	0x40098000
    1e18:	00001e31 	.word	0x00001e31
    1e1c:	100005d8 	.word	0x100005d8
    1e20:	e000e100 	.word	0xe000e100
    1e24:	00001d05 	.word	0x00001d05
    1e28:	00001e9d 	.word	0x00001e9d
    1e2c:	00001efd 	.word	0x00001efd

00001e30 <uart3_irq>:
    1e30:	4b17      	ldr	r3, [pc, #92]	; (1e90 <uart3_irq+0x60>)
    1e32:	6899      	ldr	r1, [r3, #8]
    1e34:	f3c1 0142 	ubfx	r1, r1, #1, #3
    1e38:	2901      	cmp	r1, #1
    1e3a:	d01b      	beq.n	1e74 <uart3_irq+0x44>
    1e3c:	2902      	cmp	r1, #2
    1e3e:	d117      	bne.n	1e70 <uart3_irq+0x40>
    1e40:	4a14      	ldr	r2, [pc, #80]	; (1e94 <uart3_irq+0x64>)
    1e42:	f8d2 10ac 	ldr.w	r1, [r2, #172]	; 0xac
    1e46:	3101      	adds	r1, #1
    1e48:	d007      	beq.n	1e5a <uart3_irq+0x2a>
    1e4a:	f8d2 10b8 	ldr.w	r1, [r2, #184]	; 0xb8
    1e4e:	f8d2 00b0 	ldr.w	r0, [r2, #176]	; 0xb0
    1e52:	6008      	str	r0, [r1, #0]
    1e54:	f892 10de 	ldrb.w	r1, [r2, #222]	; 0xde
    1e58:	b199      	cbz	r1, 1e82 <uart3_irq+0x52>
    1e5a:	f8d2 00a8 	ldr.w	r0, [r2, #168]	; 0xa8
    1e5e:	4b0d      	ldr	r3, [pc, #52]	; (1e94 <uart3_irq+0x64>)
    1e60:	b138      	cbz	r0, 1e72 <uart3_irq+0x42>
    1e62:	f893 30de 	ldrb.w	r3, [r3, #222]	; 0xde
    1e66:	b123      	cbz	r3, 1e72 <uart3_irq+0x42>
    1e68:	4b0b      	ldr	r3, [pc, #44]	; (1e98 <uart3_irq+0x68>)
    1e6a:	2100      	movs	r1, #0
    1e6c:	681b      	ldr	r3, [r3, #0]
    1e6e:	4718      	bx	r3
    1e70:	4770      	bx	lr
    1e72:	4770      	bx	lr
    1e74:	4b07      	ldr	r3, [pc, #28]	; (1e94 <uart3_irq+0x64>)
    1e76:	f8d3 00a8 	ldr.w	r0, [r3, #168]	; 0xa8
    1e7a:	b138      	cbz	r0, 1e8c <uart3_irq+0x5c>
    1e7c:	4b06      	ldr	r3, [pc, #24]	; (1e98 <uart3_irq+0x68>)
    1e7e:	681b      	ldr	r3, [r3, #0]
    1e80:	4718      	bx	r3
    1e82:	6859      	ldr	r1, [r3, #4]
    1e84:	f021 0101 	bic.w	r1, r1, #1
    1e88:	6059      	str	r1, [r3, #4]
    1e8a:	e7e6      	b.n	1e5a <uart3_irq+0x2a>
    1e8c:	4770      	bx	lr
    1e8e:	bf00      	nop
    1e90:	4009c000 	.word	0x4009c000
    1e94:	100005d8 	.word	0x100005d8
    1e98:	100005d4 	.word	0x100005d4

00001e9c <uart0_irq>:
    1e9c:	4b14      	ldr	r3, [pc, #80]	; (1ef0 <uart0_irq+0x54>)
    1e9e:	6899      	ldr	r1, [r3, #8]
    1ea0:	f3c1 0142 	ubfx	r1, r1, #1, #3
    1ea4:	2901      	cmp	r1, #1
    1ea6:	d017      	beq.n	1ed8 <uart0_irq+0x3c>
    1ea8:	2902      	cmp	r1, #2
    1eaa:	d113      	bne.n	1ed4 <uart0_irq+0x38>
    1eac:	4a11      	ldr	r2, [pc, #68]	; (1ef4 <uart0_irq+0x58>)
    1eae:	6851      	ldr	r1, [r2, #4]
    1eb0:	3101      	adds	r1, #1
    1eb2:	d005      	beq.n	1ec0 <uart0_irq+0x24>
    1eb4:	6911      	ldr	r1, [r2, #16]
    1eb6:	6890      	ldr	r0, [r2, #8]
    1eb8:	6008      	str	r0, [r1, #0]
    1eba:	f892 1036 	ldrb.w	r1, [r2, #54]	; 0x36
    1ebe:	b189      	cbz	r1, 1ee4 <uart0_irq+0x48>
    1ec0:	6810      	ldr	r0, [r2, #0]
    1ec2:	4b0c      	ldr	r3, [pc, #48]	; (1ef4 <uart0_irq+0x58>)
    1ec4:	b138      	cbz	r0, 1ed6 <uart0_irq+0x3a>
    1ec6:	f893 3036 	ldrb.w	r3, [r3, #54]	; 0x36
    1eca:	b123      	cbz	r3, 1ed6 <uart0_irq+0x3a>
    1ecc:	4b0a      	ldr	r3, [pc, #40]	; (1ef8 <uart0_irq+0x5c>)
    1ece:	2100      	movs	r1, #0
    1ed0:	681b      	ldr	r3, [r3, #0]
    1ed2:	4718      	bx	r3
    1ed4:	4770      	bx	lr
    1ed6:	4770      	bx	lr
    1ed8:	4b06      	ldr	r3, [pc, #24]	; (1ef4 <uart0_irq+0x58>)
    1eda:	6818      	ldr	r0, [r3, #0]
    1edc:	b138      	cbz	r0, 1eee <uart0_irq+0x52>
    1ede:	4b06      	ldr	r3, [pc, #24]	; (1ef8 <uart0_irq+0x5c>)
    1ee0:	681b      	ldr	r3, [r3, #0]
    1ee2:	4718      	bx	r3
    1ee4:	6859      	ldr	r1, [r3, #4]
    1ee6:	f021 0101 	bic.w	r1, r1, #1
    1eea:	6059      	str	r1, [r3, #4]
    1eec:	e7e8      	b.n	1ec0 <uart0_irq+0x24>
    1eee:	4770      	bx	lr
    1ef0:	4000c000 	.word	0x4000c000
    1ef4:	100005d8 	.word	0x100005d8
    1ef8:	100005d4 	.word	0x100005d4

00001efc <uart1_irq>:
    1efc:	4b14      	ldr	r3, [pc, #80]	; (1f50 <uart1_irq+0x54>)
    1efe:	6899      	ldr	r1, [r3, #8]
    1f00:	f3c1 0142 	ubfx	r1, r1, #1, #3
    1f04:	2901      	cmp	r1, #1
    1f06:	d017      	beq.n	1f38 <uart1_irq+0x3c>
    1f08:	2902      	cmp	r1, #2
    1f0a:	d113      	bne.n	1f34 <uart1_irq+0x38>
    1f0c:	4a11      	ldr	r2, [pc, #68]	; (1f54 <uart1_irq+0x58>)
    1f0e:	6bd1      	ldr	r1, [r2, #60]	; 0x3c
    1f10:	3101      	adds	r1, #1
    1f12:	d005      	beq.n	1f20 <uart1_irq+0x24>
    1f14:	6c91      	ldr	r1, [r2, #72]	; 0x48
    1f16:	6c10      	ldr	r0, [r2, #64]	; 0x40
    1f18:	6008      	str	r0, [r1, #0]
    1f1a:	f892 106e 	ldrb.w	r1, [r2, #110]	; 0x6e
    1f1e:	b189      	cbz	r1, 1f44 <uart1_irq+0x48>
    1f20:	6b90      	ldr	r0, [r2, #56]	; 0x38
    1f22:	4b0c      	ldr	r3, [pc, #48]	; (1f54 <uart1_irq+0x58>)
    1f24:	b138      	cbz	r0, 1f36 <uart1_irq+0x3a>
    1f26:	f893 306e 	ldrb.w	r3, [r3, #110]	; 0x6e
    1f2a:	b123      	cbz	r3, 1f36 <uart1_irq+0x3a>
    1f2c:	4b0a      	ldr	r3, [pc, #40]	; (1f58 <uart1_irq+0x5c>)
    1f2e:	2100      	movs	r1, #0
    1f30:	681b      	ldr	r3, [r3, #0]
    1f32:	4718      	bx	r3
    1f34:	4770      	bx	lr
    1f36:	4770      	bx	lr
    1f38:	4b06      	ldr	r3, [pc, #24]	; (1f54 <uart1_irq+0x58>)
    1f3a:	6b98      	ldr	r0, [r3, #56]	; 0x38
    1f3c:	b138      	cbz	r0, 1f4e <uart1_irq+0x52>
    1f3e:	4b06      	ldr	r3, [pc, #24]	; (1f58 <uart1_irq+0x5c>)
    1f40:	681b      	ldr	r3, [r3, #0]
    1f42:	4718      	bx	r3
    1f44:	6859      	ldr	r1, [r3, #4]
    1f46:	f021 0101 	bic.w	r1, r1, #1
    1f4a:	6059      	str	r1, [r3, #4]
    1f4c:	e7e8      	b.n	1f20 <uart1_irq+0x24>
    1f4e:	4770      	bx	lr
    1f50:	40010000 	.word	0x40010000
    1f54:	100005d8 	.word	0x100005d8
    1f58:	100005d4 	.word	0x100005d4

00001f5c <serial_baud>:
    1f5c:	e92d 4ff0 	stmdb	sp!, {r4, r5, r6, r7, r8, r9, r10, r11, lr}
    1f60:	6802      	ldr	r2, [r0, #0]
    1f62:	4b6e      	ldr	r3, [pc, #440]	; (211c <serial_baud+0x1c0>)
    1f64:	b089      	sub	sp, #36	; 0x24
    1f66:	429a      	cmp	r2, r3
    1f68:	9007      	str	r0, [sp, #28]
    1f6a:	9206      	str	r2, [sp, #24]
    1f6c:	f000 80c8 	beq.w	2100 <serial_baud+0x1a4>
    1f70:	f340 80b4 	ble.w	20dc <serial_baud+0x180>
    1f74:	4b6a      	ldr	r3, [pc, #424]	; (2120 <serial_baud+0x1c4>)
    1f76:	9806      	ldr	r0, [sp, #24]
    1f78:	4298      	cmp	r0, r3
    1f7a:	d072      	beq.n	2062 <serial_baud+0x106>
    1f7c:	f503 4380 	add.w	r3, r3, #16384	; 0x4000
    1f80:	4298      	cmp	r0, r3
    1f82:	f040 809d 	bne.w	20c0 <serial_baud+0x164>
    1f86:	4b67      	ldr	r3, [pc, #412]	; (2124 <serial_baud+0x1c8>)
    1f88:	f8d3 21ac 	ldr.w	r2, [r3, #428]	; 0x1ac
    1f8c:	f422 2240 	bic.w	r2, r2, #786432	; 0xc0000
    1f90:	f8c3 21ac 	str.w	r2, [r3, #428]	; 0x1ac
    1f94:	f8d3 21ac 	ldr.w	r2, [r3, #428]	; 0x1ac
    1f98:	f442 2280 	orr.w	r2, r2, #262144	; 0x40000
    1f9c:	f8c3 21ac 	str.w	r2, [r3, #428]	; 0x1ac
    1fa0:	4a61      	ldr	r2, [pc, #388]	; (2128 <serial_baud+0x1cc>)
    1fa2:	010b      	lsls	r3, r1, #4
    1fa4:	6812      	ldr	r2, [r2, #0]
    1fa6:	fbb2 f0f3 	udiv	r0, r2, r3
    1faa:	fb03 2310 	mls	r3, r3, r0, r2
    1fae:	9203      	str	r2, [sp, #12]
    1fb0:	b280      	uxth	r0, r0
    1fb2:	2b00      	cmp	r3, #0
    1fb4:	f000 8090 	beq.w	20d8 <serial_baud+0x17c>
    1fb8:	9b03      	ldr	r3, [sp, #12]
    1fba:	f04f 0801 	mov.w	r8, #1
    1fbe:	005a      	lsls	r2, r3, #1
    1fc0:	009c      	lsls	r4, r3, #2
    1fc2:	4694      	mov	r12, r2
    1fc4:	46a2      	mov	r10, r4
    1fc6:	46c3      	mov	r11, r8
    1fc8:	468e      	mov	lr, r1
    1fca:	4699      	mov	r9, r3
    1fcc:	2300      	movs	r3, #0
    1fce:	9205      	str	r2, [sp, #20]
    1fd0:	9404      	str	r4, [sp, #16]
    1fd2:	9000      	str	r0, [sp, #0]
    1fd4:	9102      	str	r1, [sp, #8]
    1fd6:	9301      	str	r3, [sp, #4]
    1fd8:	2400      	movs	r4, #0
    1fda:	4625      	mov	r5, r4
    1fdc:	9e02      	ldr	r6, [sp, #8]
    1fde:	fa5f f788 	uxtb.w	r7, r8
    1fe2:	f1bc 0f00 	cmp.w	r12, #0
    1fe6:	bfb5      	itete	lt
    1fe8:	fbbc f0f6 	udivlt	r0, r12, r6
    1fec:	fbba f0f6 	udivge	r0, r10, r6
    1ff0:	0900      	lsrlt	r0, r0, #4
    1ff2:	0940      	lsrge	r0, r0, #5
    1ff4:	3001      	adds	r0, #1
    1ff6:	f3c0 004f 	ubfx	r0, r0, #1, #16
    1ffa:	eb08 0204 	add.w	r2, r8, r4
    1ffe:	2800      	cmp	r0, #0
    2000:	d03d      	beq.n	207e <serial_baud+0x122>
    2002:	b10c      	cbz	r4, 2008 <serial_baud+0xac>
    2004:	2801      	cmp	r0, #1
    2006:	d03b      	beq.n	2080 <serial_baud+0x124>
    2008:	4603      	mov	r3, r0
    200a:	fb03 f302 	mul.w	r3, r3, r2
    200e:	00db      	lsls	r3, r3, #3
    2010:	fbb9 f3f3 	udiv	r3, r9, r3
    2014:	3301      	adds	r3, #1
    2016:	ebc1 0353 	rsb	r3, r1, r3, lsr #1
    201a:	2b00      	cmp	r3, #0
    201c:	bfb8      	it	lt
    201e:	425b      	neglt	r3, r3
    2020:	4573      	cmp	r3, lr
    2022:	da05      	bge.n	2030 <serial_baud+0xd4>
    2024:	4299      	cmp	r1, r3
    2026:	d030      	beq.n	208a <serial_baud+0x12e>
    2028:	469e      	mov	lr, r3
    202a:	46bb      	mov	r11, r7
    202c:	e88d 0021 	stmia.w	sp, {r0, r5}
    2030:	3401      	adds	r4, #1
    2032:	b2e5      	uxtb	r5, r4
    2034:	42af      	cmp	r7, r5
    2036:	440e      	add	r6, r1
    2038:	d8d3      	bhi.n	1fe2 <serial_baud+0x86>
    203a:	9b03      	ldr	r3, [sp, #12]
    203c:	f108 0801 	add.w	r8, r8, #1
    2040:	4499      	add	r9, r3
    2042:	9b05      	ldr	r3, [sp, #20]
    2044:	f1b8 0f10 	cmp.w	r8, #16
    2048:	449c      	add	r12, r3
    204a:	9b04      	ldr	r3, [sp, #16]
    204c:	449a      	add	r10, r3
    204e:	9b02      	ldr	r3, [sp, #8]
    2050:	440b      	add	r3, r1
    2052:	9302      	str	r3, [sp, #8]
    2054:	d1c0      	bne.n	1fd8 <serial_baud+0x7c>
    2056:	9b01      	ldr	r3, [sp, #4]
    2058:	9800      	ldr	r0, [sp, #0]
    205a:	ea43 150b 	orr.w	r5, r3, r11, lsl #4
    205e:	b2ed      	uxtb	r5, r5
    2060:	e016      	b.n	2090 <serial_baud+0x134>
    2062:	4b30      	ldr	r3, [pc, #192]	; (2124 <serial_baud+0x1c8>)
    2064:	f8d3 21ac 	ldr.w	r2, [r3, #428]	; 0x1ac
    2068:	f422 3240 	bic.w	r2, r2, #196608	; 0x30000
    206c:	f8c3 21ac 	str.w	r2, [r3, #428]	; 0x1ac
    2070:	f8d3 21ac 	ldr.w	r2, [r3, #428]	; 0x1ac
    2074:	f442 3280 	orr.w	r2, r2, #65536	; 0x10000
    2078:	f8c3 21ac 	str.w	r2, [r3, #428]	; 0x1ac
    207c:	e790      	b.n	1fa0 <serial_baud+0x44>
    207e:	b114      	cbz	r4, 2086 <serial_baud+0x12a>
    2080:	2002      	movs	r0, #2
    2082:	4603      	mov	r3, r0
    2084:	e7c1      	b.n	200a <serial_baud+0xae>
    2086:	2001      	movs	r0, #1
    2088:	e7be      	b.n	2008 <serial_baud+0xac>
    208a:	ea45 1507 	orr.w	r5, r5, r7, lsl #4
    208e:	b2ed      	uxtb	r5, r5
    2090:	9906      	ldr	r1, [sp, #24]
    2092:	f3c0 2207 	ubfx	r2, r0, #8, #8
    2096:	7b0b      	ldrb	r3, [r1, #12]
    2098:	b2c0      	uxtb	r0, r0
    209a:	f043 0380 	orr.w	r3, r3, #128	; 0x80
    209e:	730b      	strb	r3, [r1, #12]
    20a0:	9907      	ldr	r1, [sp, #28]
    20a2:	680b      	ldr	r3, [r1, #0]
    20a4:	711a      	strb	r2, [r3, #4]
    20a6:	680b      	ldr	r3, [r1, #0]
    20a8:	7018      	strb	r0, [r3, #0]
    20aa:	680b      	ldr	r3, [r1, #0]
    20ac:	f883 5028 	strb.w	r5, [r3, #40]	; 0x28
    20b0:	680a      	ldr	r2, [r1, #0]
    20b2:	7b13      	ldrb	r3, [r2, #12]
    20b4:	f003 037f 	and.w	r3, r3, #127	; 0x7f
    20b8:	7313      	strb	r3, [r2, #12]
    20ba:	b009      	add	sp, #36	; 0x24
    20bc:	e8bd 8ff0 	ldmia.w	sp!, {r4, r5, r6, r7, r8, r9, r10, r11, pc}
    20c0:	4a19      	ldr	r2, [pc, #100]	; (2128 <serial_baud+0x1cc>)
    20c2:	010b      	lsls	r3, r1, #4
    20c4:	6812      	ldr	r2, [r2, #0]
    20c6:	fbb2 f0f3 	udiv	r0, r2, r3
    20ca:	fb03 2310 	mls	r3, r3, r0, r2
    20ce:	9203      	str	r2, [sp, #12]
    20d0:	b280      	uxth	r0, r0
    20d2:	2b00      	cmp	r3, #0
    20d4:	f47f af70 	bne.w	1fb8 <serial_baud+0x5c>
    20d8:	2510      	movs	r5, #16
    20da:	e7d9      	b.n	2090 <serial_baud+0x134>
    20dc:	f5a3 4380 	sub.w	r3, r3, #16384	; 0x4000
    20e0:	429a      	cmp	r2, r3
    20e2:	d1ed      	bne.n	20c0 <serial_baud+0x164>
    20e4:	4b0f      	ldr	r3, [pc, #60]	; (2124 <serial_baud+0x1c8>)
    20e6:	f8d3 21a8 	ldr.w	r2, [r3, #424]	; 0x1a8
    20ea:	f022 02c0 	bic.w	r2, r2, #192	; 0xc0
    20ee:	f8c3 21a8 	str.w	r2, [r3, #424]	; 0x1a8
    20f2:	f8d3 21a8 	ldr.w	r2, [r3, #424]	; 0x1a8
    20f6:	f042 0240 	orr.w	r2, r2, #64	; 0x40
    20fa:	f8c3 21a8 	str.w	r2, [r3, #424]	; 0x1a8
    20fe:	e74f      	b.n	1fa0 <serial_baud+0x44>
    2100:	4b08      	ldr	r3, [pc, #32]	; (2124 <serial_baud+0x1c8>)
    2102:	f8d3 21a8 	ldr.w	r2, [r3, #424]	; 0x1a8
    2106:	f422 7240 	bic.w	r2, r2, #768	; 0x300
    210a:	f8c3 21a8 	str.w	r2, [r3, #424]	; 0x1a8
    210e:	f8d3 21a8 	ldr.w	r2, [r3, #424]	; 0x1a8
    2112:	f442 7280 	orr.w	r2, r2, #256	; 0x100
    2116:	f8c3 21a8 	str.w	r2, [r3, #424]	; 0x1a8
    211a:	e741      	b.n	1fa0 <serial_baud+0x44>
    211c:	40010000 	.word	0x40010000
    2120:	40098000 	.word	0x40098000
    2124:	400fc000 	.word	0x400fc000
    2128:	100000cc 	.word	0x100000cc

0000212c <serial_irq_handler>:
    212c:	6843      	ldr	r3, [r0, #4]
    212e:	b410      	push	{r4}
    2130:	4804      	ldr	r0, [pc, #16]	; (2144 <serial_irq_handler+0x18>)
    2132:	4c05      	ldr	r4, [pc, #20]	; (2148 <serial_irq_handler+0x1c>)
    2134:	ebc3 03c3 	rsb	r3, r3, r3, lsl #3
    2138:	f844 2033 	str.w	r2, [r4, r3, lsl #3]
    213c:	6001      	str	r1, [r0, #0]
    213e:	bc10      	pop	{r4}
    2140:	4770      	bx	lr
    2142:	bf00      	nop
    2144:	100005d4 	.word	0x100005d4
    2148:	100005d8 	.word	0x100005d8

0000214c <serial_getc>:
    214c:	6802      	ldr	r2, [r0, #0]
    214e:	7d13      	ldrb	r3, [r2, #20]
    2150:	07db      	lsls	r3, r3, #31
    2152:	d5fc      	bpl.n	214e <serial_getc+0x2>
    2154:	6843      	ldr	r3, [r0, #4]
    2156:	4909      	ldr	r1, [pc, #36]	; (217c <serial_getc+0x30>)
    2158:	ebc3 03c3 	rsb	r3, r3, r3, lsl #3
    215c:	eb01 03c3 	add.w	r3, r1, r3, lsl #3
    2160:	6859      	ldr	r1, [r3, #4]
    2162:	7810      	ldrb	r0, [r2, #0]
    2164:	3101      	adds	r1, #1
    2166:	b2c0      	uxtb	r0, r0
    2168:	d006      	beq.n	2178 <serial_getc+0x2c>
    216a:	6959      	ldr	r1, [r3, #20]
    216c:	689b      	ldr	r3, [r3, #8]
    216e:	600b      	str	r3, [r1, #0]
    2170:	6853      	ldr	r3, [r2, #4]
    2172:	f043 0301 	orr.w	r3, r3, #1
    2176:	6053      	str	r3, [r2, #4]
    2178:	4770      	bx	lr
    217a:	bf00      	nop
    217c:	100005d8 	.word	0x100005d8

00002180 <serial_writable>:
    2180:	6843      	ldr	r3, [r0, #4]
    2182:	4a15      	ldr	r2, [pc, #84]	; (21d8 <serial_writable+0x58>)
    2184:	ebc3 03c3 	rsb	r3, r3, r3, lsl #3
    2188:	00db      	lsls	r3, r3, #3
    218a:	18d1      	adds	r1, r2, r3
    218c:	b410      	push	{r4}
    218e:	69cc      	ldr	r4, [r1, #28]
    2190:	3401      	adds	r4, #1
    2192:	d00f      	beq.n	21b4 <serial_writable+0x34>
    2194:	460b      	mov	r3, r1
    2196:	6b0a      	ldr	r2, [r1, #48]	; 0x30
    2198:	331c      	adds	r3, #28
    219a:	685b      	ldr	r3, [r3, #4]
    219c:	6812      	ldr	r2, [r2, #0]
    219e:	421a      	tst	r2, r3
    21a0:	d105      	bne.n	21ae <serial_writable+0x2e>
    21a2:	6803      	ldr	r3, [r0, #0]
    21a4:	bc10      	pop	{r4}
    21a6:	7d18      	ldrb	r0, [r3, #20]
    21a8:	f3c0 1080 	ubfx	r0, r0, #6, #1
    21ac:	4770      	bx	lr
    21ae:	2000      	movs	r0, #0
    21b0:	bc10      	pop	{r4}
    21b2:	4770      	bx	lr
    21b4:	6803      	ldr	r3, [r0, #0]
    21b6:	7d1b      	ldrb	r3, [r3, #20]
    21b8:	069b      	lsls	r3, r3, #26
    21ba:	d407      	bmi.n	21cc <serial_writable+0x4c>
    21bc:	f891 0034 	ldrb.w	r0, [r1, #52]	; 0x34
    21c0:	bc10      	pop	{r4}
    21c2:	280f      	cmp	r0, #15
    21c4:	bf8c      	ite	hi
    21c6:	2000      	movhi	r0, #0
    21c8:	2001      	movls	r0, #1
    21ca:	4770      	bx	lr
    21cc:	2300      	movs	r3, #0
    21ce:	f881 3034 	strb.w	r3, [r1, #52]	; 0x34
    21d2:	2001      	movs	r0, #1
    21d4:	bc10      	pop	{r4}
    21d6:	4770      	bx	lr
    21d8:	100005d8 	.word	0x100005d8

000021dc <serial_putc>:
    21dc:	b538      	push	{r3, r4, r5, lr}
    21de:	4604      	mov	r4, r0
    21e0:	460d      	mov	r5, r1
    21e2:	4620      	mov	r0, r4
    21e4:	f7ff ffcc 	bl	2180 <serial_writable>
    21e8:	2800      	cmp	r0, #0
    21ea:	d0fa      	beq.n	21e2 <serial_putc+0x6>
    21ec:	6823      	ldr	r3, [r4, #0]
    21ee:	b2ed      	uxtb	r5, r5
    21f0:	701d      	strb	r5, [r3, #0]
    21f2:	6863      	ldr	r3, [r4, #4]
    21f4:	4a05      	ldr	r2, [pc, #20]	; (220c <serial_putc+0x30>)
    21f6:	ebc3 03c3 	rsb	r3, r3, r3, lsl #3
    21fa:	eb02 03c3 	add.w	r3, r2, r3, lsl #3
    21fe:	f893 2034 	ldrb.w	r2, [r3, #52]	; 0x34
    2202:	3201      	adds	r2, #1
    2204:	f883 2034 	strb.w	r2, [r3, #52]	; 0x34
    2208:	bd38      	pop	{r3, r4, r5, pc}
    220a:	bf00      	nop
    220c:	100005d8 	.word	0x100005d8

00002210 <serial_set_flow_control>:
    2210:	e92d 4ff0 	stmdb	sp!, {r4, r5, r6, r7, r8, r9, r10, r11, lr}
    2214:	4605      	mov	r5, r0
    2216:	4844      	ldr	r0, [pc, #272]	; (2328 <serial_set_flow_control+0x118>)
    2218:	682c      	ldr	r4, [r5, #0]
    221a:	b083      	sub	sp, #12
    221c:	4284      	cmp	r4, r0
    221e:	460f      	mov	r7, r1
    2220:	4691      	mov	r9, r2
    2222:	469a      	mov	r10, r3
    2224:	d01d      	beq.n	2262 <serial_set_flow_control+0x52>
    2226:	686e      	ldr	r6, [r5, #4]
    2228:	2400      	movs	r4, #0
    222a:	4632      	mov	r2, r6
    222c:	f8df b104 	ldr.w	r11, [pc, #260]	; 2334 <serial_set_flow_control+0x124>
    2230:	ea4f 08c6 	mov.w	r8, r6, lsl #3
    2234:	ebc2 01c2 	rsb	r1, r2, r2, lsl #3
    2238:	ebc6 0008 	rsb	r0, r6, r8
    223c:	eb0b 00c0 	add.w	r0, r11, r0, lsl #3
    2240:	2200      	movs	r2, #0
    2242:	eb0b 01c1 	add.w	r1, r11, r1, lsl #3
    2246:	f04f 33ff 	mov.w	r3, #4294967295
    224a:	f881 2035 	strb.w	r2, [r1, #53]	; 0x35
    224e:	61c3      	str	r3, [r0, #28]
    2250:	6043      	str	r3, [r0, #4]
    2252:	4611      	mov	r1, r2
    2254:	4628      	mov	r0, r5
    2256:	f7ff fd87 	bl	1d68 <serial_irq_set_internal>
    225a:	b94f      	cbnz	r7, 2270 <serial_set_flow_control+0x60>
    225c:	b003      	add	sp, #12
    225e:	e8bd 8ff0 	ldmia.w	sp!, {r4, r5, r6, r7, r8, r9, r10, r11, pc}
    2262:	7c23      	ldrb	r3, [r4, #16]
    2264:	686e      	ldr	r6, [r5, #4]
    2266:	f003 033f 	and.w	r3, r3, #63	; 0x3f
    226a:	7423      	strb	r3, [r4, #16]
    226c:	686a      	ldr	r2, [r5, #4]
    226e:	e7dd      	b.n	222c <serial_set_flow_control+0x1c>
    2270:	492e      	ldr	r1, [pc, #184]	; (232c <serial_set_flow_control+0x11c>)
    2272:	4648      	mov	r0, r9
    2274:	f7ff f804 	bl	1280 <pinmap_find_peripheral>
    2278:	492d      	ldr	r1, [pc, #180]	; (2330 <serial_set_flow_control+0x120>)
    227a:	9001      	str	r0, [sp, #4]
    227c:	4650      	mov	r0, r10
    227e:	f7fe ffff 	bl	1280 <pinmap_find_peripheral>
    2282:	1eba      	subs	r2, r7, #2
    2284:	2a01      	cmp	r2, #1
    2286:	d930      	bls.n	22ea <serial_set_flow_control+0xda>
    2288:	2f01      	cmp	r7, #1
    228a:	d1e7      	bne.n	225c <serial_set_flow_control+0x4c>
    228c:	f1b9 3fff 	cmp.w	r9, #4294967295
    2290:	d0e4      	beq.n	225c <serial_set_flow_control+0x4c>
    2292:	4a25      	ldr	r2, [pc, #148]	; (2328 <serial_set_flow_control+0x118>)
    2294:	9b01      	ldr	r3, [sp, #4]
    2296:	6829      	ldr	r1, [r5, #0]
    2298:	2007      	movs	r0, #7
    229a:	4293      	cmp	r3, r2
    229c:	7208      	strb	r0, [r1, #8]
    229e:	d10b      	bne.n	22b8 <serial_set_flow_control+0xa8>
    22a0:	b154      	cbz	r4, 22b8 <serial_set_flow_control+0xa8>
    22a2:	4648      	mov	r0, r9
    22a4:	7c23      	ldrb	r3, [r4, #16]
    22a6:	4921      	ldr	r1, [pc, #132]	; (232c <serial_set_flow_control+0x11c>)
    22a8:	f043 0340 	orr.w	r3, r3, #64	; 0x40
    22ac:	7423      	strb	r3, [r4, #16]
    22ae:	b003      	add	sp, #12
    22b0:	e8bd 4ff0 	ldmia.w	sp!, {r4, r5, r6, r7, r8, r9, r10, r11, lr}
    22b4:	f7fe bfac 	b.w	1210 <pinmap_pinout>
    22b8:	ebc6 0608 	rsb	r6, r6, r8
    22bc:	eb0b 00c6 	add.w	r0, r11, r6, lsl #3
    22c0:	4649      	mov	r1, r9
    22c2:	3004      	adds	r0, #4
    22c4:	2200      	movs	r2, #0
    22c6:	f7fe ff23 	bl	1110 <gpio_init_out_ex>
    22ca:	686a      	ldr	r2, [r5, #4]
    22cc:	2401      	movs	r4, #1
    22ce:	ebc2 02c2 	rsb	r2, r2, r2, lsl #3
    22d2:	eb0b 03c2 	add.w	r3, r11, r2, lsl #3
    22d6:	4628      	mov	r0, r5
    22d8:	4622      	mov	r2, r4
    22da:	2100      	movs	r1, #0
    22dc:	f883 4035 	strb.w	r4, [r3, #53]	; 0x35
    22e0:	b003      	add	sp, #12
    22e2:	e8bd 4ff0 	ldmia.w	sp!, {r4, r5, r6, r7, r8, r9, r10, r11, lr}
    22e6:	f7ff bd3f 	b.w	1d68 <serial_irq_set_internal>
    22ea:	f1ba 3fff 	cmp.w	r10, #4294967295
    22ee:	d00a      	beq.n	2306 <serial_set_flow_control+0xf6>
    22f0:	4a0d      	ldr	r2, [pc, #52]	; (2328 <serial_set_flow_control+0x118>)
    22f2:	4290      	cmp	r0, r2
    22f4:	d00d      	beq.n	2312 <serial_set_flow_control+0x102>
    22f6:	ebc6 0008 	rsb	r0, r6, r8
    22fa:	eb0b 00c0 	add.w	r0, r11, r0, lsl #3
    22fe:	4651      	mov	r1, r10
    2300:	301c      	adds	r0, #28
    2302:	f7fe fedd 	bl	10c0 <gpio_init_in>
    2306:	2f03      	cmp	r7, #3
    2308:	d1a8      	bne.n	225c <serial_set_flow_control+0x4c>
    230a:	f1b9 3fff 	cmp.w	r9, #4294967295
    230e:	d1c0      	bne.n	2292 <serial_set_flow_control+0x82>
    2310:	e7a4      	b.n	225c <serial_set_flow_control+0x4c>
    2312:	2c00      	cmp	r4, #0
    2314:	d0ef      	beq.n	22f6 <serial_set_flow_control+0xe6>
    2316:	7c22      	ldrb	r2, [r4, #16]
    2318:	4650      	mov	r0, r10
    231a:	f042 0280 	orr.w	r2, r2, #128	; 0x80
    231e:	7422      	strb	r2, [r4, #16]
    2320:	4903      	ldr	r1, [pc, #12]	; (2330 <serial_set_flow_control+0x120>)
    2322:	f7fe ff75 	bl	1210 <pinmap_pinout>
    2326:	e7ee      	b.n	2306 <serial_set_flow_control+0xf6>
    2328:	40010000 	.word	0x40010000
    232c:	00008350 	.word	0x00008350
    2330:	0000844c 	.word	0x0000844c
    2334:	100005d8 	.word	0x100005d8

00002338 <serial_init>:
    2338:	e92d 41f0 	stmdb	sp!, {r4, r5, r6, r7, r8, lr}
    233c:	460f      	mov	r7, r1
    233e:	4605      	mov	r5, r0
    2340:	4959      	ldr	r1, [pc, #356]	; (24a8 <serial_init+0x170>)
    2342:	4638      	mov	r0, r7
    2344:	4616      	mov	r6, r2
    2346:	f7fe ffab 	bl	12a0 <pinmap_peripheral>
    234a:	4958      	ldr	r1, [pc, #352]	; (24ac <serial_init+0x174>)
    234c:	4604      	mov	r4, r0
    234e:	4630      	mov	r0, r6
    2350:	f7fe ffa6 	bl	12a0 <pinmap_peripheral>
    2354:	4601      	mov	r1, r0
    2356:	4620      	mov	r0, r4
    2358:	f7fe ff80 	bl	125c <pinmap_merge>
    235c:	4b54      	ldr	r3, [pc, #336]	; (24b0 <serial_init+0x178>)
    235e:	4604      	mov	r4, r0
    2360:	4298      	cmp	r0, r3
    2362:	6028      	str	r0, [r5, #0]
    2364:	d07f      	beq.n	2466 <serial_init+0x12e>
    2366:	d96f      	bls.n	2448 <serial_init+0x110>
    2368:	4b52      	ldr	r3, [pc, #328]	; (24b4 <serial_init+0x17c>)
    236a:	4298      	cmp	r0, r3
    236c:	d04b      	beq.n	2406 <serial_init+0xce>
    236e:	f503 4380 	add.w	r3, r3, #16384	; 0x4000
    2372:	4298      	cmp	r0, r3
    2374:	d106      	bne.n	2384 <serial_init+0x4c>
    2376:	4a50      	ldr	r2, [pc, #320]	; (24b8 <serial_init+0x180>)
    2378:	f8d2 30c4 	ldr.w	r3, [r2, #196]	; 0xc4
    237c:	f043 7300 	orr.w	r3, r3, #33554432	; 0x2000000
    2380:	f8c2 30c4 	str.w	r3, [r2, #196]	; 0xc4
    2384:	2301      	movs	r3, #1
    2386:	7223      	strb	r3, [r4, #8]
    2388:	682b      	ldr	r3, [r5, #0]
    238a:	f04f 0800 	mov.w	r8, #0
    238e:	f8c3 8004 	str.w	r8, [r3, #4]
    2392:	f44f 5116 	mov.w	r1, #9600	; 0x2580
    2396:	4628      	mov	r0, r5
    2398:	f7ff fde0 	bl	1f5c <serial_baud>
    239c:	682b      	ldr	r3, [r5, #0]
    239e:	2203      	movs	r2, #3
    23a0:	731a      	strb	r2, [r3, #12]
    23a2:	4941      	ldr	r1, [pc, #260]	; (24a8 <serial_init+0x170>)
    23a4:	4638      	mov	r0, r7
    23a6:	f7fe ff33 	bl	1210 <pinmap_pinout>
    23aa:	4940      	ldr	r1, [pc, #256]	; (24ac <serial_init+0x174>)
    23ac:	4630      	mov	r0, r6
    23ae:	f7fe ff2f 	bl	1210 <pinmap_pinout>
    23b2:	1c7a      	adds	r2, r7, #1
    23b4:	d003      	beq.n	23be <serial_init+0x86>
    23b6:	4641      	mov	r1, r8
    23b8:	4638      	mov	r0, r7
    23ba:	f7ff fc73 	bl	1ca4 <pin_mode>
    23be:	1c73      	adds	r3, r6, #1
    23c0:	d003      	beq.n	23ca <serial_init+0x92>
    23c2:	4630      	mov	r0, r6
    23c4:	2100      	movs	r1, #0
    23c6:	f7ff fc6d 	bl	1ca4 <pin_mode>
    23ca:	4b39      	ldr	r3, [pc, #228]	; (24b0 <serial_init+0x178>)
    23cc:	429c      	cmp	r4, r3
    23ce:	d047      	beq.n	2460 <serial_init+0x128>
    23d0:	d921      	bls.n	2416 <serial_init+0xde>
    23d2:	4b38      	ldr	r3, [pc, #224]	; (24b4 <serial_init+0x17c>)
    23d4:	429c      	cmp	r4, r3
    23d6:	d063      	beq.n	24a0 <serial_init+0x168>
    23d8:	f503 4380 	add.w	r3, r3, #16384	; 0x4000
    23dc:	429c      	cmp	r4, r3
    23de:	d14a      	bne.n	2476 <serial_init+0x13e>
    23e0:	2303      	movs	r3, #3
    23e2:	606b      	str	r3, [r5, #4]
    23e4:	4c35      	ldr	r4, [pc, #212]	; (24bc <serial_init+0x184>)
    23e6:	ebc3 03c3 	rsb	r3, r3, r3, lsl #3
    23ea:	f04f 36ff 	mov.w	r6, #4294967295
    23ee:	eb04 04c3 	add.w	r4, r4, r3, lsl #3
    23f2:	4628      	mov	r0, r5
    23f4:	4633      	mov	r3, r6
    23f6:	4632      	mov	r2, r6
    23f8:	6066      	str	r6, [r4, #4]
    23fa:	61e6      	str	r6, [r4, #28]
    23fc:	2100      	movs	r1, #0
    23fe:	e8bd 41f0 	ldmia.w	sp!, {r4, r5, r6, r7, r8, lr}
    2402:	f7ff bf05 	b.w	2210 <serial_set_flow_control>
    2406:	4a2c      	ldr	r2, [pc, #176]	; (24b8 <serial_init+0x180>)
    2408:	f8d2 30c4 	ldr.w	r3, [r2, #196]	; 0xc4
    240c:	f043 7380 	orr.w	r3, r3, #16777216	; 0x1000000
    2410:	f8c2 30c4 	str.w	r3, [r2, #196]	; 0xc4
    2414:	e7b6      	b.n	2384 <serial_init+0x4c>
    2416:	f5a3 4380 	sub.w	r3, r3, #16384	; 0x4000
    241a:	429c      	cmp	r4, r3
    241c:	d12b      	bne.n	2476 <serial_init+0x13e>
    241e:	4e27      	ldr	r6, [pc, #156]	; (24bc <serial_init+0x184>)
    2420:	f04f 34ff 	mov.w	r4, #4294967295
    2424:	2100      	movs	r1, #0
    2426:	6069      	str	r1, [r5, #4]
    2428:	4623      	mov	r3, r4
    242a:	4622      	mov	r2, r4
    242c:	4628      	mov	r0, r5
    242e:	6074      	str	r4, [r6, #4]
    2430:	61f4      	str	r4, [r6, #28]
    2432:	f7ff feed 	bl	2210 <serial_set_flow_control>
    2436:	4b22      	ldr	r3, [pc, #136]	; (24c0 <serial_init+0x188>)
    2438:	2201      	movs	r2, #1
    243a:	601a      	str	r2, [r3, #0]
    243c:	6828      	ldr	r0, [r5, #0]
    243e:	6869      	ldr	r1, [r5, #4]
    2440:	4b20      	ldr	r3, [pc, #128]	; (24c4 <serial_init+0x18c>)
    2442:	c303      	stmia	r3!, {r0, r1}
    2444:	e8bd 81f0 	ldmia.w	sp!, {r4, r5, r6, r7, r8, pc}
    2448:	f5a3 4380 	sub.w	r3, r3, #16384	; 0x4000
    244c:	4298      	cmp	r0, r3
    244e:	d199      	bne.n	2384 <serial_init+0x4c>
    2450:	4a19      	ldr	r2, [pc, #100]	; (24b8 <serial_init+0x180>)
    2452:	f8d2 30c4 	ldr.w	r3, [r2, #196]	; 0xc4
    2456:	f043 0308 	orr.w	r3, r3, #8
    245a:	f8c2 30c4 	str.w	r3, [r2, #196]	; 0xc4
    245e:	e791      	b.n	2384 <serial_init+0x4c>
    2460:	2301      	movs	r3, #1
    2462:	606b      	str	r3, [r5, #4]
    2464:	e7be      	b.n	23e4 <serial_init+0xac>
    2466:	4a14      	ldr	r2, [pc, #80]	; (24b8 <serial_init+0x180>)
    2468:	f8d2 30c4 	ldr.w	r3, [r2, #196]	; 0xc4
    246c:	f043 0310 	orr.w	r3, r3, #16
    2470:	f8c2 30c4 	str.w	r3, [r2, #196]	; 0xc4
    2474:	e786      	b.n	2384 <serial_init+0x4c>
    2476:	686e      	ldr	r6, [r5, #4]
    2478:	4b10      	ldr	r3, [pc, #64]	; (24bc <serial_init+0x184>)
    247a:	ebc6 06c6 	rsb	r6, r6, r6, lsl #3
    247e:	f04f 37ff 	mov.w	r7, #4294967295
    2482:	eb03 06c6 	add.w	r6, r3, r6, lsl #3
    2486:	463a      	mov	r2, r7
    2488:	463b      	mov	r3, r7
    248a:	2100      	movs	r1, #0
    248c:	4628      	mov	r0, r5
    248e:	6077      	str	r7, [r6, #4]
    2490:	61f7      	str	r7, [r6, #28]
    2492:	f7ff febd 	bl	2210 <serial_set_flow_control>
    2496:	4b0c      	ldr	r3, [pc, #48]	; (24c8 <serial_init+0x190>)
    2498:	429c      	cmp	r4, r3
    249a:	d0cc      	beq.n	2436 <serial_init+0xfe>
    249c:	e8bd 81f0 	ldmia.w	sp!, {r4, r5, r6, r7, r8, pc}
    24a0:	2302      	movs	r3, #2
    24a2:	606b      	str	r3, [r5, #4]
    24a4:	e79e      	b.n	23e4 <serial_init+0xac>
    24a6:	bf00      	nop
    24a8:	000083e0 	.word	0x000083e0
    24ac:	00008374 	.word	0x00008374
    24b0:	40010000 	.word	0x40010000
    24b4:	40098000 	.word	0x40098000
    24b8:	400fc000 	.word	0x400fc000
    24bc:	100005d8 	.word	0x100005d8
    24c0:	100005d0 	.word	0x100005d0
    24c4:	100007d0 	.word	0x100007d0
    24c8:	4000c000 	.word	0x4000c000

000024cc <mbed::Serial::_getc()>:
    24cc:	f000 bd4e 	b.w	2f6c <mbed::SerialBase::_base_getc()>

000024d0 <non-virtual thunk to mbed::Serial::_getc()>:
    24d0:	f1a0 0040 	sub.w	r0, r0, #64	; 0x40
    24d4:	f7ff bffa 	b.w	24cc <mbed::Serial::_getc()>

000024d8 <mbed::Serial::_putc(int)>:
    24d8:	f000 bd4c 	b.w	2f74 <mbed::SerialBase::_base_putc(int)>

000024dc <non-virtual thunk to mbed::Serial::_putc(int)>:
    24dc:	f1a0 0040 	sub.w	r0, r0, #64	; 0x40
    24e0:	f7ff bffa 	b.w	24d8 <mbed::Serial::_putc(int)>

000024e4 <mbed::Serial::Serial(PinName, PinName, char const*)>:
    24e4:	b538      	push	{r3, r4, r5, lr}
    24e6:	4604      	mov	r4, r0
    24e8:	461d      	mov	r5, r3
    24ea:	f000 fd19 	bl	2f20 <mbed::SerialBase::SerialBase(PinName, PinName)>
    24ee:	4629      	mov	r1, r5
    24f0:	f104 0040 	add.w	r0, r4, #64	; 0x40
    24f4:	f000 fb88 	bl	2c08 <mbed::Stream::Stream(char const*)>
    24f8:	4b05      	ldr	r3, [pc, #20]	; (2510 <mbed::Serial::Serial(PinName, PinName, char const*)+0x2c>)
    24fa:	4620      	mov	r0, r4
    24fc:	f103 0108 	add.w	r1, r3, #8
    2500:	f103 0220 	add.w	r2, r3, #32
    2504:	3354      	adds	r3, #84	; 0x54
    2506:	6021      	str	r1, [r4, #0]
    2508:	6422      	str	r2, [r4, #64]	; 0x40
    250a:	6463      	str	r3, [r4, #68]	; 0x44
    250c:	bd38      	pop	{r3, r4, r5, pc}
    250e:	bf00      	nop
    2510:	00008470 	.word	0x00008470

00002514 <mbed::SPI::SPI(PinName, PinName, PinName, PinName)>:
    2514:	b5f0      	push	{r4, r5, r6, r7, lr}
    2516:	4604      	mov	r4, r0
    2518:	b083      	sub	sp, #12
    251a:	4e0e      	ldr	r6, [pc, #56]	; (2554 <mbed::SPI::SPI(PinName, PinName, PinName, PinName)+0x40>)
    251c:	2708      	movs	r7, #8
    251e:	60a7      	str	r7, [r4, #8]
    2520:	480d      	ldr	r0, [pc, #52]	; (2558 <mbed::SPI::SPI(PinName, PinName, PinName, PinName)+0x44>)
    2522:	9f08      	ldr	r7, [sp, #32]
    2524:	1d25      	adds	r5, r4, #4
    2526:	6026      	str	r6, [r4, #0]
    2528:	2600      	movs	r6, #0
    252a:	6120      	str	r0, [r4, #16]
    252c:	6066      	str	r6, [r4, #4]
    252e:	4628      	mov	r0, r5
    2530:	60e6      	str	r6, [r4, #12]
    2532:	9700      	str	r7, [sp, #0]
    2534:	f7fe ff48 	bl	13c8 <spi_init>
    2538:	4633      	mov	r3, r6
    253a:	4628      	mov	r0, r5
    253c:	68e2      	ldr	r2, [r4, #12]
    253e:	68a1      	ldr	r1, [r4, #8]
    2540:	f7fe ffaa 	bl	1498 <spi_format>
    2544:	4628      	mov	r0, r5
    2546:	6921      	ldr	r1, [r4, #16]
    2548:	f7fe ffd0 	bl	14ec <spi_frequency>
    254c:	4620      	mov	r0, r4
    254e:	b003      	add	sp, #12
    2550:	bdf0      	pop	{r4, r5, r6, r7, pc}
    2552:	bf00      	nop
    2554:	000084d4 	.word	0x000084d4
    2558:	000f4240 	.word	0x000f4240

0000255c <mbed::SPI::aquire()>:
    255c:	b570      	push	{r4, r5, r6, lr}
    255e:	4d09      	ldr	r5, [pc, #36]	; (2584 <mbed::SPI::aquire()+0x28>)
    2560:	682b      	ldr	r3, [r5, #0]
    2562:	4283      	cmp	r3, r0
    2564:	d00c      	beq.n	2580 <mbed::SPI::aquire()+0x24>
    2566:	4604      	mov	r4, r0
    2568:	1d06      	adds	r6, r0, #4
    256a:	4630      	mov	r0, r6
    256c:	2300      	movs	r3, #0
    256e:	68e2      	ldr	r2, [r4, #12]
    2570:	68a1      	ldr	r1, [r4, #8]
    2572:	f7fe ff91 	bl	1498 <spi_format>
    2576:	4630      	mov	r0, r6
    2578:	6921      	ldr	r1, [r4, #16]
    257a:	f7fe ffb7 	bl	14ec <spi_frequency>
    257e:	602c      	str	r4, [r5, #0]
    2580:	bd70      	pop	{r4, r5, r6, pc}
    2582:	bf00      	nop
    2584:	100006b8 	.word	0x100006b8

00002588 <mbed::SPI::format(int, int)>:
    2588:	b410      	push	{r4}
    258a:	4c04      	ldr	r4, [pc, #16]	; (259c <mbed::SPI::format(int, int)+0x14>)
    258c:	2300      	movs	r3, #0
    258e:	6023      	str	r3, [r4, #0]
    2590:	6081      	str	r1, [r0, #8]
    2592:	60c2      	str	r2, [r0, #12]
    2594:	bc10      	pop	{r4}
    2596:	f7ff bfe1 	b.w	255c <mbed::SPI::aquire()>
    259a:	bf00      	nop
    259c:	100006b8 	.word	0x100006b8

000025a0 <mbed::SPI::frequency(int)>:
    25a0:	4b02      	ldr	r3, [pc, #8]	; (25ac <mbed::SPI::frequency(int)+0xc>)
    25a2:	2200      	movs	r2, #0
    25a4:	6101      	str	r1, [r0, #16]
    25a6:	601a      	str	r2, [r3, #0]
    25a8:	f7ff bfd8 	b.w	255c <mbed::SPI::aquire()>
    25ac:	100006b8 	.word	0x100006b8

000025b0 <mbed::SPI::write(int)>:
    25b0:	b538      	push	{r3, r4, r5, lr}
    25b2:	4604      	mov	r4, r0
    25b4:	460d      	mov	r5, r1
    25b6:	f7ff ffd1 	bl	255c <mbed::SPI::aquire()>
    25ba:	4629      	mov	r1, r5
    25bc:	1d20      	adds	r0, r4, #4
    25be:	e8bd 4038 	ldmia.w	sp!, {r3, r4, r5, lr}
    25c2:	f7fe bffb 	b.w	15bc <spi_master_write>
    25c6:	bf00      	nop

000025c8 <mbed::I2C::I2C(PinName, PinName)>:
    25c8:	b538      	push	{r3, r4, r5, lr}
    25ca:	4604      	mov	r4, r0
    25cc:	4b04      	ldr	r3, [pc, #16]	; (25e0 <mbed::I2C::I2C(PinName, PinName)+0x18>)
    25ce:	2500      	movs	r5, #0
    25d0:	6005      	str	r5, [r0, #0]
    25d2:	6043      	str	r3, [r0, #4]
    25d4:	f7ff f9ca 	bl	196c <i2c_init>
    25d8:	4b02      	ldr	r3, [pc, #8]	; (25e4 <mbed::I2C::I2C(PinName, PinName)+0x1c>)
    25da:	4620      	mov	r0, r4
    25dc:	601c      	str	r4, [r3, #0]
    25de:	bd38      	pop	{r3, r4, r5, pc}
    25e0:	000186a0 	.word	0x000186a0
    25e4:	100006bc 	.word	0x100006bc

000025e8 <mbed::I2C::write(int, char const*, int, bool)>:
    25e8:	e92d 43f0 	stmdb	sp!, {r4, r5, r6, r7, r8, r9, lr}
    25ec:	4f0e      	ldr	r7, [pc, #56]	; (2628 <mbed::I2C::write(int, char const*, int, bool)+0x40>)
    25ee:	4688      	mov	r8, r1
    25f0:	6839      	ldr	r1, [r7, #0]
    25f2:	b083      	sub	sp, #12
    25f4:	4288      	cmp	r0, r1
    25f6:	4604      	mov	r4, r0
    25f8:	4691      	mov	r9, r2
    25fa:	461e      	mov	r6, r3
    25fc:	f89d 5028 	ldrb.w	r5, [sp, #40]	; 0x28
    2600:	d003      	beq.n	260a <mbed::I2C::write(int, char const*, int, bool)+0x22>
    2602:	6841      	ldr	r1, [r0, #4]
    2604:	f7ff fa0c 	bl	1a20 <i2c_frequency>
    2608:	603c      	str	r4, [r7, #0]
    260a:	f085 0501 	eor.w	r5, r5, #1
    260e:	9500      	str	r5, [sp, #0]
    2610:	464a      	mov	r2, r9
    2612:	4641      	mov	r1, r8
    2614:	4620      	mov	r0, r4
    2616:	4633      	mov	r3, r6
    2618:	f7ff fab4 	bl	1b84 <i2c_write>
    261c:	1a30      	subs	r0, r6, r0
    261e:	bf18      	it	ne
    2620:	2001      	movne	r0, #1
    2622:	b003      	add	sp, #12
    2624:	e8bd 83f0 	ldmia.w	sp!, {r4, r5, r6, r7, r8, r9, pc}
    2628:	100006bc 	.word	0x100006bc

0000262c <mbed::I2C::read(int, char*, int, bool)>:
    262c:	e92d 43f0 	stmdb	sp!, {r4, r5, r6, r7, r8, r9, lr}
    2630:	4f0e      	ldr	r7, [pc, #56]	; (266c <mbed::I2C::read(int, char*, int, bool)+0x40>)
    2632:	4688      	mov	r8, r1
    2634:	6839      	ldr	r1, [r7, #0]
    2636:	b083      	sub	sp, #12
    2638:	4288      	cmp	r0, r1
    263a:	4604      	mov	r4, r0
    263c:	4691      	mov	r9, r2
    263e:	461e      	mov	r6, r3
    2640:	f89d 5028 	ldrb.w	r5, [sp, #40]	; 0x28
    2644:	d003      	beq.n	264e <mbed::I2C::read(int, char*, int, bool)+0x22>
    2646:	6841      	ldr	r1, [r0, #4]
    2648:	f7ff f9ea 	bl	1a20 <i2c_frequency>
    264c:	603c      	str	r4, [r7, #0]
    264e:	f085 0501 	eor.w	r5, r5, #1
    2652:	9500      	str	r5, [sp, #0]
    2654:	464a      	mov	r2, r9
    2656:	4641      	mov	r1, r8
    2658:	4620      	mov	r0, r4
    265a:	4633      	mov	r3, r6
    265c:	f7ff f9ec 	bl	1a38 <i2c_read>
    2660:	1a30      	subs	r0, r6, r0
    2662:	bf18      	it	ne
    2664:	2001      	movne	r0, #1
    2666:	b003      	add	sp, #12
    2668:	e8bd 83f0 	ldmia.w	sp!, {r4, r5, r6, r7, r8, r9, pc}
    266c:	100006bc 	.word	0x100006bc

00002670 <mbed::FileHandle::flen()>:
    2670:	6803      	ldr	r3, [r0, #0]
    2672:	b570      	push	{r4, r5, r6, lr}
    2674:	2201      	movs	r2, #1
    2676:	691b      	ldr	r3, [r3, #16]
    2678:	2100      	movs	r1, #0
    267a:	4604      	mov	r4, r0
    267c:	4798      	blx	r3
    267e:	4606      	mov	r6, r0
    2680:	3001      	adds	r0, #1
    2682:	d00e      	beq.n	26a2 <mbed::FileHandle::flen()+0x32>
    2684:	6823      	ldr	r3, [r4, #0]
    2686:	2202      	movs	r2, #2
    2688:	691b      	ldr	r3, [r3, #16]
    268a:	2100      	movs	r1, #0
    268c:	4620      	mov	r0, r4
    268e:	4798      	blx	r3
    2690:	6823      	ldr	r3, [r4, #0]
    2692:	4605      	mov	r5, r0
    2694:	4631      	mov	r1, r6
    2696:	691b      	ldr	r3, [r3, #16]
    2698:	4620      	mov	r0, r4
    269a:	2200      	movs	r2, #0
    269c:	4798      	blx	r3
    269e:	4628      	mov	r0, r5
    26a0:	bd70      	pop	{r4, r5, r6, pc}
    26a2:	4630      	mov	r0, r6
    26a4:	bd70      	pop	{r4, r5, r6, pc}
    26a6:	bf00      	nop

000026a8 <mbed::FileSystemLike::remove(char const*)>:
    26a8:	f04f 30ff 	mov.w	r0, #4294967295
    26ac:	4770      	bx	lr
    26ae:	bf00      	nop

000026b0 <mbed::FileSystemLike::rename(char const*, char const*)>:
    26b0:	f04f 30ff 	mov.w	r0, #4294967295
    26b4:	4770      	bx	lr
    26b6:	bf00      	nop

000026b8 <mbed::FileSystemLike::opendir(char const*)>:
    26b8:	2000      	movs	r0, #0
    26ba:	4770      	bx	lr

000026bc <mbed::FileSystemLike::mkdir(char const*, unsigned int)>:
    26bc:	f04f 30ff 	mov.w	r0, #4294967295
    26c0:	4770      	bx	lr
    26c2:	bf00      	nop

000026c4 <init_serial() [clone .part.0]>:
    26c4:	4a02      	ldr	r2, [pc, #8]	; (26d0 <init_serial() [clone .part.0]+0xc>)
    26c6:	4903      	ldr	r1, [pc, #12]	; (26d4 <init_serial() [clone .part.0]+0x10>)
    26c8:	4803      	ldr	r0, [pc, #12]	; (26d8 <init_serial() [clone .part.0]+0x14>)
    26ca:	f7ff be35 	b.w	2338 <serial_init>
    26ce:	bf00      	nop
    26d0:	2009c003 	.word	0x2009c003
    26d4:	2009c002 	.word	0x2009c002
    26d8:	100007d0 	.word	0x100007d0

000026dc <mbed::FileHandle::~FileHandle()>:
    26dc:	4a07      	ldr	r2, [pc, #28]	; (26fc <mbed::FileHandle::~FileHandle()+0x20>)
    26de:	4b08      	ldr	r3, [pc, #32]	; (2700 <mbed::FileHandle::~FileHandle()+0x24>)
    26e0:	b410      	push	{r4}
    26e2:	6002      	str	r2, [r0, #0]
    26e4:	f503 7180 	add.w	r1, r3, #256	; 0x100
    26e8:	2400      	movs	r4, #0
    26ea:	f853 2f04 	ldr.w	r2, [r3, #4]!
    26ee:	4290      	cmp	r0, r2
    26f0:	bf08      	it	eq
    26f2:	601c      	streq	r4, [r3, #0]
    26f4:	428b      	cmp	r3, r1
    26f6:	d1f8      	bne.n	26ea <mbed::FileHandle::~FileHandle()+0xe>
    26f8:	bc10      	pop	{r4}
    26fa:	4770      	bx	lr
    26fc:	00008500 	.word	0x00008500
    2700:	100006bc 	.word	0x100006bc

00002704 <_open>:
    2704:	b5f0      	push	{r4, r5, r6, r7, lr}
    2706:	460e      	mov	r6, r1
    2708:	b085      	sub	sp, #20
    270a:	4937      	ldr	r1, [pc, #220]	; (27e8 <_open+0xe4>)
    270c:	4605      	mov	r5, r0
    270e:	f003 fab4 	bl	5c7a <strcmp>
    2712:	b928      	cbnz	r0, 2720 <_open+0x1c>
    2714:	4b35      	ldr	r3, [pc, #212]	; (27ec <_open+0xe8>)
    2716:	681b      	ldr	r3, [r3, #0]
    2718:	2b00      	cmp	r3, #0
    271a:	d043      	beq.n	27a4 <_open+0xa0>
    271c:	b005      	add	sp, #20
    271e:	bdf0      	pop	{r4, r5, r6, r7, pc}
    2720:	4933      	ldr	r1, [pc, #204]	; (27f0 <_open+0xec>)
    2722:	4628      	mov	r0, r5
    2724:	f003 faa9 	bl	5c7a <strcmp>
    2728:	b930      	cbnz	r0, 2738 <_open+0x34>
    272a:	4b30      	ldr	r3, [pc, #192]	; (27ec <_open+0xe8>)
    272c:	681b      	ldr	r3, [r3, #0]
    272e:	2b00      	cmp	r3, #0
    2730:	d043      	beq.n	27ba <_open+0xb6>
    2732:	2001      	movs	r0, #1
    2734:	b005      	add	sp, #20
    2736:	bdf0      	pop	{r4, r5, r6, r7, pc}
    2738:	492e      	ldr	r1, [pc, #184]	; (27f4 <_open+0xf0>)
    273a:	4628      	mov	r0, r5
    273c:	f003 fa9d 	bl	5c7a <strcmp>
    2740:	2800      	cmp	r0, #0
    2742:	d035      	beq.n	27b0 <_open+0xac>
    2744:	4b2c      	ldr	r3, [pc, #176]	; (27f8 <_open+0xf4>)
    2746:	2400      	movs	r4, #0
    2748:	e002      	b.n	2750 <_open+0x4c>
    274a:	3401      	adds	r4, #1
    274c:	2c40      	cmp	r4, #64	; 0x40
    274e:	d03d      	beq.n	27cc <_open+0xc8>
    2750:	f853 2f04 	ldr.w	r2, [r3, #4]!
    2754:	2a00      	cmp	r2, #0
    2756:	d1f8      	bne.n	274a <_open+0x46>
    2758:	782b      	ldrb	r3, [r5, #0]
    275a:	2b3a      	cmp	r3, #58	; 0x3a
    275c:	d03d      	beq.n	27da <_open+0xd6>
    275e:	4629      	mov	r1, r5
    2760:	a802      	add	r0, sp, #8
    2762:	f000 f91f 	bl	29a4 <mbed::FilePath::FilePath(char const*)>
    2766:	a802      	add	r0, sp, #8
    2768:	f000 f972 	bl	2a50 <mbed::FilePath::exists()>
    276c:	b370      	cbz	r0, 27cc <_open+0xc8>
    276e:	a802      	add	r0, sp, #8
    2770:	f000 f954 	bl	2a1c <mbed::FilePath::isFile()>
    2774:	bb28      	cbnz	r0, 27c2 <_open+0xbe>
    2776:	a802      	add	r0, sp, #8
    2778:	f000 f940 	bl	29fc <mbed::FilePath::fileSystem()>
    277c:	4605      	mov	r5, r0
    277e:	b328      	cbz	r0, 27cc <_open+0xc8>
    2780:	6803      	ldr	r3, [r0, #0]
    2782:	a802      	add	r0, sp, #8
    2784:	689f      	ldr	r7, [r3, #8]
    2786:	f000 f937 	bl	29f8 <mbed::FilePath::fileName()>
    278a:	f426 3280 	bic.w	r2, r6, #65536	; 0x10000
    278e:	4601      	mov	r1, r0
    2790:	4628      	mov	r0, r5
    2792:	47b8      	blx	r7
    2794:	4603      	mov	r3, r0
    2796:	b1cb      	cbz	r3, 27cc <_open+0xc8>
    2798:	4a18      	ldr	r2, [pc, #96]	; (27fc <_open+0xf8>)
    279a:	1ce0      	adds	r0, r4, #3
    279c:	f842 3024 	str.w	r3, [r2, r4, lsl #2]
    27a0:	b005      	add	sp, #20
    27a2:	bdf0      	pop	{r4, r5, r6, r7, pc}
    27a4:	9001      	str	r0, [sp, #4]
    27a6:	f7ff ff8d 	bl	26c4 <init_serial() [clone .part.0]>
    27aa:	9801      	ldr	r0, [sp, #4]
    27ac:	b005      	add	sp, #20
    27ae:	bdf0      	pop	{r4, r5, r6, r7, pc}
    27b0:	4b0e      	ldr	r3, [pc, #56]	; (27ec <_open+0xe8>)
    27b2:	681b      	ldr	r3, [r3, #0]
    27b4:	b16b      	cbz	r3, 27d2 <_open+0xce>
    27b6:	2002      	movs	r0, #2
    27b8:	e7b0      	b.n	271c <_open+0x18>
    27ba:	f7ff ff83 	bl	26c4 <init_serial() [clone .part.0]>
    27be:	2001      	movs	r0, #1
    27c0:	e7ac      	b.n	271c <_open+0x18>
    27c2:	a802      	add	r0, sp, #8
    27c4:	f000 f934 	bl	2a30 <mbed::FilePath::file()>
    27c8:	4603      	mov	r3, r0
    27ca:	e7e4      	b.n	2796 <_open+0x92>
    27cc:	f04f 30ff 	mov.w	r0, #4294967295
    27d0:	e7a4      	b.n	271c <_open+0x18>
    27d2:	f7ff ff77 	bl	26c4 <init_serial() [clone .part.0]>
    27d6:	2002      	movs	r0, #2
    27d8:	e7a0      	b.n	271c <_open+0x18>
    27da:	4628      	mov	r0, r5
    27dc:	aa02      	add	r2, sp, #8
    27de:	4908      	ldr	r1, [pc, #32]	; (2800 <_open+0xfc>)
    27e0:	f003 f9dc 	bl	5b9c <siscanf>
    27e4:	9b02      	ldr	r3, [sp, #8]
    27e6:	e7d6      	b.n	2796 <_open+0x92>
    27e8:	000084e0 	.word	0x000084e0
    27ec:	100005d0 	.word	0x100005d0
    27f0:	000084f0 	.word	0x000084f0
    27f4:	000084e8 	.word	0x000084e8
    27f8:	100006bc 	.word	0x100006bc
    27fc:	100006c0 	.word	0x100006c0
    2800:	00008524 	.word	0x00008524

00002804 <_close>:
    2804:	2802      	cmp	r0, #2
    2806:	dd0a      	ble.n	281e <_close+0x1a>
    2808:	4a07      	ldr	r2, [pc, #28]	; (2828 <_close+0x24>)
    280a:	1ec3      	subs	r3, r0, #3
    280c:	f852 0023 	ldr.w	r0, [r2, r3, lsl #2]
    2810:	2100      	movs	r1, #0
    2812:	f842 1023 	str.w	r1, [r2, r3, lsl #2]
    2816:	b120      	cbz	r0, 2822 <_close+0x1e>
    2818:	6803      	ldr	r3, [r0, #0]
    281a:	685b      	ldr	r3, [r3, #4]
    281c:	4718      	bx	r3
    281e:	2000      	movs	r0, #0
    2820:	4770      	bx	lr
    2822:	f04f 30ff 	mov.w	r0, #4294967295
    2826:	4770      	bx	lr
    2828:	100006c0 	.word	0x100006c0

0000282c <_write>:
    282c:	2802      	cmp	r0, #2
    282e:	dc12      	bgt.n	2856 <_write+0x2a>
    2830:	4b0e      	ldr	r3, [pc, #56]	; (286c <_write+0x40>)
    2832:	b570      	push	{r4, r5, r6, lr}
    2834:	681b      	ldr	r3, [r3, #0]
    2836:	460c      	mov	r4, r1
    2838:	4616      	mov	r6, r2
    283a:	b90b      	cbnz	r3, 2840 <_write+0x14>
    283c:	f7ff ff42 	bl	26c4 <init_serial() [clone .part.0]>
    2840:	19a5      	adds	r5, r4, r6
    2842:	b136      	cbz	r6, 2852 <_write+0x26>
    2844:	f814 1b01 	ldrb.w	r1, [r4], #1
    2848:	4809      	ldr	r0, [pc, #36]	; (2870 <_write+0x44>)
    284a:	f7ff fcc7 	bl	21dc <serial_putc>
    284e:	42ac      	cmp	r4, r5
    2850:	d1f8      	bne.n	2844 <_write+0x18>
    2852:	4630      	mov	r0, r6
    2854:	bd70      	pop	{r4, r5, r6, pc}
    2856:	4b07      	ldr	r3, [pc, #28]	; (2874 <_write+0x48>)
    2858:	3803      	subs	r0, #3
    285a:	f853 0020 	ldr.w	r0, [r3, r0, lsl #2]
    285e:	b110      	cbz	r0, 2866 <_write+0x3a>
    2860:	6803      	ldr	r3, [r0, #0]
    2862:	681b      	ldr	r3, [r3, #0]
    2864:	4718      	bx	r3
    2866:	f04f 30ff 	mov.w	r0, #4294967295
    286a:	4770      	bx	lr
    286c:	100005d0 	.word	0x100005d0
    2870:	100007d0 	.word	0x100007d0
    2874:	100006c0 	.word	0x100006c0

00002878 <_read>:
    2878:	2802      	cmp	r0, #2
    287a:	dc0d      	bgt.n	2898 <_read+0x20>
    287c:	4b0c      	ldr	r3, [pc, #48]	; (28b0 <_read+0x38>)
    287e:	b510      	push	{r4, lr}
    2880:	681b      	ldr	r3, [r3, #0]
    2882:	460c      	mov	r4, r1
    2884:	b90b      	cbnz	r3, 288a <_read+0x12>
    2886:	f7ff ff1d 	bl	26c4 <init_serial() [clone .part.0]>
    288a:	480a      	ldr	r0, [pc, #40]	; (28b4 <_read+0x3c>)
    288c:	f7ff fc5e 	bl	214c <serial_getc>
    2890:	2301      	movs	r3, #1
    2892:	7020      	strb	r0, [r4, #0]
    2894:	4618      	mov	r0, r3
    2896:	bd10      	pop	{r4, pc}
    2898:	4b07      	ldr	r3, [pc, #28]	; (28b8 <_read+0x40>)
    289a:	3803      	subs	r0, #3
    289c:	f853 0020 	ldr.w	r0, [r3, r0, lsl #2]
    28a0:	b110      	cbz	r0, 28a8 <_read+0x30>
    28a2:	6803      	ldr	r3, [r0, #0]
    28a4:	689b      	ldr	r3, [r3, #8]
    28a6:	4718      	bx	r3
    28a8:	f04f 33ff 	mov.w	r3, #4294967295
    28ac:	4618      	mov	r0, r3
    28ae:	4770      	bx	lr
    28b0:	100005d0 	.word	0x100005d0
    28b4:	100007d0 	.word	0x100007d0
    28b8:	100006c0 	.word	0x100006c0

000028bc <_isatty>:
    28bc:	2802      	cmp	r0, #2
    28be:	dd07      	ble.n	28d0 <_isatty+0x14>
    28c0:	4b06      	ldr	r3, [pc, #24]	; (28dc <_isatty+0x20>)
    28c2:	3803      	subs	r0, #3
    28c4:	f853 0020 	ldr.w	r0, [r3, r0, lsl #2]
    28c8:	b120      	cbz	r0, 28d4 <_isatty+0x18>
    28ca:	6803      	ldr	r3, [r0, #0]
    28cc:	68db      	ldr	r3, [r3, #12]
    28ce:	4718      	bx	r3
    28d0:	2001      	movs	r0, #1
    28d2:	4770      	bx	lr
    28d4:	f04f 30ff 	mov.w	r0, #4294967295
    28d8:	4770      	bx	lr
    28da:	bf00      	nop
    28dc:	100006c0 	.word	0x100006c0

000028e0 <_lseek>:
    28e0:	2802      	cmp	r0, #2
    28e2:	dd07      	ble.n	28f4 <_lseek+0x14>
    28e4:	4b06      	ldr	r3, [pc, #24]	; (2900 <_lseek+0x20>)
    28e6:	3803      	subs	r0, #3
    28e8:	f853 0020 	ldr.w	r0, [r3, r0, lsl #2]
    28ec:	b120      	cbz	r0, 28f8 <_lseek+0x18>
    28ee:	6803      	ldr	r3, [r0, #0]
    28f0:	691b      	ldr	r3, [r3, #16]
    28f2:	4718      	bx	r3
    28f4:	2000      	movs	r0, #0
    28f6:	4770      	bx	lr
    28f8:	f04f 30ff 	mov.w	r0, #4294967295
    28fc:	4770      	bx	lr
    28fe:	bf00      	nop
    2900:	100006c0 	.word	0x100006c0

00002904 <_fstat>:
    2904:	2802      	cmp	r0, #2
    2906:	b508      	push	{r3, lr}
    2908:	d804      	bhi.n	2914 <_fstat+0x10>
    290a:	f44f 5300 	mov.w	r3, #8192	; 0x2000
    290e:	604b      	str	r3, [r1, #4]
    2910:	2000      	movs	r0, #0
    2912:	bd08      	pop	{r3, pc}
    2914:	f001 fb7a 	bl	400c <__errno>
    2918:	2309      	movs	r3, #9
    291a:	6003      	str	r3, [r0, #0]
    291c:	f04f 30ff 	mov.w	r0, #4294967295
    2920:	bd08      	pop	{r3, pc}
    2922:	bf00      	nop

00002924 <mbed_main>:
    2924:	4770      	bx	lr
    2926:	bf00      	nop

00002928 <mbed_sdk_init>:
    2928:	4770      	bx	lr
    292a:	bf00      	nop

0000292c <__wrap_main>:
    292c:	b508      	push	{r3, lr}
    292e:	f7ff fffb 	bl	2928 <mbed_sdk_init>
    2932:	f7ff fff7 	bl	2924 <mbed_main>
    2936:	e8bd 4008 	ldmia.w	sp!, {r3, lr}
    293a:	f7fe b843 	b.w	9c4 <main>
    293e:	bf00      	nop

00002940 <_sbrk>:
    2940:	4a07      	ldr	r2, [pc, #28]	; (2960 <_sbrk+0x20>)
    2942:	6813      	ldr	r3, [r2, #0]
    2944:	1819      	adds	r1, r3, r0
    2946:	f3ef 8008 	mrs	r0, MSP
    294a:	4281      	cmp	r1, r0
    294c:	d202      	bcs.n	2954 <_sbrk+0x14>
    294e:	4618      	mov	r0, r3
    2950:	6011      	str	r1, [r2, #0]
    2952:	4770      	bx	lr
    2954:	4b03      	ldr	r3, [pc, #12]	; (2964 <_sbrk+0x24>)
    2956:	220c      	movs	r2, #12
    2958:	601a      	str	r2, [r3, #0]
    295a:	f04f 30ff 	mov.w	r0, #4294967295
    295e:	4770      	bx	lr
    2960:	100000d0 	.word	0x100000d0
    2964:	100007d8 	.word	0x100007d8

00002968 <_exit>:
    2968:	4c0b      	ldr	r4, [pc, #44]	; (2998 <_exit+0x30>)
    296a:	b508      	push	{r3, lr}
    296c:	6823      	ldr	r3, [r4, #0]
    296e:	4605      	mov	r5, r0
    2970:	6898      	ldr	r0, [r3, #8]
    2972:	f001 fc6f 	bl	4254 <fflush>
    2976:	6823      	ldr	r3, [r4, #0]
    2978:	68d8      	ldr	r0, [r3, #12]
    297a:	f001 fc6b 	bl	4254 <fflush>
    297e:	f7fe fb9d 	bl	10bc <mbed_interface_connected>
    2982:	b920      	cbnz	r0, 298e <_exit+0x26>
    2984:	b905      	cbnz	r5, 2988 <_exit+0x20>
    2986:	e7fe      	b.n	2986 <_exit+0x1e>
    2988:	f7fe fc08 	bl	119c <mbed_die>
    298c:	e7fb      	b.n	2986 <_exit+0x1e>
    298e:	f7fe fb47 	bl	1020 <semihost_exit>
    2992:	2d00      	cmp	r5, #0
    2994:	d0f7      	beq.n	2986 <_exit+0x1e>
    2996:	e7f7      	b.n	2988 <_exit+0x20>
    2998:	10000134 	.word	0x10000134

0000299c <mbed::mbed_set_unbuffered_stream(__sFILE*)>:
    299c:	2100      	movs	r1, #0
    299e:	f003 b849 	b.w	5a34 <setbuf>
    29a2:	bf00      	nop

000029a4 <mbed::FilePath::FilePath(char const*)>:
    29a4:	b538      	push	{r3, r4, r5, lr}
    29a6:	2300      	movs	r3, #0
    29a8:	6003      	str	r3, [r0, #0]
    29aa:	6043      	str	r3, [r0, #4]
    29ac:	780a      	ldrb	r2, [r1, #0]
    29ae:	4604      	mov	r4, r0
    29b0:	2a2f      	cmp	r2, #47	; 0x2f
    29b2:	d001      	beq.n	29b8 <mbed::FilePath::FilePath(char const*)+0x14>
    29b4:	4620      	mov	r0, r4
    29b6:	bd38      	pop	{r3, r4, r5, pc}
    29b8:	784a      	ldrb	r2, [r1, #1]
    29ba:	2a00      	cmp	r2, #0
    29bc:	d0fa      	beq.n	29b4 <mbed::FilePath::FilePath(char const*)+0x10>
    29be:	1c48      	adds	r0, r1, #1
    29c0:	6020      	str	r0, [r4, #0]
    29c2:	784d      	ldrb	r5, [r1, #1]
    29c4:	2d2f      	cmp	r5, #47	; 0x2f
    29c6:	d013      	beq.n	29f0 <mbed::FilePath::FilePath(char const*)+0x4c>
    29c8:	b185      	cbz	r5, 29ec <mbed::FilePath::FilePath(char const*)+0x48>
    29ca:	4603      	mov	r3, r0
    29cc:	e000      	b.n	29d0 <mbed::FilePath::FilePath(char const*)+0x2c>
    29ce:	b16a      	cbz	r2, 29ec <mbed::FilePath::FilePath(char const*)+0x48>
    29d0:	1a5d      	subs	r5, r3, r1
    29d2:	3301      	adds	r3, #1
    29d4:	6023      	str	r3, [r4, #0]
    29d6:	781a      	ldrb	r2, [r3, #0]
    29d8:	2a2f      	cmp	r2, #47	; 0x2f
    29da:	d1f8      	bne.n	29ce <mbed::FilePath::FilePath(char const*)+0x2a>
    29dc:	4629      	mov	r1, r5
    29de:	3301      	adds	r3, #1
    29e0:	6023      	str	r3, [r4, #0]
    29e2:	f000 f8c3 	bl	2b6c <mbed::FileBase::lookup(char const*, unsigned int)>
    29e6:	6060      	str	r0, [r4, #4]
    29e8:	4620      	mov	r0, r4
    29ea:	bd38      	pop	{r3, r4, r5, pc}
    29ec:	4629      	mov	r1, r5
    29ee:	e7f8      	b.n	29e2 <mbed::FilePath::FilePath(char const*)+0x3e>
    29f0:	4619      	mov	r1, r3
    29f2:	4603      	mov	r3, r0
    29f4:	e7f3      	b.n	29de <mbed::FilePath::FilePath(char const*)+0x3a>
    29f6:	bf00      	nop

000029f8 <mbed::FilePath::fileName()>:
    29f8:	6800      	ldr	r0, [r0, #0]
    29fa:	4770      	bx	lr

000029fc <mbed::FilePath::fileSystem()>:
    29fc:	6843      	ldr	r3, [r0, #4]
    29fe:	b143      	cbz	r3, 2a12 <mbed::FilePath::fileSystem()+0x16>
    2a00:	b510      	push	{r4, lr}
    2a02:	4604      	mov	r4, r0
    2a04:	4618      	mov	r0, r3
    2a06:	f000 f8cb 	bl	2ba0 <mbed::FileBase::getPathType()>
    2a0a:	2801      	cmp	r0, #1
    2a0c:	d103      	bne.n	2a16 <mbed::FilePath::fileSystem()+0x1a>
    2a0e:	6860      	ldr	r0, [r4, #4]
    2a10:	bd10      	pop	{r4, pc}
    2a12:	2000      	movs	r0, #0
    2a14:	4770      	bx	lr
    2a16:	2000      	movs	r0, #0
    2a18:	bd10      	pop	{r4, pc}
    2a1a:	bf00      	nop

00002a1c <mbed::FilePath::isFile()>:
    2a1c:	6840      	ldr	r0, [r0, #4]
    2a1e:	b130      	cbz	r0, 2a2e <mbed::FilePath::isFile()+0x12>
    2a20:	b508      	push	{r3, lr}
    2a22:	f000 f8bd 	bl	2ba0 <mbed::FileBase::getPathType()>
    2a26:	fab0 f080 	clz	r0, r0
    2a2a:	0940      	lsrs	r0, r0, #5
    2a2c:	bd08      	pop	{r3, pc}
    2a2e:	4770      	bx	lr

00002a30 <mbed::FilePath::file()>:
    2a30:	6843      	ldr	r3, [r0, #4]
    2a32:	b14b      	cbz	r3, 2a48 <mbed::FilePath::file()+0x18>
    2a34:	b510      	push	{r4, lr}
    2a36:	4604      	mov	r4, r0
    2a38:	4618      	mov	r0, r3
    2a3a:	f000 f8b1 	bl	2ba0 <mbed::FileBase::getPathType()>
    2a3e:	b928      	cbnz	r0, 2a4c <mbed::FilePath::file()+0x1c>
    2a40:	6860      	ldr	r0, [r4, #4]
    2a42:	b118      	cbz	r0, 2a4c <mbed::FilePath::file()+0x1c>
    2a44:	3804      	subs	r0, #4
    2a46:	bd10      	pop	{r4, pc}
    2a48:	2000      	movs	r0, #0
    2a4a:	4770      	bx	lr
    2a4c:	2000      	movs	r0, #0
    2a4e:	bd10      	pop	{r4, pc}

00002a50 <mbed::FilePath::exists()>:
    2a50:	6840      	ldr	r0, [r0, #4]
    2a52:	3000      	adds	r0, #0
    2a54:	bf18      	it	ne
    2a56:	2001      	movne	r0, #1
    2a58:	4770      	bx	lr
    2a5a:	bf00      	nop

00002a5c <mbed::Timer::slicetime() [clone .part.0]>:
    2a5c:	b510      	push	{r4, lr}
    2a5e:	4604      	mov	r4, r0
    2a60:	68c0      	ldr	r0, [r0, #12]
    2a62:	f7fe fb97 	bl	1194 <ticker_read>
    2a66:	6863      	ldr	r3, [r4, #4]
    2a68:	1ac0      	subs	r0, r0, r3
    2a6a:	bd10      	pop	{r4, pc}

00002a6c <mbed::Timer::Timer()>:
    2a6c:	b538      	push	{r3, r4, r5, lr}
    2a6e:	2500      	movs	r5, #0
    2a70:	6005      	str	r5, [r0, #0]
    2a72:	6045      	str	r5, [r0, #4]
    2a74:	6085      	str	r5, [r0, #8]
    2a76:	4604      	mov	r4, r0
    2a78:	f7fe fb16 	bl	10a8 <get_us_ticker_data>
    2a7c:	60e0      	str	r0, [r4, #12]
    2a7e:	f7fe fb89 	bl	1194 <ticker_read>
    2a82:	60a5      	str	r5, [r4, #8]
    2a84:	6060      	str	r0, [r4, #4]
    2a86:	4620      	mov	r0, r4
    2a88:	bd38      	pop	{r3, r4, r5, pc}
    2a8a:	bf00      	nop

00002a8c <mbed::Timer::start()>:
    2a8c:	6803      	ldr	r3, [r0, #0]
    2a8e:	b103      	cbz	r3, 2a92 <mbed::Timer::start()+0x6>
    2a90:	4770      	bx	lr
    2a92:	b510      	push	{r4, lr}
    2a94:	4604      	mov	r4, r0
    2a96:	68c0      	ldr	r0, [r0, #12]
    2a98:	f7fe fb7c 	bl	1194 <ticker_read>
    2a9c:	2301      	movs	r3, #1
    2a9e:	6060      	str	r0, [r4, #4]
    2aa0:	6023      	str	r3, [r4, #0]
    2aa2:	bd10      	pop	{r4, pc}

00002aa4 <mbed::Timer::read_ms()>:
    2aa4:	6803      	ldr	r3, [r0, #0]
    2aa6:	b510      	push	{r4, lr}
    2aa8:	6884      	ldr	r4, [r0, #8]
    2aaa:	b113      	cbz	r3, 2ab2 <mbed::Timer::read_ms()+0xe>
    2aac:	f7ff ffd6 	bl	2a5c <mbed::Timer::slicetime() [clone .part.0]>
    2ab0:	4603      	mov	r3, r0
    2ab2:	4804      	ldr	r0, [pc, #16]	; (2ac4 <mbed::Timer::read_ms()+0x20>)
    2ab4:	4423      	add	r3, r4
    2ab6:	fb80 2003 	smull	r2, r0, r0, r3
    2aba:	17db      	asrs	r3, r3, #31
    2abc:	ebc3 10a0 	rsb	r0, r3, r0, asr #6
    2ac0:	bd10      	pop	{r4, pc}
    2ac2:	bf00      	nop
    2ac4:	10624dd3 	.word	0x10624dd3

00002ac8 <mbed::Timer::reset()>:
    2ac8:	b510      	push	{r4, lr}
    2aca:	4604      	mov	r4, r0
    2acc:	68c0      	ldr	r0, [r0, #12]
    2ace:	f7fe fb61 	bl	1194 <ticker_read>
    2ad2:	2300      	movs	r3, #0
    2ad4:	6060      	str	r0, [r4, #4]
    2ad6:	60a3      	str	r3, [r4, #8]
    2ad8:	bd10      	pop	{r4, pc}
    2ada:	bf00      	nop

00002adc <mbed::FileBase::~FileBase()>:
    2adc:	4a09      	ldr	r2, [pc, #36]	; (2b04 <mbed::FileBase::~FileBase()+0x28>)
    2ade:	6883      	ldr	r3, [r0, #8]
    2ae0:	6002      	str	r2, [r0, #0]
    2ae2:	b153      	cbz	r3, 2afa <mbed::FileBase::~FileBase()+0x1e>
    2ae4:	4b08      	ldr	r3, [pc, #32]	; (2b08 <mbed::FileBase::~FileBase()+0x2c>)
    2ae6:	681a      	ldr	r2, [r3, #0]
    2ae8:	4290      	cmp	r0, r2
    2aea:	d101      	bne.n	2af0 <mbed::FileBase::~FileBase()+0x14>
    2aec:	e006      	b.n	2afc <mbed::FileBase::~FileBase()+0x20>
    2aee:	461a      	mov	r2, r3
    2af0:	6853      	ldr	r3, [r2, #4]
    2af2:	4298      	cmp	r0, r3
    2af4:	d1fb      	bne.n	2aee <mbed::FileBase::~FileBase()+0x12>
    2af6:	6843      	ldr	r3, [r0, #4]
    2af8:	6053      	str	r3, [r2, #4]
    2afa:	4770      	bx	lr
    2afc:	6842      	ldr	r2, [r0, #4]
    2afe:	601a      	str	r2, [r3, #0]
    2b00:	4770      	bx	lr
    2b02:	bf00      	nop
    2b04:	0000853c 	.word	0x0000853c
    2b08:	100007c0 	.word	0x100007c0

00002b0c <mbed::FileBase::~FileBase()>:
    2b0c:	4a0c      	ldr	r2, [pc, #48]	; (2b40 <mbed::FileBase::~FileBase()+0x34>)
    2b0e:	6883      	ldr	r3, [r0, #8]
    2b10:	b510      	push	{r4, lr}
    2b12:	4604      	mov	r4, r0
    2b14:	6002      	str	r2, [r0, #0]
    2b16:	b153      	cbz	r3, 2b2e <mbed::FileBase::~FileBase()+0x22>
    2b18:	4b0a      	ldr	r3, [pc, #40]	; (2b44 <mbed::FileBase::~FileBase()+0x38>)
    2b1a:	681a      	ldr	r2, [r3, #0]
    2b1c:	4290      	cmp	r0, r2
    2b1e:	d101      	bne.n	2b24 <mbed::FileBase::~FileBase()+0x18>
    2b20:	e00a      	b.n	2b38 <mbed::FileBase::~FileBase()+0x2c>
    2b22:	461a      	mov	r2, r3
    2b24:	6853      	ldr	r3, [r2, #4]
    2b26:	429c      	cmp	r4, r3
    2b28:	d1fb      	bne.n	2b22 <mbed::FileBase::~FileBase()+0x16>
    2b2a:	6863      	ldr	r3, [r4, #4]
    2b2c:	6053      	str	r3, [r2, #4]
    2b2e:	4620      	mov	r0, r4
    2b30:	f000 fb7d 	bl	322e <operator delete(void*)>
    2b34:	4620      	mov	r0, r4
    2b36:	bd10      	pop	{r4, pc}
    2b38:	6842      	ldr	r2, [r0, #4]
    2b3a:	601a      	str	r2, [r3, #0]
    2b3c:	e7f7      	b.n	2b2e <mbed::FileBase::~FileBase()+0x22>
    2b3e:	bf00      	nop
    2b40:	0000853c 	.word	0x0000853c
    2b44:	100007c0 	.word	0x100007c0

00002b48 <mbed::FileBase::FileBase(char const*, mbed::PathType)>:
    2b48:	b410      	push	{r4}
    2b4a:	4c06      	ldr	r4, [pc, #24]	; (2b64 <mbed::FileBase::FileBase(char const*, mbed::PathType)+0x1c>)
    2b4c:	2300      	movs	r3, #0
    2b4e:	7302      	strb	r2, [r0, #12]
    2b50:	6081      	str	r1, [r0, #8]
    2b52:	6004      	str	r4, [r0, #0]
    2b54:	6043      	str	r3, [r0, #4]
    2b56:	b119      	cbz	r1, 2b60 <mbed::FileBase::FileBase(char const*, mbed::PathType)+0x18>
    2b58:	4b03      	ldr	r3, [pc, #12]	; (2b68 <mbed::FileBase::FileBase(char const*, mbed::PathType)+0x20>)
    2b5a:	681a      	ldr	r2, [r3, #0]
    2b5c:	6018      	str	r0, [r3, #0]
    2b5e:	6042      	str	r2, [r0, #4]
    2b60:	bc10      	pop	{r4}
    2b62:	4770      	bx	lr
    2b64:	0000853c 	.word	0x0000853c
    2b68:	100007c0 	.word	0x100007c0

00002b6c <mbed::FileBase::lookup(char const*, unsigned int)>:
    2b6c:	b5f8      	push	{r3, r4, r5, r6, r7, lr}
    2b6e:	4b0b      	ldr	r3, [pc, #44]	; (2b9c <mbed::FileBase::lookup(char const*, unsigned int)+0x30>)
    2b70:	681c      	ldr	r4, [r3, #0]
    2b72:	b18c      	cbz	r4, 2b98 <mbed::FileBase::lookup(char const*, unsigned int)+0x2c>
    2b74:	4607      	mov	r7, r0
    2b76:	460e      	mov	r6, r1
    2b78:	68a5      	ldr	r5, [r4, #8]
    2b7a:	b155      	cbz	r5, 2b92 <mbed::FileBase::lookup(char const*, unsigned int)+0x26>
    2b7c:	4632      	mov	r2, r6
    2b7e:	4639      	mov	r1, r7
    2b80:	4628      	mov	r0, r5
    2b82:	f003 f88c 	bl	5c9e <strncmp>
    2b86:	b920      	cbnz	r0, 2b92 <mbed::FileBase::lookup(char const*, unsigned int)+0x26>
    2b88:	4628      	mov	r0, r5
    2b8a:	f003 f880 	bl	5c8e <strlen>
    2b8e:	4286      	cmp	r6, r0
    2b90:	d002      	beq.n	2b98 <mbed::FileBase::lookup(char const*, unsigned int)+0x2c>
    2b92:	6864      	ldr	r4, [r4, #4]
    2b94:	2c00      	cmp	r4, #0
    2b96:	d1ef      	bne.n	2b78 <mbed::FileBase::lookup(char const*, unsigned int)+0xc>
    2b98:	4620      	mov	r0, r4
    2b9a:	bdf8      	pop	{r3, r4, r5, r6, r7, pc}
    2b9c:	100007c0 	.word	0x100007c0

00002ba0 <mbed::FileBase::getPathType()>:
    2ba0:	7b00      	ldrb	r0, [r0, #12]
    2ba2:	4770      	bx	lr

00002ba4 <mbed::Stream::write(void const*, unsigned int)>:
    2ba4:	b5f8      	push	{r3, r4, r5, r6, r7, lr}
    2ba6:	188e      	adds	r6, r1, r2
    2ba8:	42b1      	cmp	r1, r6
    2baa:	460f      	mov	r7, r1
    2bac:	d00e      	beq.n	2bcc <mbed::Stream::write(void const*, unsigned int)+0x28>
    2bae:	4605      	mov	r5, r0
    2bb0:	460c      	mov	r4, r1
    2bb2:	e001      	b.n	2bb8 <mbed::Stream::write(void const*, unsigned int)+0x14>
    2bb4:	42a6      	cmp	r6, r4
    2bb6:	d007      	beq.n	2bc8 <mbed::Stream::write(void const*, unsigned int)+0x24>
    2bb8:	682b      	ldr	r3, [r5, #0]
    2bba:	f814 1b01 	ldrb.w	r1, [r4], #1
    2bbe:	6a5b      	ldr	r3, [r3, #36]	; 0x24
    2bc0:	4628      	mov	r0, r5
    2bc2:	4798      	blx	r3
    2bc4:	3001      	adds	r0, #1
    2bc6:	d1f5      	bne.n	2bb4 <mbed::Stream::write(void const*, unsigned int)+0x10>
    2bc8:	1be0      	subs	r0, r4, r7
    2bca:	bdf8      	pop	{r3, r4, r5, r6, r7, pc}
    2bcc:	460c      	mov	r4, r1
    2bce:	e7fb      	b.n	2bc8 <mbed::Stream::write(void const*, unsigned int)+0x24>

00002bd0 <mbed::Stream::read(void*, unsigned int)>:
    2bd0:	b5f8      	push	{r3, r4, r5, r6, r7, lr}
    2bd2:	188e      	adds	r6, r1, r2
    2bd4:	42b1      	cmp	r1, r6
    2bd6:	460f      	mov	r7, r1
    2bd8:	d00e      	beq.n	2bf8 <mbed::Stream::read(void*, unsigned int)+0x28>
    2bda:	4605      	mov	r5, r0
    2bdc:	460c      	mov	r4, r1
    2bde:	e003      	b.n	2be8 <mbed::Stream::read(void*, unsigned int)+0x18>
    2be0:	f804 0b01 	strb.w	r0, [r4], #1
    2be4:	42a6      	cmp	r6, r4
    2be6:	d005      	beq.n	2bf4 <mbed::Stream::read(void*, unsigned int)+0x24>
    2be8:	682b      	ldr	r3, [r5, #0]
    2bea:	4628      	mov	r0, r5
    2bec:	6a9b      	ldr	r3, [r3, #40]	; 0x28
    2bee:	4798      	blx	r3
    2bf0:	1c43      	adds	r3, r0, #1
    2bf2:	d1f5      	bne.n	2be0 <mbed::Stream::read(void*, unsigned int)+0x10>
    2bf4:	1be0      	subs	r0, r4, r7
    2bf6:	bdf8      	pop	{r3, r4, r5, r6, r7, pc}
    2bf8:	460c      	mov	r4, r1
    2bfa:	e7fb      	b.n	2bf4 <mbed::Stream::read(void*, unsigned int)+0x24>

00002bfc <mbed::Stream::lseek(long, int)>:
    2bfc:	2000      	movs	r0, #0
    2bfe:	4770      	bx	lr

00002c00 <mbed::Stream::close()>:
    2c00:	2000      	movs	r0, #0
    2c02:	4770      	bx	lr

00002c04 <mbed::Stream::flen()>:
    2c04:	2000      	movs	r0, #0
    2c06:	4770      	bx	lr

00002c08 <mbed::Stream::Stream(char const*)>:
    2c08:	b510      	push	{r4, lr}
    2c0a:	4604      	mov	r4, r0
    2c0c:	b084      	sub	sp, #16
    2c0e:	f000 f9b9 	bl	2f84 <mbed::FileLike::FileLike(char const*)>
    2c12:	4b0b      	ldr	r3, [pc, #44]	; (2c40 <mbed::Stream::Stream(char const*)+0x38>)
    2c14:	2200      	movs	r2, #0
    2c16:	f103 0108 	add.w	r1, r3, #8
    2c1a:	333c      	adds	r3, #60	; 0x3c
    2c1c:	e884 000a 	stmia.w	r4, {r1, r3}
    2c20:	6162      	str	r2, [r4, #20]
    2c22:	a801      	add	r0, sp, #4
    2c24:	4622      	mov	r2, r4
    2c26:	4907      	ldr	r1, [pc, #28]	; (2c44 <mbed::Stream::Stream(char const*)+0x3c>)
    2c28:	f002 ff94 	bl	5b54 <siprintf>
    2c2c:	4906      	ldr	r1, [pc, #24]	; (2c48 <mbed::Stream::Stream(char const*)+0x40>)
    2c2e:	a801      	add	r0, sp, #4
    2c30:	f001 fc10 	bl	4454 <fopen>
    2c34:	6160      	str	r0, [r4, #20]
    2c36:	f7ff feb1 	bl	299c <mbed::mbed_set_unbuffered_stream(__sFILE*)>
    2c3a:	4620      	mov	r0, r4
    2c3c:	b004      	add	sp, #16
    2c3e:	bd10      	pop	{r4, pc}
    2c40:	00008544 	.word	0x00008544
    2c44:	00008524 	.word	0x00008524
    2c48:	00008588 	.word	0x00008588

00002c4c <mbed::Stream::~Stream()>:
    2c4c:	b510      	push	{r4, lr}
    2c4e:	4604      	mov	r4, r0
    2c50:	4b06      	ldr	r3, [pc, #24]	; (2c6c <mbed::Stream::~Stream()+0x20>)
    2c52:	6940      	ldr	r0, [r0, #20]
    2c54:	f103 0208 	add.w	r2, r3, #8
    2c58:	333c      	adds	r3, #60	; 0x3c
    2c5a:	e884 000c 	stmia.w	r4, {r2, r3}
    2c5e:	f001 fa41 	bl	40e4 <fclose>
    2c62:	4620      	mov	r0, r4
    2c64:	f000 f9a2 	bl	2fac <mbed::FileLike::~FileLike()>
    2c68:	4620      	mov	r0, r4
    2c6a:	bd10      	pop	{r4, pc}
    2c6c:	00008544 	.word	0x00008544

00002c70 <mbed::Stream::putc(int)>:
    2c70:	b538      	push	{r3, r4, r5, lr}
    2c72:	460d      	mov	r5, r1
    2c74:	4604      	mov	r4, r0
    2c76:	6940      	ldr	r0, [r0, #20]
    2c78:	f001 faec 	bl	4254 <fflush>
    2c7c:	6961      	ldr	r1, [r4, #20]
    2c7e:	4628      	mov	r0, r5
    2c80:	e8bd 4038 	ldmia.w	sp!, {r3, r4, r5, lr}
    2c84:	f001 bc24 	b.w	44d0 <fputc>

00002c88 <mbed::Stream::printf(char const*, ...)>:
    2c88:	b40e      	push	{r1, r2, r3}
    2c8a:	b530      	push	{r4, r5, lr}
    2c8c:	4604      	mov	r4, r0
    2c8e:	b082      	sub	sp, #8
    2c90:	ab05      	add	r3, sp, #20
    2c92:	f853 5b04 	ldr.w	r5, [r3], #4
    2c96:	6940      	ldr	r0, [r0, #20]
    2c98:	9301      	str	r3, [sp, #4]
    2c9a:	f001 fadb 	bl	4254 <fflush>
    2c9e:	4629      	mov	r1, r5
    2ca0:	6960      	ldr	r0, [r4, #20]
    2ca2:	9a01      	ldr	r2, [sp, #4]
    2ca4:	f001 ffca 	bl	4c3c <vfiprintf>
    2ca8:	b002      	add	sp, #8
    2caa:	e8bd 4030 	ldmia.w	sp!, {r4, r5, lr}
    2cae:	b003      	add	sp, #12
    2cb0:	4770      	bx	lr
    2cb2:	bf00      	nop

00002cb4 <mbed::FileSystemLike::FileSystemLike(char const*)>:
    2cb4:	b510      	push	{r4, lr}
    2cb6:	4604      	mov	r4, r0
    2cb8:	2201      	movs	r2, #1
    2cba:	f7ff ff45 	bl	2b48 <mbed::FileBase::FileBase(char const*, mbed::PathType)>
    2cbe:	4b02      	ldr	r3, [pc, #8]	; (2cc8 <mbed::FileSystemLike::FileSystemLike(char const*)+0x14>)
    2cc0:	4620      	mov	r0, r4
    2cc2:	6023      	str	r3, [r4, #0]
    2cc4:	bd10      	pop	{r4, pc}
    2cc6:	bf00      	nop
    2cc8:	00008594 	.word	0x00008594

00002ccc <mbed::FileSystemLike::~FileSystemLike()>:
    2ccc:	b510      	push	{r4, lr}
    2cce:	4604      	mov	r4, r0
    2cd0:	4b02      	ldr	r3, [pc, #8]	; (2cdc <mbed::FileSystemLike::~FileSystemLike()+0x10>)
    2cd2:	6003      	str	r3, [r0, #0]
    2cd4:	f7ff ff02 	bl	2adc <mbed::FileBase::~FileBase()>
    2cd8:	4620      	mov	r0, r4
    2cda:	bd10      	pop	{r4, pc}
    2cdc:	00008594 	.word	0x00008594

00002ce0 <mbed::InterruptIn::~InterruptIn()>:
    2ce0:	b510      	push	{r4, lr}
    2ce2:	4604      	mov	r4, r0
    2ce4:	4b03      	ldr	r3, [pc, #12]	; (2cf4 <mbed::InterruptIn::~InterruptIn()+0x14>)
    2ce6:	f840 3b1c 	str.w	r3, [r0], #28
    2cea:	f7fe fd3f 	bl	176c <gpio_irq_free>
    2cee:	4620      	mov	r0, r4
    2cf0:	bd10      	pop	{r4, pc}
    2cf2:	bf00      	nop
    2cf4:	000085b8 	.word	0x000085b8

00002cf8 <mbed::InterruptIn::~InterruptIn()>:
    2cf8:	b510      	push	{r4, lr}
    2cfa:	4604      	mov	r4, r0
    2cfc:	4b04      	ldr	r3, [pc, #16]	; (2d10 <mbed::InterruptIn::~InterruptIn()+0x18>)
    2cfe:	f840 3b1c 	str.w	r3, [r0], #28
    2d02:	f7fe fd33 	bl	176c <gpio_irq_free>
    2d06:	4620      	mov	r0, r4
    2d08:	f000 fa91 	bl	322e <operator delete(void*)>
    2d0c:	4620      	mov	r0, r4
    2d0e:	bd10      	pop	{r4, pc}
    2d10:	000085b8 	.word	0x000085b8

00002d14 <mbed::InterruptIn::_irq_handler(unsigned long, gpio_irq_event)>:
    2d14:	2901      	cmp	r1, #1
    2d16:	d00d      	beq.n	2d34 <mbed::InterruptIn::_irq_handler(unsigned long, gpio_irq_event)+0x20>
    2d18:	2902      	cmp	r1, #2
    2d1a:	d107      	bne.n	2d2c <mbed::InterruptIn::_irq_handler(unsigned long, gpio_irq_event)+0x18>
    2d1c:	6d43      	ldr	r3, [r0, #84]	; 0x54
    2d1e:	b133      	cbz	r3, 2d2e <mbed::InterruptIn::_irq_handler(unsigned long, gpio_irq_event)+0x1a>
    2d20:	6c02      	ldr	r2, [r0, #64]	; 0x40
    2d22:	b132      	cbz	r2, 2d32 <mbed::InterruptIn::_irq_handler(unsigned long, gpio_irq_event)+0x1e>
    2d24:	f100 0144 	add.w	r1, r0, #68	; 0x44
    2d28:	4610      	mov	r0, r2
    2d2a:	4718      	bx	r3
    2d2c:	4770      	bx	lr
    2d2e:	6c03      	ldr	r3, [r0, #64]	; 0x40
    2d30:	b963      	cbnz	r3, 2d4c <mbed::InterruptIn::_irq_handler(unsigned long, gpio_irq_event)+0x38>
    2d32:	4770      	bx	lr
    2d34:	6bc3      	ldr	r3, [r0, #60]	; 0x3c
    2d36:	b133      	cbz	r3, 2d46 <mbed::InterruptIn::_irq_handler(unsigned long, gpio_irq_event)+0x32>
    2d38:	6a82      	ldr	r2, [r0, #40]	; 0x28
    2d3a:	2a00      	cmp	r2, #0
    2d3c:	d0f9      	beq.n	2d32 <mbed::InterruptIn::_irq_handler(unsigned long, gpio_irq_event)+0x1e>
    2d3e:	f100 012c 	add.w	r1, r0, #44	; 0x2c
    2d42:	4610      	mov	r0, r2
    2d44:	4718      	bx	r3
    2d46:	6a83      	ldr	r3, [r0, #40]	; 0x28
    2d48:	2b00      	cmp	r3, #0
    2d4a:	d0f2      	beq.n	2d32 <mbed::InterruptIn::_irq_handler(unsigned long, gpio_irq_event)+0x1e>
    2d4c:	4718      	bx	r3
    2d4e:	bf00      	nop

00002d50 <mbed::InterruptIn::InterruptIn(PinName)>:
    2d50:	b570      	push	{r4, r5, r6, lr}
    2d52:	4605      	mov	r5, r0
    2d54:	4604      	mov	r4, r0
    2d56:	460e      	mov	r6, r1
    2d58:	4b0d      	ldr	r3, [pc, #52]	; (2d90 <mbed::InterruptIn::InterruptIn(PinName)+0x40>)
    2d5a:	2200      	movs	r2, #0
    2d5c:	f845 3b04 	str.w	r3, [r5], #4
    2d60:	6042      	str	r2, [r0, #4]
    2d62:	4603      	mov	r3, r0
    2d64:	606a      	str	r2, [r5, #4]
    2d66:	60aa      	str	r2, [r5, #8]
    2d68:	60ea      	str	r2, [r5, #12]
    2d6a:	612a      	str	r2, [r5, #16]
    2d6c:	616a      	str	r2, [r5, #20]
    2d6e:	301c      	adds	r0, #28
    2d70:	61e2      	str	r2, [r4, #28]
    2d72:	6222      	str	r2, [r4, #32]
    2d74:	6262      	str	r2, [r4, #36]	; 0x24
    2d76:	62a2      	str	r2, [r4, #40]	; 0x28
    2d78:	63e2      	str	r2, [r4, #60]	; 0x3c
    2d7a:	6422      	str	r2, [r4, #64]	; 0x40
    2d7c:	6562      	str	r2, [r4, #84]	; 0x54
    2d7e:	4a05      	ldr	r2, [pc, #20]	; (2d94 <mbed::InterruptIn::InterruptIn(PinName)+0x44>)
    2d80:	f7fe fcb6 	bl	16f0 <gpio_irq_init>
    2d84:	4628      	mov	r0, r5
    2d86:	4631      	mov	r1, r6
    2d88:	f7fe f99a 	bl	10c0 <gpio_init_in>
    2d8c:	4620      	mov	r0, r4
    2d8e:	bd70      	pop	{r4, r5, r6, pc}
    2d90:	000085b8 	.word	0x000085b8
    2d94:	00002d15 	.word	0x00002d15

00002d98 <mbed::InterruptIn::rise(void (*)())>:
    2d98:	b139      	cbz	r1, 2daa <mbed::InterruptIn::rise(void (*)())+0x12>
    2d9a:	2300      	movs	r3, #0
    2d9c:	2201      	movs	r2, #1
    2d9e:	6281      	str	r1, [r0, #40]	; 0x28
    2da0:	63c3      	str	r3, [r0, #60]	; 0x3c
    2da2:	4611      	mov	r1, r2
    2da4:	301c      	adds	r0, #28
    2da6:	f7fe bce9 	b.w	177c <gpio_irq_set>
    2daa:	6281      	str	r1, [r0, #40]	; 0x28
    2dac:	63c1      	str	r1, [r0, #60]	; 0x3c
    2dae:	460a      	mov	r2, r1
    2db0:	301c      	adds	r0, #28
    2db2:	2101      	movs	r1, #1
    2db4:	f7fe bce2 	b.w	177c <gpio_irq_set>

00002db8 <mbed::BusOut::~BusOut()>:
    2db8:	b570      	push	{r4, r5, r6, lr}
    2dba:	4606      	mov	r6, r0
    2dbc:	4604      	mov	r4, r0
    2dbe:	4b06      	ldr	r3, [pc, #24]	; (2dd8 <mbed::BusOut::~BusOut()+0x20>)
    2dc0:	f100 0540 	add.w	r5, r0, #64	; 0x40
    2dc4:	6003      	str	r3, [r0, #0]
    2dc6:	f854 0f04 	ldr.w	r0, [r4, #4]!
    2dca:	b108      	cbz	r0, 2dd0 <mbed::BusOut::~BusOut()+0x18>
    2dcc:	f000 fa2f 	bl	322e <operator delete(void*)>
    2dd0:	42ac      	cmp	r4, r5
    2dd2:	d1f8      	bne.n	2dc6 <mbed::BusOut::~BusOut()+0xe>
    2dd4:	4630      	mov	r0, r6
    2dd6:	bd70      	pop	{r4, r5, r6, pc}
    2dd8:	000085c8 	.word	0x000085c8

00002ddc <mbed::BusOut::~BusOut()>:
    2ddc:	b570      	push	{r4, r5, r6, lr}
    2dde:	4606      	mov	r6, r0
    2de0:	4604      	mov	r4, r0
    2de2:	4b08      	ldr	r3, [pc, #32]	; (2e04 <mbed::BusOut::~BusOut()+0x28>)
    2de4:	f100 0540 	add.w	r5, r0, #64	; 0x40
    2de8:	6003      	str	r3, [r0, #0]
    2dea:	f854 0f04 	ldr.w	r0, [r4, #4]!
    2dee:	b108      	cbz	r0, 2df4 <mbed::BusOut::~BusOut()+0x18>
    2df0:	f000 fa1d 	bl	322e <operator delete(void*)>
    2df4:	42ac      	cmp	r4, r5
    2df6:	d1f8      	bne.n	2dea <mbed::BusOut::~BusOut()+0xe>
    2df8:	4630      	mov	r0, r6
    2dfa:	f000 fa18 	bl	322e <operator delete(void*)>
    2dfe:	4630      	mov	r0, r6
    2e00:	bd70      	pop	{r4, r5, r6, pc}
    2e02:	bf00      	nop
    2e04:	000085c8 	.word	0x000085c8

00002e08 <mbed::BusOut::BusOut(PinName, PinName, PinName, PinName, PinName, PinName, PinName, PinName, PinName, PinName, PinName, PinName, PinName, PinName, PinName, PinName)>:
    2e08:	e92d 4ff0 	stmdb	sp!, {r4, r5, r6, r7, r8, r9, r10, r11, lr}
    2e0c:	4680      	mov	r8, r0
    2e0e:	b091      	sub	sp, #68	; 0x44
    2e10:	460f      	mov	r7, r1
    2e12:	9100      	str	r1, [sp, #0]
    2e14:	492a      	ldr	r1, [pc, #168]	; (2ec0 <mbed::BusOut::BusOut(PinName, PinName, PinName, PinName, PinName, PinName, PinName, PinName, PinName, PinName, PinName, PinName, PinName, PinName, PinName, PinName)+0xb8>)
    2e16:	9201      	str	r2, [sp, #4]
    2e18:	9302      	str	r3, [sp, #8]
    2e1a:	9a1c      	ldr	r2, [sp, #112]	; 0x70
    2e1c:	9b1d      	ldr	r3, [sp, #116]	; 0x74
    2e1e:	f8c8 1000 	str.w	r1, [r8]
    2e22:	991a      	ldr	r1, [sp, #104]	; 0x68
    2e24:	9205      	str	r2, [sp, #20]
    2e26:	9103      	str	r1, [sp, #12]
    2e28:	9a1f      	ldr	r2, [sp, #124]	; 0x7c
    2e2a:	991e      	ldr	r1, [sp, #120]	; 0x78
    2e2c:	9306      	str	r3, [sp, #24]
    2e2e:	9b20      	ldr	r3, [sp, #128]	; 0x80
    2e30:	9107      	str	r1, [sp, #28]
    2e32:	9208      	str	r2, [sp, #32]
    2e34:	9921      	ldr	r1, [sp, #132]	; 0x84
    2e36:	9a22      	ldr	r2, [sp, #136]	; 0x88
    2e38:	9309      	str	r3, [sp, #36]	; 0x24
    2e3a:	9b23      	ldr	r3, [sp, #140]	; 0x8c
    2e3c:	981b      	ldr	r0, [sp, #108]	; 0x6c
    2e3e:	910a      	str	r1, [sp, #40]	; 0x28
    2e40:	920b      	str	r2, [sp, #44]	; 0x2c
    2e42:	9924      	ldr	r1, [sp, #144]	; 0x90
    2e44:	9a25      	ldr	r2, [sp, #148]	; 0x94
    2e46:	930c      	str	r3, [sp, #48]	; 0x30
    2e48:	9b26      	ldr	r3, [sp, #152]	; 0x98
    2e4a:	2400      	movs	r4, #0
    2e4c:	4626      	mov	r6, r4
    2e4e:	4625      	mov	r5, r4
    2e50:	f8c8 4044 	str.w	r4, [r8, #68]	; 0x44
    2e54:	f108 0904 	add.w	r9, r8, #4
    2e58:	9004      	str	r0, [sp, #16]
    2e5a:	910d      	str	r1, [sp, #52]	; 0x34
    2e5c:	920e      	str	r2, [sp, #56]	; 0x38
    2e5e:	930f      	str	r3, [sp, #60]	; 0x3c
    2e60:	46eb      	mov	r11, sp
    2e62:	f04f 0a01 	mov.w	r10, #1
    2e66:	e008      	b.n	2e7a <mbed::BusOut::BusOut(PinName, PinName, PinName, PinName, PinName, PinName, PinName, PinName, PinName, PinName, PinName, PinName, PinName, PinName, PinName, PinName)+0x72>
    2e68:	3601      	adds	r6, #1
    2e6a:	2e10      	cmp	r6, #16
    2e6c:	f8c9 5000 	str.w	r5, [r9]
    2e70:	f109 0904 	add.w	r9, r9, #4
    2e74:	d01f      	beq.n	2eb6 <mbed::BusOut::BusOut(PinName, PinName, PinName, PinName, PinName, PinName, PinName, PinName, PinName, PinName, PinName, PinName, PinName, PinName, PinName, PinName)+0xae>
    2e76:	f85b 7f04 	ldr.w	r7, [r11, #4]!
    2e7a:	1c7b      	adds	r3, r7, #1
    2e7c:	f04f 0018 	mov.w	r0, #24
    2e80:	d0f2      	beq.n	2e68 <mbed::BusOut::BusOut(PinName, PinName, PinName, PinName, PinName, PinName, PinName, PinName, PinName, PinName, PinName, PinName, PinName, PinName, PinName, PinName)+0x60>
    2e82:	f000 f9d6 	bl	3232 <operator new(unsigned int)>
    2e86:	4604      	mov	r4, r0
    2e88:	4639      	mov	r1, r7
    2e8a:	6005      	str	r5, [r0, #0]
    2e8c:	6045      	str	r5, [r0, #4]
    2e8e:	6085      	str	r5, [r0, #8]
    2e90:	60c5      	str	r5, [r0, #12]
    2e92:	6105      	str	r5, [r0, #16]
    2e94:	6145      	str	r5, [r0, #20]
    2e96:	f7fe f925 	bl	10e4 <gpio_init_out>
    2e9a:	f8d8 2044 	ldr.w	r2, [r8, #68]	; 0x44
    2e9e:	fa0a f306 	lsl.w	r3, r10, r6
    2ea2:	3601      	adds	r6, #1
    2ea4:	4313      	orrs	r3, r2
    2ea6:	2e10      	cmp	r6, #16
    2ea8:	f8c9 4000 	str.w	r4, [r9]
    2eac:	f8c8 3044 	str.w	r3, [r8, #68]	; 0x44
    2eb0:	f109 0904 	add.w	r9, r9, #4
    2eb4:	d1df      	bne.n	2e76 <mbed::BusOut::BusOut(PinName, PinName, PinName, PinName, PinName, PinName, PinName, PinName, PinName, PinName, PinName, PinName, PinName, PinName, PinName, PinName)+0x6e>
    2eb6:	4640      	mov	r0, r8
    2eb8:	b011      	add	sp, #68	; 0x44
    2eba:	e8bd 8ff0 	ldmia.w	sp!, {r4, r5, r6, r7, r8, r9, r10, r11, pc}
    2ebe:	bf00      	nop
    2ec0:	000085c8 	.word	0x000085c8

00002ec4 <mbed::BusOut::operator=(int)>:
    2ec4:	b430      	push	{r4, r5}
    2ec6:	4604      	mov	r4, r0
    2ec8:	2300      	movs	r3, #0
    2eca:	f854 2f04 	ldr.w	r2, [r4, #4]!
    2ece:	fa41 f503 	asr.w	r5, r1, r3
    2ed2:	b12a      	cbz	r2, 2ee0 <mbed::BusOut::operator=(int)+0x1c>
    2ed4:	07ed      	lsls	r5, r5, #31
    2ed6:	bf4c      	ite	mi
    2ed8:	68d5      	ldrmi	r5, [r2, #12]
    2eda:	6915      	ldrpl	r5, [r2, #16]
    2edc:	6852      	ldr	r2, [r2, #4]
    2ede:	602a      	str	r2, [r5, #0]
    2ee0:	3301      	adds	r3, #1
    2ee2:	2b10      	cmp	r3, #16
    2ee4:	d1f1      	bne.n	2eca <mbed::BusOut::operator=(int)+0x6>
    2ee6:	bc30      	pop	{r4, r5}
    2ee8:	4770      	bx	lr
    2eea:	bf00      	nop

00002eec <mbed::SerialBase::_irq_handler(unsigned long, SerialIrq)>:
    2eec:	1c4a      	adds	r2, r1, #1
    2eee:	eb02 0242 	add.w	r2, r2, r2, lsl #1
    2ef2:	eb00 02c2 	add.w	r2, r0, r2, lsl #3
    2ef6:	6893      	ldr	r3, [r2, #8]
    2ef8:	b153      	cbz	r3, 2f10 <mbed::SerialBase::_irq_handler(unsigned long, SerialIrq)+0x24>
    2efa:	eb01 0141 	add.w	r1, r1, r1, lsl #1
    2efe:	00c9      	lsls	r1, r1, #3
    2f00:	1842      	adds	r2, r0, r1
    2f02:	68d2      	ldr	r2, [r2, #12]
    2f04:	b11a      	cbz	r2, 2f0e <mbed::SerialBase::_irq_handler(unsigned long, SerialIrq)+0x22>
    2f06:	4401      	add	r1, r0
    2f08:	3110      	adds	r1, #16
    2f0a:	4610      	mov	r0, r2
    2f0c:	4718      	bx	r3
    2f0e:	4770      	bx	lr
    2f10:	eb01 0341 	add.w	r3, r1, r1, lsl #1
    2f14:	eb00 01c3 	add.w	r1, r0, r3, lsl #3
    2f18:	68cb      	ldr	r3, [r1, #12]
    2f1a:	2b00      	cmp	r3, #0
    2f1c:	d0f7      	beq.n	2f0e <mbed::SerialBase::_irq_handler(unsigned long, SerialIrq)+0x22>
    2f1e:	4718      	bx	r3

00002f20 <mbed::SerialBase::SerialBase(PinName, PinName)>:
    2f20:	b570      	push	{r4, r5, r6, lr}
    2f22:	4604      	mov	r4, r0
    2f24:	4e0b      	ldr	r6, [pc, #44]	; (2f54 <mbed::SerialBase::SerialBase(PinName, PinName)+0x34>)
    2f26:	2300      	movs	r3, #0
    2f28:	1d25      	adds	r5, r4, #4
    2f2a:	f44f 5016 	mov.w	r0, #9600	; 0x2580
    2f2e:	63e0      	str	r0, [r4, #60]	; 0x3c
    2f30:	6063      	str	r3, [r4, #4]
    2f32:	4628      	mov	r0, r5
    2f34:	60a3      	str	r3, [r4, #8]
    2f36:	60e3      	str	r3, [r4, #12]
    2f38:	6223      	str	r3, [r4, #32]
    2f3a:	6263      	str	r3, [r4, #36]	; 0x24
    2f3c:	63a3      	str	r3, [r4, #56]	; 0x38
    2f3e:	6026      	str	r6, [r4, #0]
    2f40:	f7ff f9fa 	bl	2338 <serial_init>
    2f44:	4628      	mov	r0, r5
    2f46:	4622      	mov	r2, r4
    2f48:	4903      	ldr	r1, [pc, #12]	; (2f58 <mbed::SerialBase::SerialBase(PinName, PinName)+0x38>)
    2f4a:	f7ff f8ef 	bl	212c <serial_irq_handler>
    2f4e:	4620      	mov	r0, r4
    2f50:	bd70      	pop	{r4, r5, r6, pc}
    2f52:	bf00      	nop
    2f54:	000085d8 	.word	0x000085d8
    2f58:	00002eed 	.word	0x00002eed

00002f5c <mbed::SerialBase::baud(int)>:
    2f5c:	b538      	push	{r3, r4, r5, lr}
    2f5e:	4604      	mov	r4, r0
    2f60:	460d      	mov	r5, r1
    2f62:	3004      	adds	r0, #4
    2f64:	f7fe fffa 	bl	1f5c <serial_baud>
    2f68:	63e5      	str	r5, [r4, #60]	; 0x3c
    2f6a:	bd38      	pop	{r3, r4, r5, pc}

00002f6c <mbed::SerialBase::_base_getc()>:
    2f6c:	3004      	adds	r0, #4
    2f6e:	f7ff b8ed 	b.w	214c <serial_getc>
    2f72:	bf00      	nop

00002f74 <mbed::SerialBase::_base_putc(int)>:
    2f74:	b510      	push	{r4, lr}
    2f76:	460c      	mov	r4, r1
    2f78:	3004      	adds	r0, #4
    2f7a:	f7ff f92f 	bl	21dc <serial_putc>
    2f7e:	4620      	mov	r0, r4
    2f80:	bd10      	pop	{r4, pc}
    2f82:	bf00      	nop

00002f84 <mbed::FileLike::FileLike(char const*)>:
    2f84:	b510      	push	{r4, lr}
    2f86:	4604      	mov	r4, r0
    2f88:	4b06      	ldr	r3, [pc, #24]	; (2fa4 <mbed::FileLike::FileLike(char const*)+0x20>)
    2f8a:	2200      	movs	r2, #0
    2f8c:	f840 3b04 	str.w	r3, [r0], #4
    2f90:	f7ff fdda 	bl	2b48 <mbed::FileBase::FileBase(char const*, mbed::PathType)>
    2f94:	4b04      	ldr	r3, [pc, #16]	; (2fa8 <mbed::FileLike::FileLike(char const*)+0x24>)
    2f96:	4620      	mov	r0, r4
    2f98:	f103 0208 	add.w	r2, r3, #8
    2f9c:	3334      	adds	r3, #52	; 0x34
    2f9e:	e884 000c 	stmia.w	r4, {r2, r3}
    2fa2:	bd10      	pop	{r4, pc}
    2fa4:	00008500 	.word	0x00008500
    2fa8:	000085e0 	.word	0x000085e0

00002fac <mbed::FileLike::~FileLike()>:
    2fac:	b510      	push	{r4, lr}
    2fae:	4604      	mov	r4, r0
    2fb0:	4b06      	ldr	r3, [pc, #24]	; (2fcc <mbed::FileLike::~FileLike()+0x20>)
    2fb2:	f103 0208 	add.w	r2, r3, #8
    2fb6:	3334      	adds	r3, #52	; 0x34
    2fb8:	6002      	str	r2, [r0, #0]
    2fba:	f840 3f04 	str.w	r3, [r0, #4]!
    2fbe:	f7ff fd8d 	bl	2adc <mbed::FileBase::~FileBase()>
    2fc2:	4620      	mov	r0, r4
    2fc4:	f7ff fb8a 	bl	26dc <mbed::FileHandle::~FileHandle()>
    2fc8:	4620      	mov	r0, r4
    2fca:	bd10      	pop	{r4, pc}
    2fcc:	000085e0 	.word	0x000085e0

00002fd0 <mbed::LocalDirHandle::closedir()>:
    2fd0:	b128      	cbz	r0, 2fde <mbed::LocalDirHandle::closedir()+0xe>
    2fd2:	b508      	push	{r3, lr}
    2fd4:	6803      	ldr	r3, [r0, #0]
    2fd6:	699b      	ldr	r3, [r3, #24]
    2fd8:	4798      	blx	r3
    2fda:	2000      	movs	r0, #0
    2fdc:	bd08      	pop	{r3, pc}
    2fde:	2000      	movs	r0, #0
    2fe0:	4770      	bx	lr
    2fe2:	bf00      	nop

00002fe4 <mbed::LocalDirHandle::rewinddir()>:
    2fe4:	2300      	movs	r3, #0
    2fe6:	f8c0 3128 	str.w	r3, [r0, #296]	; 0x128
    2fea:	4770      	bx	lr

00002fec <mbed::LocalDirHandle::telldir()>:
    2fec:	f8d0 0128 	ldr.w	r0, [r0, #296]	; 0x128
    2ff0:	4770      	bx	lr
    2ff2:	bf00      	nop

00002ff4 <mbed::LocalDirHandle::seekdir(long)>:
    2ff4:	f8c0 1128 	str.w	r1, [r0, #296]	; 0x128
    2ff8:	4770      	bx	lr
    2ffa:	bf00      	nop

00002ffc <mbed::LocalDirHandle::~LocalDirHandle()>:
    2ffc:	4770      	bx	lr
    2ffe:	bf00      	nop

00003000 <mbed::LocalFileHandle::close()>:
    3000:	b538      	push	{r3, r4, r5, lr}
    3002:	4604      	mov	r4, r0
    3004:	6840      	ldr	r0, [r0, #4]
    3006:	f7fd ff95 	bl	f34 <semihost_close>
    300a:	4605      	mov	r5, r0
    300c:	b11c      	cbz	r4, 3016 <mbed::LocalFileHandle::close()+0x16>
    300e:	6823      	ldr	r3, [r4, #0]
    3010:	4620      	mov	r0, r4
    3012:	6a1b      	ldr	r3, [r3, #32]
    3014:	4798      	blx	r3
    3016:	4628      	mov	r0, r5
    3018:	bd38      	pop	{r3, r4, r5, pc}
    301a:	bf00      	nop

0000301c <mbed::LocalDirHandle::~LocalDirHandle()>:
    301c:	b510      	push	{r4, lr}
    301e:	4604      	mov	r4, r0
    3020:	f000 f905 	bl	322e <operator delete(void*)>
    3024:	4620      	mov	r0, r4
    3026:	bd10      	pop	{r4, pc}

00003028 <mbed::LocalFileHandle::~LocalFileHandle()>:
    3028:	b510      	push	{r4, lr}
    302a:	4604      	mov	r4, r0
    302c:	4b02      	ldr	r3, [pc, #8]	; (3038 <mbed::LocalFileHandle::~LocalFileHandle()+0x10>)
    302e:	6003      	str	r3, [r0, #0]
    3030:	f7ff fb54 	bl	26dc <mbed::FileHandle::~FileHandle()>
    3034:	4620      	mov	r0, r4
    3036:	bd10      	pop	{r4, pc}
    3038:	0000866c 	.word	0x0000866c

0000303c <mbed::LocalFileHandle::~LocalFileHandle()>:
    303c:	b510      	push	{r4, lr}
    303e:	4604      	mov	r4, r0
    3040:	4b04      	ldr	r3, [pc, #16]	; (3054 <mbed::LocalFileHandle::~LocalFileHandle()+0x18>)
    3042:	6003      	str	r3, [r0, #0]
    3044:	f7ff fb4a 	bl	26dc <mbed::FileHandle::~FileHandle()>
    3048:	4620      	mov	r0, r4
    304a:	f000 f8f0 	bl	322e <operator delete(void*)>
    304e:	4620      	mov	r0, r4
    3050:	bd10      	pop	{r4, pc}
    3052:	bf00      	nop
    3054:	0000866c 	.word	0x0000866c

00003058 <mbed::LocalFileHandle::write(void const*, unsigned int)>:
    3058:	b538      	push	{r3, r4, r5, lr}
    305a:	4605      	mov	r5, r0
    305c:	2300      	movs	r3, #0
    305e:	6840      	ldr	r0, [r0, #4]
    3060:	4614      	mov	r4, r2
    3062:	f7fd ff75 	bl	f50 <semihost_write>
    3066:	68ab      	ldr	r3, [r5, #8]
    3068:	1a20      	subs	r0, r4, r0
    306a:	4403      	add	r3, r0
    306c:	60ab      	str	r3, [r5, #8]
    306e:	bd38      	pop	{r3, r4, r5, pc}

00003070 <mbed::LocalFileHandle::read(void*, unsigned int)>:
    3070:	b538      	push	{r3, r4, r5, lr}
    3072:	4605      	mov	r5, r0
    3074:	2300      	movs	r3, #0
    3076:	6840      	ldr	r0, [r0, #4]
    3078:	4614      	mov	r4, r2
    307a:	f7fd ff7b 	bl	f74 <semihost_read>
    307e:	68ab      	ldr	r3, [r5, #8]
    3080:	1a20      	subs	r0, r4, r0
    3082:	4403      	add	r3, r0
    3084:	60ab      	str	r3, [r5, #8]
    3086:	bd38      	pop	{r3, r4, r5, pc}

00003088 <mbed::LocalFileHandle::isatty()>:
    3088:	6840      	ldr	r0, [r0, #4]
    308a:	f7fd bf81 	b.w	f90 <semihost_istty>
    308e:	bf00      	nop

00003090 <mbed::LocalFileHandle::flen()>:
    3090:	6840      	ldr	r0, [r0, #4]
    3092:	f7fd bfa7 	b.w	fe4 <semihost_flen>
    3096:	bf00      	nop

00003098 <mbed::LocalFileHandle::lseek(long, int)>:
    3098:	2a01      	cmp	r2, #1
    309a:	b538      	push	{r3, r4, r5, lr}
    309c:	4605      	mov	r5, r0
    309e:	460c      	mov	r4, r1
    30a0:	d008      	beq.n	30b4 <mbed::LocalFileHandle::lseek(long, int)+0x1c>
    30a2:	2a02      	cmp	r2, #2
    30a4:	d009      	beq.n	30ba <mbed::LocalFileHandle::lseek(long, int)+0x22>
    30a6:	4621      	mov	r1, r4
    30a8:	6868      	ldr	r0, [r5, #4]
    30aa:	f7fd ff7f 	bl	fac <semihost_seek>
    30ae:	60ac      	str	r4, [r5, #8]
    30b0:	4620      	mov	r0, r4
    30b2:	bd38      	pop	{r3, r4, r5, pc}
    30b4:	6883      	ldr	r3, [r0, #8]
    30b6:	441c      	add	r4, r3
    30b8:	e7f5      	b.n	30a6 <mbed::LocalFileHandle::lseek(long, int)+0xe>
    30ba:	6840      	ldr	r0, [r0, #4]
    30bc:	f7fd ff92 	bl	fe4 <semihost_flen>
    30c0:	4404      	add	r4, r0
    30c2:	e7f0      	b.n	30a6 <mbed::LocalFileHandle::lseek(long, int)+0xe>

000030c4 <mbed::LocalFileHandle::fsync()>:
    30c4:	6840      	ldr	r0, [r0, #4]
    30c6:	f7fd bf7f 	b.w	fc8 <semihost_ensure>
    30ca:	bf00      	nop

000030cc <mbed::LocalFileSystem::opendir(char const*)>:
    30cc:	b510      	push	{r4, lr}
    30ce:	f44f 709e 	mov.w	r0, #316	; 0x13c
    30d2:	f000 f8ae 	bl	3232 <operator new(unsigned int)>
    30d6:	4604      	mov	r4, r0
    30d8:	4b07      	ldr	r3, [pc, #28]	; (30f8 <mbed::LocalFileSystem::opendir(char const*)+0x2c>)
    30da:	f44f 7280 	mov.w	r2, #256	; 0x100
    30de:	f840 3b04 	str.w	r3, [r0], #4
    30e2:	2100      	movs	r1, #0
    30e4:	f001 fbc6 	bl	4874 <memset>
    30e8:	f504 7082 	add.w	r0, r4, #260	; 0x104
    30ec:	2238      	movs	r2, #56	; 0x38
    30ee:	2100      	movs	r1, #0
    30f0:	f001 fbc0 	bl	4874 <memset>
    30f4:	4620      	mov	r0, r4
    30f6:	bd10      	pop	{r4, pc}
    30f8:	00008624 	.word	0x00008624

000030fc <mbed::LocalFileSystem::remove(char const*)>:
    30fc:	4608      	mov	r0, r1
    30fe:	f7fd bf7f 	b.w	1000 <semihost_remove>
    3102:	bf00      	nop

00003104 <mbed::LocalDirHandle::readdir()>:
    3104:	b5f0      	push	{r4, r5, r6, r7, lr}
    3106:	4914      	ldr	r1, [pc, #80]	; (3158 <mbed::LocalDirHandle::readdir()+0x54>)
    3108:	b085      	sub	sp, #20
    310a:	f500 7482 	add.w	r4, r0, #260	; 0x104
    310e:	2201      	movs	r2, #1
    3110:	2338      	movs	r3, #56	; 0x38
    3112:	4606      	mov	r6, r0
    3114:	e88d 0016 	stmia.w	sp, {r1, r2, r4}
    3118:	9303      	str	r3, [sp, #12]
    311a:	f44f 7580 	mov.w	r5, #256	; 0x100
    311e:	466f      	mov	r7, sp
    3120:	4628      	mov	r0, r5
    3122:	4639      	mov	r1, r7
    3124:	beab      	bkpt	0x00ab
    3126:	4605      	mov	r5, r0
    3128:	b99d      	cbnz	r5, 3152 <mbed::LocalDirHandle::readdir()+0x4e>
    312a:	1d33      	adds	r3, r6, #4
    312c:	4618      	mov	r0, r3
    312e:	6827      	ldr	r7, [r4, #0]
    3130:	6865      	ldr	r5, [r4, #4]
    3132:	68a1      	ldr	r1, [r4, #8]
    3134:	68e2      	ldr	r2, [r4, #12]
    3136:	6077      	str	r7, [r6, #4]
    3138:	60b5      	str	r5, [r6, #8]
    313a:	60f1      	str	r1, [r6, #12]
    313c:	6132      	str	r2, [r6, #16]
    313e:	6927      	ldr	r7, [r4, #16]
    3140:	6965      	ldr	r5, [r4, #20]
    3142:	69a1      	ldr	r1, [r4, #24]
    3144:	69e2      	ldr	r2, [r4, #28]
    3146:	6177      	str	r7, [r6, #20]
    3148:	61b5      	str	r5, [r6, #24]
    314a:	61f1      	str	r1, [r6, #28]
    314c:	6232      	str	r2, [r6, #32]
    314e:	b005      	add	sp, #20
    3150:	bdf0      	pop	{r4, r5, r6, r7, pc}
    3152:	2000      	movs	r0, #0
    3154:	b005      	add	sp, #20
    3156:	bdf0      	pop	{r4, r5, r6, r7, pc}
    3158:	00008690 	.word	0x00008690

0000315c <mbed::posix_to_semihost_open_flags(int)>:
    315c:	0781      	lsls	r1, r0, #30
    315e:	d503      	bpl.n	3168 <mbed::posix_to_semihost_open_flags(int)+0xc>
    3160:	0702      	lsls	r2, r0, #28
    3162:	d50e      	bpl.n	3182 <mbed::posix_to_semihost_open_flags(int)+0x26>
    3164:	200a      	movs	r0, #10
    3166:	4770      	bx	lr
    3168:	07c3      	lsls	r3, r0, #31
    316a:	d505      	bpl.n	3178 <mbed::posix_to_semihost_open_flags(int)+0x1c>
    316c:	f010 0f08 	tst.w	r0, #8
    3170:	bf14      	ite	ne
    3172:	2008      	movne	r0, #8
    3174:	2004      	moveq	r0, #4
    3176:	4770      	bx	lr
    3178:	3000      	adds	r0, #0
    317a:	bf18      	it	ne
    317c:	2001      	movne	r0, #1
    317e:	4240      	negs	r0, r0
    3180:	4770      	bx	lr
    3182:	f410 6f80 	tst.w	r0, #1024	; 0x400
    3186:	bf14      	ite	ne
    3188:	2006      	movne	r0, #6
    318a:	2002      	moveq	r0, #2
    318c:	4770      	bx	lr
    318e:	bf00      	nop

00003190 <mbed::LocalFileSystem::open(char const*, int)>:
    3190:	b510      	push	{r4, lr}
    3192:	780b      	ldrb	r3, [r1, #0]
    3194:	b153      	cbz	r3, 31ac <mbed::LocalFileSystem::open(char const*, int)+0x1c>
    3196:	2b2f      	cmp	r3, #47	; 0x2f
    3198:	bf18      	it	ne
    319a:	460c      	movne	r4, r1
    319c:	d102      	bne.n	31a4 <mbed::LocalFileSystem::open(char const*, int)+0x14>
    319e:	e01b      	b.n	31d8 <mbed::LocalFileSystem::open(char const*, int)+0x48>
    31a0:	2b2f      	cmp	r3, #47	; 0x2f
    31a2:	d019      	beq.n	31d8 <mbed::LocalFileSystem::open(char const*, int)+0x48>
    31a4:	f814 3f01 	ldrb.w	r3, [r4, #1]!
    31a8:	2b00      	cmp	r3, #0
    31aa:	d1f9      	bne.n	31a0 <mbed::LocalFileSystem::open(char const*, int)+0x10>
    31ac:	4610      	mov	r0, r2
    31ae:	460c      	mov	r4, r1
    31b0:	f7ff ffd4 	bl	315c <mbed::posix_to_semihost_open_flags(int)>
    31b4:	1c42      	adds	r2, r0, #1
    31b6:	d00f      	beq.n	31d8 <mbed::LocalFileSystem::open(char const*, int)+0x48>
    31b8:	4601      	mov	r1, r0
    31ba:	4620      	mov	r0, r4
    31bc:	f7fd feaa 	bl	f14 <semihost_open>
    31c0:	1c43      	adds	r3, r0, #1
    31c2:	4604      	mov	r4, r0
    31c4:	d008      	beq.n	31d8 <mbed::LocalFileSystem::open(char const*, int)+0x48>
    31c6:	200c      	movs	r0, #12
    31c8:	f000 f833 	bl	3232 <operator new(unsigned int)>
    31cc:	4903      	ldr	r1, [pc, #12]	; (31dc <mbed::LocalFileSystem::open(char const*, int)+0x4c>)
    31ce:	2200      	movs	r2, #0
    31d0:	e880 0012 	stmia.w	r0, {r1, r4}
    31d4:	6082      	str	r2, [r0, #8]
    31d6:	bd10      	pop	{r4, pc}
    31d8:	2000      	movs	r0, #0
    31da:	bd10      	pop	{r4, pc}
    31dc:	0000866c 	.word	0x0000866c

000031e0 <Reset_Handler>:
    31e0:	4906      	ldr	r1, [pc, #24]	; (31fc <Reset_Handler+0x1c>)
    31e2:	4a07      	ldr	r2, [pc, #28]	; (3200 <Reset_Handler+0x20>)
    31e4:	4b07      	ldr	r3, [pc, #28]	; (3204 <Reset_Handler+0x24>)
    31e6:	429a      	cmp	r2, r3
    31e8:	bfbe      	ittt	lt
    31ea:	f851 0b04 	ldrlt.w	r0, [r1], #4
    31ee:	f842 0b04 	strlt.w	r0, [r2], #4
    31f2:	e7f8      	blt.n	31e6 <Reset_Handler+0x6>
    31f4:	4804      	ldr	r0, [pc, #16]	; (3208 <Reset_Handler+0x28>)
    31f6:	4780      	blx	r0
    31f8:	4804      	ldr	r0, [pc, #16]	; (320c <Reset_Handler+0x2c>)
    31fa:	4700      	bx	r0
    31fc:	00008984 	.word	0x00008984
    3200:	100000c8 	.word	0x100000c8
    3204:	10000188 	.word	0x10000188
    3208:	00001311 	.word	0x00001311
    320c:	00000eb9 	.word	0x00000eb9

00003210 <NMI_Handler>:
    3210:	e7fe      	b.n	3210 <NMI_Handler>

00003212 <HardFault_Handler>:
    3212:	e7fe      	b.n	3212 <HardFault_Handler>

00003214 <MemManage_Handler>:
    3214:	e7fe      	b.n	3214 <MemManage_Handler>

00003216 <BusFault_Handler>:
    3216:	e7fe      	b.n	3216 <BusFault_Handler>

00003218 <UsageFault_Handler>:
    3218:	e7fe      	b.n	3218 <UsageFault_Handler>

0000321a <SVC_Handler>:
    321a:	e7fe      	b.n	321a <SVC_Handler>

0000321c <DebugMon_Handler>:
    321c:	e7fe      	b.n	321c <DebugMon_Handler>

0000321e <PendSV_Handler>:
    321e:	e7fe      	b.n	321e <PendSV_Handler>

00003220 <SysTick_Handler>:
    3220:	e7fe      	b.n	3220 <SysTick_Handler>

00003222 <ADC_IRQHandler>:
    3222:	e7fe      	b.n	3222 <ADC_IRQHandler>

00003224 <__aeabi_atexit>:
    3224:	460b      	mov	r3, r1
    3226:	4601      	mov	r1, r0
    3228:	4618      	mov	r0, r3
    322a:	f000 bee1 	b.w	3ff0 <__cxa_atexit>

0000322e <operator delete(void*)>:
    322e:	f7fd be63 	b.w	ef8 <__wrap_free>

00003232 <operator new(unsigned int)>:
    3232:	b510      	push	{r4, lr}
    3234:	2800      	cmp	r0, #0
    3236:	bf14      	ite	ne
    3238:	4604      	movne	r4, r0
    323a:	2401      	moveq	r4, #1
    323c:	4620      	mov	r0, r4
    323e:	f7fd fe55 	bl	eec <__wrap_malloc>
    3242:	b930      	cbnz	r0, 3252 <operator new(unsigned int)+0x20>
    3244:	f000 f806 	bl	3254 <std::get_new_handler()>
    3248:	b908      	cbnz	r0, 324e <operator new(unsigned int)+0x1c>
    324a:	f7fd fe5b 	bl	f04 <abort>
    324e:	4780      	blx	r0
    3250:	e7f4      	b.n	323c <operator new(unsigned int)+0xa>
    3252:	bd10      	pop	{r4, pc}

00003254 <std::get_new_handler()>:
    3254:	4b02      	ldr	r3, [pc, #8]	; (3260 <std::get_new_handler()+0xc>)
    3256:	6818      	ldr	r0, [r3, #0]
    3258:	f3bf 8f5f 	dmb	sy
    325c:	4770      	bx	lr
    325e:	bf00      	nop
    3260:	100007c4 	.word	0x100007c4

00003264 <__aeabi_drsub>:
    3264:	f081 4100 	eor.w	r1, r1, #2147483648	; 0x80000000
    3268:	e002      	b.n	3270 <__adddf3>
    326a:	bf00      	nop

0000326c <__aeabi_dsub>:
    326c:	f083 4300 	eor.w	r3, r3, #2147483648	; 0x80000000

00003270 <__adddf3>:
    3270:	b530      	push	{r4, r5, lr}
    3272:	ea4f 0441 	mov.w	r4, r1, lsl #1
    3276:	ea4f 0543 	mov.w	r5, r3, lsl #1
    327a:	ea94 0f05 	teq	r4, r5
    327e:	bf08      	it	eq
    3280:	ea90 0f02 	teqeq	r0, r2
    3284:	bf1f      	itttt	ne
    3286:	ea54 0c00 	orrsne.w	r12, r4, r0
    328a:	ea55 0c02 	orrsne.w	r12, r5, r2
    328e:	ea7f 5c64 	mvnsne.w	r12, r4, asr #21
    3292:	ea7f 5c65 	mvnsne.w	r12, r5, asr #21
    3296:	f000 80e2 	beq.w	345e <__adddf3+0x1ee>
    329a:	ea4f 5454 	mov.w	r4, r4, lsr #21
    329e:	ebd4 5555 	rsbs	r5, r4, r5, lsr #21
    32a2:	bfb8      	it	lt
    32a4:	426d      	neglt	r5, r5
    32a6:	dd0c      	ble.n	32c2 <__adddf3+0x52>
    32a8:	442c      	add	r4, r5
    32aa:	ea80 0202 	eor.w	r2, r0, r2
    32ae:	ea81 0303 	eor.w	r3, r1, r3
    32b2:	ea82 0000 	eor.w	r0, r2, r0
    32b6:	ea83 0101 	eor.w	r1, r3, r1
    32ba:	ea80 0202 	eor.w	r2, r0, r2
    32be:	ea81 0303 	eor.w	r3, r1, r3
    32c2:	2d36      	cmp	r5, #54	; 0x36
    32c4:	bf88      	it	hi
    32c6:	bd30      	pophi	{r4, r5, pc}
    32c8:	f011 4f00 	tst.w	r1, #2147483648	; 0x80000000
    32cc:	ea4f 3101 	mov.w	r1, r1, lsl #12
    32d0:	f44f 1c80 	mov.w	r12, #1048576	; 0x100000
    32d4:	ea4c 3111 	orr.w	r1, r12, r1, lsr #12
    32d8:	d002      	beq.n	32e0 <__adddf3+0x70>
    32da:	4240      	negs	r0, r0
    32dc:	eb61 0141 	sbc.w	r1, r1, r1, lsl #1
    32e0:	f013 4f00 	tst.w	r3, #2147483648	; 0x80000000
    32e4:	ea4f 3303 	mov.w	r3, r3, lsl #12
    32e8:	ea4c 3313 	orr.w	r3, r12, r3, lsr #12
    32ec:	d002      	beq.n	32f4 <__adddf3+0x84>
    32ee:	4252      	negs	r2, r2
    32f0:	eb63 0343 	sbc.w	r3, r3, r3, lsl #1
    32f4:	ea94 0f05 	teq	r4, r5
    32f8:	f000 80a7 	beq.w	344a <__adddf3+0x1da>
    32fc:	f1a4 0401 	sub.w	r4, r4, #1
    3300:	f1d5 0e20 	rsbs	lr, r5, #32
    3304:	db0d      	blt.n	3322 <__adddf3+0xb2>
    3306:	fa02 fc0e 	lsl.w	r12, r2, lr
    330a:	fa22 f205 	lsr.w	r2, r2, r5
    330e:	1880      	adds	r0, r0, r2
    3310:	f141 0100 	adc.w	r1, r1, #0
    3314:	fa03 f20e 	lsl.w	r2, r3, lr
    3318:	1880      	adds	r0, r0, r2
    331a:	fa43 f305 	asr.w	r3, r3, r5
    331e:	4159      	adcs	r1, r3
    3320:	e00e      	b.n	3340 <__adddf3+0xd0>
    3322:	f1a5 0520 	sub.w	r5, r5, #32
    3326:	f10e 0e20 	add.w	lr, lr, #32
    332a:	2a01      	cmp	r2, #1
    332c:	fa03 fc0e 	lsl.w	r12, r3, lr
    3330:	bf28      	it	cs
    3332:	f04c 0c02 	orrcs.w	r12, r12, #2
    3336:	fa43 f305 	asr.w	r3, r3, r5
    333a:	18c0      	adds	r0, r0, r3
    333c:	eb51 71e3 	adcs.w	r1, r1, r3, asr #31
    3340:	f001 4500 	and.w	r5, r1, #2147483648	; 0x80000000
    3344:	d507      	bpl.n	3356 <__adddf3+0xe6>
    3346:	f04f 0e00 	mov.w	lr, #0
    334a:	f1dc 0c00 	rsbs	r12, r12, #0
    334e:	eb7e 0000 	sbcs.w	r0, lr, r0
    3352:	eb6e 0101 	sbc.w	r1, lr, r1
    3356:	f5b1 1f80 	cmp.w	r1, #1048576	; 0x100000
    335a:	d31b      	bcc.n	3394 <__adddf3+0x124>
    335c:	f5b1 1f00 	cmp.w	r1, #2097152	; 0x200000
    3360:	d30c      	bcc.n	337c <__adddf3+0x10c>
    3362:	0849      	lsrs	r1, r1, #1
    3364:	ea5f 0030 	movs.w	r0, r0, rrx
    3368:	ea4f 0c3c 	mov.w	r12, r12, rrx
    336c:	f104 0401 	add.w	r4, r4, #1
    3370:	ea4f 5244 	mov.w	r2, r4, lsl #21
    3374:	f512 0f80 	cmn.w	r2, #4194304	; 0x400000
    3378:	f080 809a 	bcs.w	34b0 <__adddf3+0x240>
    337c:	f1bc 4f00 	cmp.w	r12, #2147483648	; 0x80000000
    3380:	bf08      	it	eq
    3382:	ea5f 0c50 	movseq.w	r12, r0, lsr #1
    3386:	f150 0000 	adcs.w	r0, r0, #0
    338a:	eb41 5104 	adc.w	r1, r1, r4, lsl #20
    338e:	ea41 0105 	orr.w	r1, r1, r5
    3392:	bd30      	pop	{r4, r5, pc}
    3394:	ea5f 0c4c 	movs.w	r12, r12, lsl #1
    3398:	4140      	adcs	r0, r0
    339a:	eb41 0101 	adc.w	r1, r1, r1
    339e:	f411 1f80 	tst.w	r1, #1048576	; 0x100000
    33a2:	f1a4 0401 	sub.w	r4, r4, #1
    33a6:	d1e9      	bne.n	337c <__adddf3+0x10c>
    33a8:	f091 0f00 	teq	r1, #0
    33ac:	bf04      	itt	eq
    33ae:	4601      	moveq	r1, r0
    33b0:	2000      	moveq	r0, #0
    33b2:	fab1 f381 	clz	r3, r1
    33b6:	bf08      	it	eq
    33b8:	3320      	addeq	r3, #32
    33ba:	f1a3 030b 	sub.w	r3, r3, #11
    33be:	f1b3 0220 	subs.w	r2, r3, #32
    33c2:	da0c      	bge.n	33de <__adddf3+0x16e>
    33c4:	320c      	adds	r2, #12
    33c6:	dd08      	ble.n	33da <__adddf3+0x16a>
    33c8:	f102 0c14 	add.w	r12, r2, #20
    33cc:	f1c2 020c 	rsb	r2, r2, #12
    33d0:	fa01 f00c 	lsl.w	r0, r1, r12
    33d4:	fa21 f102 	lsr.w	r1, r1, r2
    33d8:	e00c      	b.n	33f4 <__adddf3+0x184>
    33da:	f102 0214 	add.w	r2, r2, #20
    33de:	bfd8      	it	le
    33e0:	f1c2 0c20 	rsble	r12, r2, #32
    33e4:	fa01 f102 	lsl.w	r1, r1, r2
    33e8:	fa20 fc0c 	lsr.w	r12, r0, r12
    33ec:	bfdc      	itt	le
    33ee:	ea41 010c 	orrle.w	r1, r1, r12
    33f2:	4090      	lslle	r0, r2
    33f4:	1ae4      	subs	r4, r4, r3
    33f6:	bfa2      	ittt	ge
    33f8:	eb01 5104 	addge.w	r1, r1, r4, lsl #20
    33fc:	4329      	orrge	r1, r5
    33fe:	bd30      	popge	{r4, r5, pc}
    3400:	ea6f 0404 	mvn.w	r4, r4
    3404:	3c1f      	subs	r4, #31
    3406:	da1c      	bge.n	3442 <__adddf3+0x1d2>
    3408:	340c      	adds	r4, #12
    340a:	dc0e      	bgt.n	342a <__adddf3+0x1ba>
    340c:	f104 0414 	add.w	r4, r4, #20
    3410:	f1c4 0220 	rsb	r2, r4, #32
    3414:	fa20 f004 	lsr.w	r0, r0, r4
    3418:	fa01 f302 	lsl.w	r3, r1, r2
    341c:	ea40 0003 	orr.w	r0, r0, r3
    3420:	fa21 f304 	lsr.w	r3, r1, r4
    3424:	ea45 0103 	orr.w	r1, r5, r3
    3428:	bd30      	pop	{r4, r5, pc}
    342a:	f1c4 040c 	rsb	r4, r4, #12
    342e:	f1c4 0220 	rsb	r2, r4, #32
    3432:	fa20 f002 	lsr.w	r0, r0, r2
    3436:	fa01 f304 	lsl.w	r3, r1, r4
    343a:	ea40 0003 	orr.w	r0, r0, r3
    343e:	4629      	mov	r1, r5
    3440:	bd30      	pop	{r4, r5, pc}
    3442:	fa21 f004 	lsr.w	r0, r1, r4
    3446:	4629      	mov	r1, r5
    3448:	bd30      	pop	{r4, r5, pc}
    344a:	f094 0f00 	teq	r4, #0
    344e:	f483 1380 	eor.w	r3, r3, #1048576	; 0x100000
    3452:	bf06      	itte	eq
    3454:	f481 1180 	eoreq.w	r1, r1, #1048576	; 0x100000
    3458:	3401      	addeq	r4, #1
    345a:	3d01      	subne	r5, #1
    345c:	e74e      	b.n	32fc <__adddf3+0x8c>
    345e:	ea7f 5c64 	mvns.w	r12, r4, asr #21
    3462:	bf18      	it	ne
    3464:	ea7f 5c65 	mvnsne.w	r12, r5, asr #21
    3468:	d029      	beq.n	34be <__adddf3+0x24e>
    346a:	ea94 0f05 	teq	r4, r5
    346e:	bf08      	it	eq
    3470:	ea90 0f02 	teqeq	r0, r2
    3474:	d005      	beq.n	3482 <__adddf3+0x212>
    3476:	ea54 0c00 	orrs.w	r12, r4, r0
    347a:	bf04      	itt	eq
    347c:	4619      	moveq	r1, r3
    347e:	4610      	moveq	r0, r2
    3480:	bd30      	pop	{r4, r5, pc}
    3482:	ea91 0f03 	teq	r1, r3
    3486:	bf1e      	ittt	ne
    3488:	2100      	movne	r1, #0
    348a:	2000      	movne	r0, #0
    348c:	bd30      	popne	{r4, r5, pc}
    348e:	ea5f 5c54 	movs.w	r12, r4, lsr #21
    3492:	d105      	bne.n	34a0 <__adddf3+0x230>
    3494:	0040      	lsls	r0, r0, #1
    3496:	4149      	adcs	r1, r1
    3498:	bf28      	it	cs
    349a:	f041 4100 	orrcs.w	r1, r1, #2147483648	; 0x80000000
    349e:	bd30      	pop	{r4, r5, pc}
    34a0:	f514 0480 	adds.w	r4, r4, #4194304	; 0x400000
    34a4:	bf3c      	itt	cc
    34a6:	f501 1180 	addcc.w	r1, r1, #1048576	; 0x100000
    34aa:	bd30      	popcc	{r4, r5, pc}
    34ac:	f001 4500 	and.w	r5, r1, #2147483648	; 0x80000000
    34b0:	f045 41fe 	orr.w	r1, r5, #2130706432	; 0x7f000000
    34b4:	f441 0170 	orr.w	r1, r1, #15728640	; 0xf00000
    34b8:	f04f 0000 	mov.w	r0, #0
    34bc:	bd30      	pop	{r4, r5, pc}
    34be:	ea7f 5c64 	mvns.w	r12, r4, asr #21
    34c2:	bf1a      	itte	ne
    34c4:	4619      	movne	r1, r3
    34c6:	4610      	movne	r0, r2
    34c8:	ea7f 5c65 	mvnseq.w	r12, r5, asr #21
    34cc:	bf1c      	itt	ne
    34ce:	460b      	movne	r3, r1
    34d0:	4602      	movne	r2, r0
    34d2:	ea50 3401 	orrs.w	r4, r0, r1, lsl #12
    34d6:	bf06      	itte	eq
    34d8:	ea52 3503 	orrseq.w	r5, r2, r3, lsl #12
    34dc:	ea91 0f03 	teqeq	r1, r3
    34e0:	f441 2100 	orrne.w	r1, r1, #524288	; 0x80000
    34e4:	bd30      	pop	{r4, r5, pc}
    34e6:	bf00      	nop

000034e8 <__aeabi_ui2d>:
    34e8:	f090 0f00 	teq	r0, #0
    34ec:	bf04      	itt	eq
    34ee:	2100      	moveq	r1, #0
    34f0:	4770      	bxeq	lr
    34f2:	b530      	push	{r4, r5, lr}
    34f4:	f44f 6480 	mov.w	r4, #1024	; 0x400
    34f8:	f104 0432 	add.w	r4, r4, #50	; 0x32
    34fc:	f04f 0500 	mov.w	r5, #0
    3500:	f04f 0100 	mov.w	r1, #0
    3504:	e750      	b.n	33a8 <__adddf3+0x138>
    3506:	bf00      	nop

00003508 <__aeabi_i2d>:
    3508:	f090 0f00 	teq	r0, #0
    350c:	bf04      	itt	eq
    350e:	2100      	moveq	r1, #0
    3510:	4770      	bxeq	lr
    3512:	b530      	push	{r4, r5, lr}
    3514:	f44f 6480 	mov.w	r4, #1024	; 0x400
    3518:	f104 0432 	add.w	r4, r4, #50	; 0x32
    351c:	f010 4500 	ands.w	r5, r0, #2147483648	; 0x80000000
    3520:	bf48      	it	mi
    3522:	4240      	negmi	r0, r0
    3524:	f04f 0100 	mov.w	r1, #0
    3528:	e73e      	b.n	33a8 <__adddf3+0x138>
    352a:	bf00      	nop

0000352c <__aeabi_f2d>:
    352c:	0042      	lsls	r2, r0, #1
    352e:	ea4f 01e2 	mov.w	r1, r2, asr #3
    3532:	ea4f 0131 	mov.w	r1, r1, rrx
    3536:	ea4f 7002 	mov.w	r0, r2, lsl #28
    353a:	bf1f      	itttt	ne
    353c:	f012 437f 	andsne.w	r3, r2, #4278190080	; 0xff000000
    3540:	f093 4f7f 	teqne	r3, #4278190080	; 0xff000000
    3544:	f081 5160 	eorne.w	r1, r1, #939524096	; 0x38000000
    3548:	4770      	bxne	lr
    354a:	f092 0f00 	teq	r2, #0
    354e:	bf14      	ite	ne
    3550:	f093 4f7f 	teqne	r3, #4278190080	; 0xff000000
    3554:	4770      	bxeq	lr
    3556:	b530      	push	{r4, r5, lr}
    3558:	f44f 7460 	mov.w	r4, #896	; 0x380
    355c:	f001 4500 	and.w	r5, r1, #2147483648	; 0x80000000
    3560:	f021 4100 	bic.w	r1, r1, #2147483648	; 0x80000000
    3564:	e720      	b.n	33a8 <__adddf3+0x138>
    3566:	bf00      	nop

00003568 <__aeabi_ul2d>:
    3568:	ea50 0201 	orrs.w	r2, r0, r1
    356c:	bf08      	it	eq
    356e:	4770      	bxeq	lr
    3570:	b530      	push	{r4, r5, lr}
    3572:	f04f 0500 	mov.w	r5, #0
    3576:	e00a      	b.n	358e <__aeabi_l2d+0x16>

00003578 <__aeabi_l2d>:
    3578:	ea50 0201 	orrs.w	r2, r0, r1
    357c:	bf08      	it	eq
    357e:	4770      	bxeq	lr
    3580:	b530      	push	{r4, r5, lr}
    3582:	f011 4500 	ands.w	r5, r1, #2147483648	; 0x80000000
    3586:	d502      	bpl.n	358e <__aeabi_l2d+0x16>
    3588:	4240      	negs	r0, r0
    358a:	eb61 0141 	sbc.w	r1, r1, r1, lsl #1
    358e:	f44f 6480 	mov.w	r4, #1024	; 0x400
    3592:	f104 0432 	add.w	r4, r4, #50	; 0x32
    3596:	ea5f 5c91 	movs.w	r12, r1, lsr #22
    359a:	f43f aedc 	beq.w	3356 <__adddf3+0xe6>
    359e:	f04f 0203 	mov.w	r2, #3
    35a2:	ea5f 0cdc 	movs.w	r12, r12, lsr #3
    35a6:	bf18      	it	ne
    35a8:	3203      	addne	r2, #3
    35aa:	ea5f 0cdc 	movs.w	r12, r12, lsr #3
    35ae:	bf18      	it	ne
    35b0:	3203      	addne	r2, #3
    35b2:	eb02 02dc 	add.w	r2, r2, r12, lsr #3
    35b6:	f1c2 0320 	rsb	r3, r2, #32
    35ba:	fa00 fc03 	lsl.w	r12, r0, r3
    35be:	fa20 f002 	lsr.w	r0, r0, r2
    35c2:	fa01 fe03 	lsl.w	lr, r1, r3
    35c6:	ea40 000e 	orr.w	r0, r0, lr
    35ca:	fa21 f102 	lsr.w	r1, r1, r2
    35ce:	4414      	add	r4, r2
    35d0:	e6c1      	b.n	3356 <__adddf3+0xe6>
    35d2:	bf00      	nop

000035d4 <__aeabi_dmul>:
    35d4:	b570      	push	{r4, r5, r6, lr}
    35d6:	f04f 0cff 	mov.w	r12, #255	; 0xff
    35da:	f44c 6ce0 	orr.w	r12, r12, #1792	; 0x700
    35de:	ea1c 5411 	ands.w	r4, r12, r1, lsr #20
    35e2:	bf1d      	ittte	ne
    35e4:	ea1c 5513 	andsne.w	r5, r12, r3, lsr #20
    35e8:	ea94 0f0c 	teqne	r4, r12
    35ec:	ea95 0f0c 	teqne	r5, r12
    35f0:	f000 f8de 	bleq	37b0 <__aeabi_dmul+0x1dc>
    35f4:	442c      	add	r4, r5
    35f6:	ea81 0603 	eor.w	r6, r1, r3
    35fa:	ea21 514c 	bic.w	r1, r1, r12, lsl #21
    35fe:	ea23 534c 	bic.w	r3, r3, r12, lsl #21
    3602:	ea50 3501 	orrs.w	r5, r0, r1, lsl #12
    3606:	bf18      	it	ne
    3608:	ea52 3503 	orrsne.w	r5, r2, r3, lsl #12
    360c:	f441 1180 	orr.w	r1, r1, #1048576	; 0x100000
    3610:	f443 1380 	orr.w	r3, r3, #1048576	; 0x100000
    3614:	d038      	beq.n	3688 <__aeabi_dmul+0xb4>
    3616:	fba0 ce02 	umull	r12, lr, r0, r2
    361a:	f04f 0500 	mov.w	r5, #0
    361e:	fbe1 e502 	umlal	lr, r5, r1, r2
    3622:	f006 4200 	and.w	r2, r6, #2147483648	; 0x80000000
    3626:	fbe0 e503 	umlal	lr, r5, r0, r3
    362a:	f04f 0600 	mov.w	r6, #0
    362e:	fbe1 5603 	umlal	r5, r6, r1, r3
    3632:	f09c 0f00 	teq	r12, #0
    3636:	bf18      	it	ne
    3638:	f04e 0e01 	orrne.w	lr, lr, #1
    363c:	f1a4 04ff 	sub.w	r4, r4, #255	; 0xff
    3640:	f5b6 7f00 	cmp.w	r6, #512	; 0x200
    3644:	f564 7440 	sbc.w	r4, r4, #768	; 0x300
    3648:	d204      	bcs.n	3654 <__aeabi_dmul+0x80>
    364a:	ea5f 0e4e 	movs.w	lr, lr, lsl #1
    364e:	416d      	adcs	r5, r5
    3650:	eb46 0606 	adc.w	r6, r6, r6
    3654:	ea42 21c6 	orr.w	r1, r2, r6, lsl #11
    3658:	ea41 5155 	orr.w	r1, r1, r5, lsr #21
    365c:	ea4f 20c5 	mov.w	r0, r5, lsl #11
    3660:	ea40 505e 	orr.w	r0, r0, lr, lsr #21
    3664:	ea4f 2ece 	mov.w	lr, lr, lsl #11
    3668:	f1b4 0cfd 	subs.w	r12, r4, #253	; 0xfd
    366c:	bf88      	it	hi
    366e:	f5bc 6fe0 	cmphi.w	r12, #1792	; 0x700
    3672:	d81e      	bhi.n	36b2 <__aeabi_dmul+0xde>
    3674:	f1be 4f00 	cmp.w	lr, #2147483648	; 0x80000000
    3678:	bf08      	it	eq
    367a:	ea5f 0e50 	movseq.w	lr, r0, lsr #1
    367e:	f150 0000 	adcs.w	r0, r0, #0
    3682:	eb41 5104 	adc.w	r1, r1, r4, lsl #20
    3686:	bd70      	pop	{r4, r5, r6, pc}
    3688:	f006 4600 	and.w	r6, r6, #2147483648	; 0x80000000
    368c:	ea46 0101 	orr.w	r1, r6, r1
    3690:	ea40 0002 	orr.w	r0, r0, r2
    3694:	ea81 0103 	eor.w	r1, r1, r3
    3698:	ebb4 045c 	subs.w	r4, r4, r12, lsr #1
    369c:	bfc2      	ittt	gt
    369e:	ebd4 050c 	rsbsgt	r5, r4, r12
    36a2:	ea41 5104 	orrgt.w	r1, r1, r4, lsl #20
    36a6:	bd70      	popgt	{r4, r5, r6, pc}
    36a8:	f441 1180 	orr.w	r1, r1, #1048576	; 0x100000
    36ac:	f04f 0e00 	mov.w	lr, #0
    36b0:	3c01      	subs	r4, #1
    36b2:	f300 80ab 	bgt.w	380c <__aeabi_dmul+0x238>
    36b6:	f114 0f36 	cmn.w	r4, #54	; 0x36
    36ba:	bfde      	ittt	le
    36bc:	2000      	movle	r0, #0
    36be:	f001 4100 	andle.w	r1, r1, #2147483648	; 0x80000000
    36c2:	bd70      	pople	{r4, r5, r6, pc}
    36c4:	f1c4 0400 	rsb	r4, r4, #0
    36c8:	3c20      	subs	r4, #32
    36ca:	da35      	bge.n	3738 <__aeabi_dmul+0x164>
    36cc:	340c      	adds	r4, #12
    36ce:	dc1b      	bgt.n	3708 <__aeabi_dmul+0x134>
    36d0:	f104 0414 	add.w	r4, r4, #20
    36d4:	f1c4 0520 	rsb	r5, r4, #32
    36d8:	fa00 f305 	lsl.w	r3, r0, r5
    36dc:	fa20 f004 	lsr.w	r0, r0, r4
    36e0:	fa01 f205 	lsl.w	r2, r1, r5
    36e4:	ea40 0002 	orr.w	r0, r0, r2
    36e8:	f001 4200 	and.w	r2, r1, #2147483648	; 0x80000000
    36ec:	f021 4100 	bic.w	r1, r1, #2147483648	; 0x80000000
    36f0:	eb10 70d3 	adds.w	r0, r0, r3, lsr #31
    36f4:	fa21 f604 	lsr.w	r6, r1, r4
    36f8:	eb42 0106 	adc.w	r1, r2, r6
    36fc:	ea5e 0e43 	orrs.w	lr, lr, r3, lsl #1
    3700:	bf08      	it	eq
    3702:	ea20 70d3 	biceq.w	r0, r0, r3, lsr #31
    3706:	bd70      	pop	{r4, r5, r6, pc}
    3708:	f1c4 040c 	rsb	r4, r4, #12
    370c:	f1c4 0520 	rsb	r5, r4, #32
    3710:	fa00 f304 	lsl.w	r3, r0, r4
    3714:	fa20 f005 	lsr.w	r0, r0, r5
    3718:	fa01 f204 	lsl.w	r2, r1, r4
    371c:	ea40 0002 	orr.w	r0, r0, r2
    3720:	f001 4100 	and.w	r1, r1, #2147483648	; 0x80000000
    3724:	eb10 70d3 	adds.w	r0, r0, r3, lsr #31
    3728:	f141 0100 	adc.w	r1, r1, #0
    372c:	ea5e 0e43 	orrs.w	lr, lr, r3, lsl #1
    3730:	bf08      	it	eq
    3732:	ea20 70d3 	biceq.w	r0, r0, r3, lsr #31
    3736:	bd70      	pop	{r4, r5, r6, pc}
    3738:	f1c4 0520 	rsb	r5, r4, #32
    373c:	fa00 f205 	lsl.w	r2, r0, r5
    3740:	ea4e 0e02 	orr.w	lr, lr, r2
    3744:	fa20 f304 	lsr.w	r3, r0, r4
    3748:	fa01 f205 	lsl.w	r2, r1, r5
    374c:	ea43 0302 	orr.w	r3, r3, r2
    3750:	fa21 f004 	lsr.w	r0, r1, r4
    3754:	f001 4100 	and.w	r1, r1, #2147483648	; 0x80000000
    3758:	fa21 f204 	lsr.w	r2, r1, r4
    375c:	ea20 0002 	bic.w	r0, r0, r2
    3760:	eb00 70d3 	add.w	r0, r0, r3, lsr #31
    3764:	ea5e 0e43 	orrs.w	lr, lr, r3, lsl #1
    3768:	bf08      	it	eq
    376a:	ea20 70d3 	biceq.w	r0, r0, r3, lsr #31
    376e:	bd70      	pop	{r4, r5, r6, pc}
    3770:	f094 0f00 	teq	r4, #0
    3774:	d10f      	bne.n	3796 <__aeabi_dmul+0x1c2>
    3776:	f001 4600 	and.w	r6, r1, #2147483648	; 0x80000000
    377a:	0040      	lsls	r0, r0, #1
    377c:	eb41 0101 	adc.w	r1, r1, r1
    3780:	f411 1f80 	tst.w	r1, #1048576	; 0x100000
    3784:	bf08      	it	eq
    3786:	3c01      	subeq	r4, #1
    3788:	d0f7      	beq.n	377a <__aeabi_dmul+0x1a6>
    378a:	ea41 0106 	orr.w	r1, r1, r6
    378e:	f095 0f00 	teq	r5, #0
    3792:	bf18      	it	ne
    3794:	4770      	bxne	lr
    3796:	f003 4600 	and.w	r6, r3, #2147483648	; 0x80000000
    379a:	0052      	lsls	r2, r2, #1
    379c:	eb43 0303 	adc.w	r3, r3, r3
    37a0:	f413 1f80 	tst.w	r3, #1048576	; 0x100000
    37a4:	bf08      	it	eq
    37a6:	3d01      	subeq	r5, #1
    37a8:	d0f7      	beq.n	379a <__aeabi_dmul+0x1c6>
    37aa:	ea43 0306 	orr.w	r3, r3, r6
    37ae:	4770      	bx	lr
    37b0:	ea94 0f0c 	teq	r4, r12
    37b4:	ea0c 5513 	and.w	r5, r12, r3, lsr #20
    37b8:	bf18      	it	ne
    37ba:	ea95 0f0c 	teqne	r5, r12
    37be:	d00c      	beq.n	37da <__aeabi_dmul+0x206>
    37c0:	ea50 0641 	orrs.w	r6, r0, r1, lsl #1
    37c4:	bf18      	it	ne
    37c6:	ea52 0643 	orrsne.w	r6, r2, r3, lsl #1
    37ca:	d1d1      	bne.n	3770 <__aeabi_dmul+0x19c>
    37cc:	ea81 0103 	eor.w	r1, r1, r3
    37d0:	f001 4100 	and.w	r1, r1, #2147483648	; 0x80000000
    37d4:	f04f 0000 	mov.w	r0, #0
    37d8:	bd70      	pop	{r4, r5, r6, pc}
    37da:	ea50 0641 	orrs.w	r6, r0, r1, lsl #1
    37de:	bf06      	itte	eq
    37e0:	4610      	moveq	r0, r2
    37e2:	4619      	moveq	r1, r3
    37e4:	ea52 0643 	orrsne.w	r6, r2, r3, lsl #1
    37e8:	d019      	beq.n	381e <__aeabi_dmul+0x24a>
    37ea:	ea94 0f0c 	teq	r4, r12
    37ee:	d102      	bne.n	37f6 <__aeabi_dmul+0x222>
    37f0:	ea50 3601 	orrs.w	r6, r0, r1, lsl #12
    37f4:	d113      	bne.n	381e <__aeabi_dmul+0x24a>
    37f6:	ea95 0f0c 	teq	r5, r12
    37fa:	d105      	bne.n	3808 <__aeabi_dmul+0x234>
    37fc:	ea52 3603 	orrs.w	r6, r2, r3, lsl #12
    3800:	bf1c      	itt	ne
    3802:	4610      	movne	r0, r2
    3804:	4619      	movne	r1, r3
    3806:	d10a      	bne.n	381e <__aeabi_dmul+0x24a>
    3808:	ea81 0103 	eor.w	r1, r1, r3
    380c:	f001 4100 	and.w	r1, r1, #2147483648	; 0x80000000
    3810:	f041 41fe 	orr.w	r1, r1, #2130706432	; 0x7f000000
    3814:	f441 0170 	orr.w	r1, r1, #15728640	; 0xf00000
    3818:	f04f 0000 	mov.w	r0, #0
    381c:	bd70      	pop	{r4, r5, r6, pc}
    381e:	f041 41fe 	orr.w	r1, r1, #2130706432	; 0x7f000000
    3822:	f441 0178 	orr.w	r1, r1, #16252928	; 0xf80000
    3826:	bd70      	pop	{r4, r5, r6, pc}

00003828 <__aeabi_ddiv>:
    3828:	b570      	push	{r4, r5, r6, lr}
    382a:	f04f 0cff 	mov.w	r12, #255	; 0xff
    382e:	f44c 6ce0 	orr.w	r12, r12, #1792	; 0x700
    3832:	ea1c 5411 	ands.w	r4, r12, r1, lsr #20
    3836:	bf1d      	ittte	ne
    3838:	ea1c 5513 	andsne.w	r5, r12, r3, lsr #20
    383c:	ea94 0f0c 	teqne	r4, r12
    3840:	ea95 0f0c 	teqne	r5, r12
    3844:	f000 f8a7 	bleq	3996 <__aeabi_ddiv+0x16e>
    3848:	eba4 0405 	sub.w	r4, r4, r5
    384c:	ea81 0e03 	eor.w	lr, r1, r3
    3850:	ea52 3503 	orrs.w	r5, r2, r3, lsl #12
    3854:	ea4f 3101 	mov.w	r1, r1, lsl #12
    3858:	f000 8088 	beq.w	396c <__aeabi_ddiv+0x144>
    385c:	ea4f 3303 	mov.w	r3, r3, lsl #12
    3860:	f04f 5580 	mov.w	r5, #268435456	; 0x10000000
    3864:	ea45 1313 	orr.w	r3, r5, r3, lsr #4
    3868:	ea43 6312 	orr.w	r3, r3, r2, lsr #24
    386c:	ea4f 2202 	mov.w	r2, r2, lsl #8
    3870:	ea45 1511 	orr.w	r5, r5, r1, lsr #4
    3874:	ea45 6510 	orr.w	r5, r5, r0, lsr #24
    3878:	ea4f 2600 	mov.w	r6, r0, lsl #8
    387c:	f00e 4100 	and.w	r1, lr, #2147483648	; 0x80000000
    3880:	429d      	cmp	r5, r3
    3882:	bf08      	it	eq
    3884:	4296      	cmpeq	r6, r2
    3886:	f144 04fd 	adc.w	r4, r4, #253	; 0xfd
    388a:	f504 7440 	add.w	r4, r4, #768	; 0x300
    388e:	d202      	bcs.n	3896 <__aeabi_ddiv+0x6e>
    3890:	085b      	lsrs	r3, r3, #1
    3892:	ea4f 0232 	mov.w	r2, r2, rrx
    3896:	1ab6      	subs	r6, r6, r2
    3898:	eb65 0503 	sbc.w	r5, r5, r3
    389c:	085b      	lsrs	r3, r3, #1
    389e:	ea4f 0232 	mov.w	r2, r2, rrx
    38a2:	f44f 1080 	mov.w	r0, #1048576	; 0x100000
    38a6:	f44f 2c00 	mov.w	r12, #524288	; 0x80000
    38aa:	ebb6 0e02 	subs.w	lr, r6, r2
    38ae:	eb75 0e03 	sbcs.w	lr, r5, r3
    38b2:	bf22      	ittt	cs
    38b4:	1ab6      	subcs	r6, r6, r2
    38b6:	4675      	movcs	r5, lr
    38b8:	ea40 000c 	orrcs.w	r0, r0, r12
    38bc:	085b      	lsrs	r3, r3, #1
    38be:	ea4f 0232 	mov.w	r2, r2, rrx
    38c2:	ebb6 0e02 	subs.w	lr, r6, r2
    38c6:	eb75 0e03 	sbcs.w	lr, r5, r3
    38ca:	bf22      	ittt	cs
    38cc:	1ab6      	subcs	r6, r6, r2
    38ce:	4675      	movcs	r5, lr
    38d0:	ea40 005c 	orrcs.w	r0, r0, r12, lsr #1
    38d4:	085b      	lsrs	r3, r3, #1
    38d6:	ea4f 0232 	mov.w	r2, r2, rrx
    38da:	ebb6 0e02 	subs.w	lr, r6, r2
    38de:	eb75 0e03 	sbcs.w	lr, r5, r3
    38e2:	bf22      	ittt	cs
    38e4:	1ab6      	subcs	r6, r6, r2
    38e6:	4675      	movcs	r5, lr
    38e8:	ea40 009c 	orrcs.w	r0, r0, r12, lsr #2
    38ec:	085b      	lsrs	r3, r3, #1
    38ee:	ea4f 0232 	mov.w	r2, r2, rrx
    38f2:	ebb6 0e02 	subs.w	lr, r6, r2
    38f6:	eb75 0e03 	sbcs.w	lr, r5, r3
    38fa:	bf22      	ittt	cs
    38fc:	1ab6      	subcs	r6, r6, r2
    38fe:	4675      	movcs	r5, lr
    3900:	ea40 00dc 	orrcs.w	r0, r0, r12, lsr #3
    3904:	ea55 0e06 	orrs.w	lr, r5, r6
    3908:	d018      	beq.n	393c <__aeabi_ddiv+0x114>
    390a:	ea4f 1505 	mov.w	r5, r5, lsl #4
    390e:	ea45 7516 	orr.w	r5, r5, r6, lsr #28
    3912:	ea4f 1606 	mov.w	r6, r6, lsl #4
    3916:	ea4f 03c3 	mov.w	r3, r3, lsl #3
    391a:	ea43 7352 	orr.w	r3, r3, r2, lsr #29
    391e:	ea4f 02c2 	mov.w	r2, r2, lsl #3
    3922:	ea5f 1c1c 	movs.w	r12, r12, lsr #4
    3926:	d1c0      	bne.n	38aa <__aeabi_ddiv+0x82>
    3928:	f411 1f80 	tst.w	r1, #1048576	; 0x100000
    392c:	d10b      	bne.n	3946 <__aeabi_ddiv+0x11e>
    392e:	ea41 0100 	orr.w	r1, r1, r0
    3932:	f04f 0000 	mov.w	r0, #0
    3936:	f04f 4c00 	mov.w	r12, #2147483648	; 0x80000000
    393a:	e7b6      	b.n	38aa <__aeabi_ddiv+0x82>
    393c:	f411 1f80 	tst.w	r1, #1048576	; 0x100000
    3940:	bf04      	itt	eq
    3942:	4301      	orreq	r1, r0
    3944:	2000      	moveq	r0, #0
    3946:	f1b4 0cfd 	subs.w	r12, r4, #253	; 0xfd
    394a:	bf88      	it	hi
    394c:	f5bc 6fe0 	cmphi.w	r12, #1792	; 0x700
    3950:	f63f aeaf 	bhi.w	36b2 <__aeabi_dmul+0xde>
    3954:	ebb5 0c03 	subs.w	r12, r5, r3
    3958:	bf04      	itt	eq
    395a:	ebb6 0c02 	subseq.w	r12, r6, r2
    395e:	ea5f 0c50 	movseq.w	r12, r0, lsr #1
    3962:	f150 0000 	adcs.w	r0, r0, #0
    3966:	eb41 5104 	adc.w	r1, r1, r4, lsl #20
    396a:	bd70      	pop	{r4, r5, r6, pc}
    396c:	f00e 4e00 	and.w	lr, lr, #2147483648	; 0x80000000
    3970:	ea4e 3111 	orr.w	r1, lr, r1, lsr #12
    3974:	eb14 045c 	adds.w	r4, r4, r12, lsr #1
    3978:	bfc2      	ittt	gt
    397a:	ebd4 050c 	rsbsgt	r5, r4, r12
    397e:	ea41 5104 	orrgt.w	r1, r1, r4, lsl #20
    3982:	bd70      	popgt	{r4, r5, r6, pc}
    3984:	f441 1180 	orr.w	r1, r1, #1048576	; 0x100000
    3988:	f04f 0e00 	mov.w	lr, #0
    398c:	3c01      	subs	r4, #1
    398e:	e690      	b.n	36b2 <__aeabi_dmul+0xde>
    3990:	ea45 0e06 	orr.w	lr, r5, r6
    3994:	e68d      	b.n	36b2 <__aeabi_dmul+0xde>
    3996:	ea0c 5513 	and.w	r5, r12, r3, lsr #20
